Microsoft (R) COFF/PE Dumper Version 14.11.25547.0
Copyright (C) Microsoft Corporation.  All rights reserved.


Dump of file Tools.lib

File Type: LIBRARY

Archive member name at 8: /               
5A1F8FD5 time/date Wed Nov 29 20:57:57 2017
         uid
         gid
       0 mode
   327E6 size
correct header end

    1636 public symbols

    6C7D4 ??$?0$$V@?$_Compressed_pair@V?$allocator@D@std@@V?$_String_val@U?$_Simple_types@D@std@@@2@$00@std@@QEAA@U_Zero_then_variadic_args_t@1@@Z
    6C7D4 ??$?0$$V@?$_Compressed_pair@V?$allocator@U?$_Tree_node@U?$pair@$$CBV?$basic_string@DU?$char_traits@D@std@@V?$allocator@D@2@@std@@V12@@std@@PEAX@std@@@std@@V?$_Tree_val@U?$_Tree_simple_types@U?$pair@$$CBV?$basic_string@DU?$char_traits@D@std@@V?$allocator@D@2@@std@@V12@@std@@@std@@@2@$00@std@@QEAA@U_Zero_then_variadic_args_t@1@@Z
    6C7D4 ??$?0$$V@?$_Compressed_pair@V?$allocator@U_Grp_t@?$_Tgt_state_t@PEBD@std@@@std@@V?$_Vector_val@U?$_Simple_types@U_Grp_t@?$_Tgt_state_t@PEBD@std@@@std@@@2@$00@std@@QEAA@U_Zero_then_variadic_args_t@1@@Z
    6C7D4 ??$?0$$V@?$_Compressed_pair@V?$allocator@U_Loop_vals_t@std@@@std@@V?$_Vector_val@U?$_Simple_types@U_Loop_vals_t@std@@@std@@@2@$00@std@@QEAA@U_Zero_then_variadic_args_t@1@@Z
    6C7D4 ??$?0$$V@?$_Compressed_pair@V?$allocator@V?$basic_string@DU?$char_traits@D@std@@V?$allocator@D@2@@std@@@std@@V?$_Vector_val@U?$_Simple_types@V?$basic_string@DU?$char_traits@D@std@@V?$allocator@D@2@@std@@@std@@@2@$00@std@@QEAA@U_Zero_then_variadic_args_t@1@@Z
    6C7D4 ??$?0AEAV?$_Tree_iterator@V?$_Tree_val@U?$_Tree_simple_types@U?$pair@$$CBV?$basic_string@DU?$char_traits@D@std@@V?$allocator@D@2@@std@@V12@@std@@@std@@@std@@@std@@_NX$0A@@?$pair@V?$_Tree_iterator@V?$_Tree_val@U?$_Tree_simple_types@U?$pair@$$CBV?$basic_string@DU?$char_traits@D@std@@V?$allocator@D@2@@std@@V12@@std@@@std@@@std@@@std@@_N@std@@QEAA@AEAV?$_Tree_iterator@V?$_Tree_val@U?$_Tree_simple_types@U?$pair@$$CBV?$basic_string@DU?$char_traits@D@std@@V?$allocator@D@2@@std@@V12@@std@@@std@@@std@@@1@$$QEA_N@Z
    6C7D4 ??$?0AEAY05$$CBDAEAY00$$CBDX$0A@@?$pair@$$CBV?$basic_string@DU?$char_traits@D@std@@V?$allocator@D@2@@std@@V12@@std@@QEAA@AEAY05$$CBDAEAY00$$CBD@Z
    6C7D4 ??$?0AEBU?$less@V?$basic_string@DU?$char_traits@D@std@@V?$allocator@D@2@@std@@@std@@U_Zero_then_variadic_args_t@1@@?$_Compressed_pair@U?$less@V?$basic_string@DU?$char_traits@D@std@@V?$allocator@D@2@@std@@@std@@V?$_Compressed_pair@V?$allocator@U?$_Tree_node@U?$pair@$$CBV?$basic_string@DU?$char_traits@D@std@@V?$allocator@D@2@@std@@V12@@std@@PEAX@std@@@std@@V?$_Tree_val@U?$_Tree_simple_types@U?$pair@$$CBV?$basic_string@DU?$char_traits@D@std@@V?$allocator@D@2@@std@@V12@@std@@@std@@@2@$00@2@$00@std@@QEAA@U_One_then_variadic_args_t@1@AEBU?$less@V?$basic_string@DU?$char_traits@D@std@@V?$allocator@D@2@@std@@@1@$$QEAU_Zero_then_variadic_args_t@1@@Z
    6C7D4 ??$?0AEBV?$allocator@D@std@@$$V@?$_Compressed_pair@V?$allocator@D@std@@V?$_String_val@U?$_Simple_types@D@std@@@2@$00@std@@QEAA@U_One_then_variadic_args_t@1@AEBV?$allocator@D@1@@Z
    6C7D4 ??$?0AEBV?$allocator@D@std@@$$V@?$_Compressed_pair@V?$allocator@D@std@@V?$_Vector_val@U?$_Simple_types@D@std@@@2@$00@std@@QEAA@U_One_then_variadic_args_t@1@AEBV?$allocator@D@1@@Z
    6C7D4 ??$?0AEBV?$allocator@D@std@@X@?$_String_alloc@U?$_String_base_types@DV?$allocator@D@std@@@std@@@std@@QEAA@AEBV?$allocator@D@1@@Z
    6C7D4 ??$?0AEBV?$allocator@D@std@@X@?$_Vector_alloc@U?$_Vec_base_types@DV?$allocator@D@std@@@std@@@std@@QEAA@AEBV?$allocator@D@1@@Z
    6C7D4 ??$?0AEBV?$allocator@I@std@@$$V@?$_Compressed_pair@V?$allocator@I@std@@V?$_Vector_val@U?$_Simple_types@I@std@@@2@$00@std@@QEAA@U_One_then_variadic_args_t@1@AEBV?$allocator@I@1@@Z
    6C7D4 ??$?0AEBV?$allocator@I@std@@X@?$_Vector_alloc@U?$_Vec_base_types@IV?$allocator@I@std@@@std@@@std@@QEAA@AEBV?$allocator@I@1@@Z
    6C7D4 ??$?0D@?$allocator@U_Container_proxy@std@@@std@@QEAA@AEBV?$allocator@D@1@@Z
    6C7D4 ??$?0I@?$allocator@U_Container_proxy@std@@@std@@QEAA@AEBV?$allocator@I@1@@Z
    6C7D4 ??$?0PEADX@?$vector@DV?$allocator@D@std@@@std@@QEAA@PEAD0AEBV?$allocator@D@1@@Z
    6C7D4 ??$?0PEBDPEBDX@?$pair@PEBDPEBD@std@@QEAA@XZ
    6C7D4 ??$?0PEBDX@?$vector@DV?$allocator@D@std@@@std@@QEAA@PEBD0AEBV?$allocator@D@1@@Z
    6C7D4 ??$?0U?$_Tree_node@U?$pair@$$CBV?$basic_string@DU?$char_traits@D@std@@V?$allocator@D@2@@std@@V12@@std@@PEAX@std@@@?$allocator@U_Container_proxy@std@@@std@@QEAA@AEBV?$allocator@U?$_Tree_node@U?$pair@$$CBV?$basic_string@DU?$char_traits@D@std@@V?$allocator@D@2@@std@@V12@@std@@PEAX@std@@@1@@Z
    6C7D4 ??$?0U?$integral_constant@_N$00@std@@@_Unused_parameter@std@@QEAA@$$QEAU?$integral_constant@_N$00@1@@Z
    6C7D4 ??$?0U_Grp_t@?$_Tgt_state_t@PEBD@std@@@?$allocator@U_Container_proxy@std@@@std@@QEAA@AEBV?$allocator@U_Grp_t@?$_Tgt_state_t@PEBD@std@@@1@@Z
    6C7D4 ??$?0U_Loop_vals_t@std@@@?$allocator@U_Container_proxy@std@@@std@@QEAA@AEBV?$allocator@U_Loop_vals_t@std@@@1@@Z
    6C7D4 ??$?0V?$_String_iterator@V?$_String_val@U?$_Simple_types@D@std@@@std@@@std@@X@?$vector@DV?$allocator@D@std@@@std@@QEAA@V?$_String_iterator@V?$_String_val@U?$_Simple_types@D@std@@@std@@@1@0AEBV?$allocator@D@1@@Z
    6C7D4 ??$?0V?$_Tree_iterator@V?$_Tree_val@U?$_Tree_simple_types@U?$pair@$$CBV?$basic_string@DU?$char_traits@D@std@@V?$allocator@D@2@@std@@V12@@std@@@std@@@std@@@std@@_NX$0A@@?$pair@V?$_Tree_iterator@V?$_Tree_val@U?$_Tree_simple_types@U?$pair@$$CBV?$basic_string@DU?$char_traits@D@std@@V?$allocator@D@2@@std@@V12@@std@@@std@@@std@@@std@@_N@std@@QEAA@$$QEAV?$_Tree_iterator@V?$_Tree_val@U?$_Tree_simple_types@U?$pair@$$CBV?$basic_string@DU?$char_traits@D@std@@V?$allocator@D@2@@std@@V12@@std@@@std@@@std@@@1@$$QEA_N@Z
    6C7D4 ??$?0V?$allocator@D@std@@$$V@?$_Compressed_pair@V?$allocator@D@std@@V?$_String_val@U?$_Simple_types@D@std@@@2@$00@std@@QEAA@U_One_then_variadic_args_t@1@$$QEAV?$allocator@D@1@@Z
    6C7D4 ??$?0V?$allocator@D@std@@X@?$_String_alloc@U?$_String_base_types@DV?$allocator@D@std@@@std@@@std@@QEAA@$$QEAV?$allocator@D@1@@Z
    6C7D4 ??$?0V?$allocator@I@std@@$$V@?$_Compressed_pair@V?$allocator@I@std@@V?$_Vector_val@U?$_Simple_types@I@std@@@2@$00@std@@QEAA@U_One_then_variadic_args_t@1@$$QEAV?$allocator@I@1@@Z
    6C7D4 ??$?0V?$allocator@I@std@@X@?$_Vector_alloc@U?$_Vec_base_types@IV?$allocator@I@std@@@std@@@std@@QEAA@$$QEAV?$allocator@I@1@@Z
    6C7D4 ??$?0V?$allocator@U_Grp_t@?$_Tgt_state_t@PEBD@std@@@std@@$$V@?$_Compressed_pair@V?$allocator@U_Grp_t@?$_Tgt_state_t@PEBD@std@@@std@@V?$_Vector_val@U?$_Simple_types@U_Grp_t@?$_Tgt_state_t@PEBD@std@@@std@@@2@$00@std@@QEAA@U_One_then_variadic_args_t@1@$$QEAV?$allocator@U_Grp_t@?$_Tgt_state_t@PEBD@std@@@1@@Z
    6C7D4 ??$?0V?$allocator@U_Grp_t@?$_Tgt_state_t@PEBD@std@@@std@@X@?$_Vector_alloc@U?$_Vec_base_types@U_Grp_t@?$_Tgt_state_t@PEBD@std@@V?$allocator@U_Grp_t@?$_Tgt_state_t@PEBD@std@@@3@@std@@@std@@QEAA@$$QEAV?$allocator@U_Grp_t@?$_Tgt_state_t@PEBD@std@@@1@@Z
    6C7D4 ??$?0V?$allocator@V?$basic_string@DU?$char_traits@D@std@@V?$allocator@D@2@@std@@@std@@$$V@?$_Compressed_pair@V?$allocator@V?$basic_string@DU?$char_traits@D@std@@V?$allocator@D@2@@std@@@std@@V?$_Vector_val@U?$_Simple_types@V?$basic_string@DU?$char_traits@D@std@@V?$allocator@D@2@@std@@@std@@@2@$00@std@@QEAA@U_One_then_variadic_args_t@1@$$QEAV?$allocator@V?$basic_string@DU?$char_traits@D@std@@V?$allocator@D@2@@std@@@1@@Z
    6C7D4 ??$?0V?$allocator@V?$basic_string@DU?$char_traits@D@std@@V?$allocator@D@2@@std@@@std@@X@?$_Vector_alloc@U?$_Vec_base_types@V?$basic_string@DU?$char_traits@D@std@@V?$allocator@D@2@@std@@V?$allocator@V?$basic_string@DU?$char_traits@D@std@@V?$allocator@D@2@@std@@@2@@std@@@std@@QEAA@$$QEAV?$allocator@V?$basic_string@DU?$char_traits@D@std@@V?$allocator@D@2@@std@@@1@@Z
    6C7D4 ??$?0V?$basic_string@DU?$char_traits@D@std@@V?$allocator@D@2@@std@@@?$allocator@U_Container_proxy@std@@@std@@QEAA@AEBV?$allocator@V?$basic_string@DU?$char_traits@D@std@@V?$allocator@D@2@@std@@@1@@Z
    6C7D4 ??$?0_N@?$allocator@I@std@@QEAA@AEBV?$allocator@_N@1@@Z
    6C7D4 ??$?6DU?$char_traits@D@std@@D@std@@YAAEAV?$basic_ostream@DU?$char_traits@D@std@@@0@AEAV10@AEBU?$_Timeobj@DPEBUtm@@@0@@Z
    6C7D4 ??$?6DU?$char_traits@D@std@@V?$allocator@D@1@@std@@YAAEAV?$basic_ostream@DU?$char_traits@D@std@@@0@AEAV10@AEBV?$basic_string@DU?$char_traits@D@std@@V?$allocator@D@2@@0@@Z
    6C7D4 ??$?6U?$char_traits@D@std@@@std@@YAAEAV?$basic_ostream@DU?$char_traits@D@std@@@0@AEAV10@D@Z
    6C7D4 ??$?6U?$char_traits@D@std@@@std@@YAAEAV?$basic_ostream@DU?$char_traits@D@std@@@0@AEAV10@PEBD@Z
    6C7D4 ??$?8DU?$char_traits@D@std@@V?$allocator@D@1@@std@@YA_NAEBV?$basic_string@DU?$char_traits@D@std@@V?$allocator@D@2@@0@0@Z
    6C7D4 ??$?8DU?$char_traits@D@std@@V?$allocator@D@1@@std@@YA_NAEBV?$basic_string@DU?$char_traits@D@std@@V?$allocator@D@2@@0@QEBD@Z
    6C7D4 ??$?9DD@std@@YA_NAEBV?$allocator@D@0@0@Z
    6C7D4 ??$?9DU?$char_traits@D@std@@V?$allocator@D@1@@std@@YA_NAEBV?$basic_string@DU?$char_traits@D@std@@V?$allocator@D@2@@0@QEBD@Z
    6C7D4 ??$?HDU?$char_traits@D@std@@V?$allocator@D@1@@std@@YA?AV?$basic_string@DU?$char_traits@D@std@@V?$allocator@D@2@@0@$$QEAV10@QEBD@Z
    6C7D4 ??$?HDU?$char_traits@D@std@@V?$allocator@D@1@@std@@YA?AV?$basic_string@DU?$char_traits@D@std@@V?$allocator@D@2@@0@AEBV10@$$QEAV10@@Z
    6C7D4 ??$?HDU?$char_traits@D@std@@V?$allocator@D@1@@std@@YA?AV?$basic_string@DU?$char_traits@D@std@@V?$allocator@D@2@@0@AEBV10@0@Z
    6C7D4 ??$?HDU?$char_traits@D@std@@V?$allocator@D@1@@std@@YA?AV?$basic_string@DU?$char_traits@D@std@@V?$allocator@D@2@@0@AEBV10@QEBD@Z
    6C7D4 ??$?HDU?$char_traits@D@std@@V?$allocator@D@1@@std@@YA?AV?$basic_string@DU?$char_traits@D@std@@V?$allocator@D@2@@0@QEBDAEBV10@@Z
    6C7D4 ??$?MDU?$char_traits@D@std@@V?$allocator@D@1@@std@@YA_NAEBV?$basic_string@DU?$char_traits@D@std@@V?$allocator@D@2@@0@0@Z
    6C7D4 ??$_Advance1@PEAI_J@std@@YAXAEAPEAI_JUrandom_access_iterator_tag@0@@Z
    6C7D4 ??$_Advance1@PEAU_Grp_t@?$_Tgt_state_t@PEBD@std@@_J@std@@YAXAEAPEAU_Grp_t@?$_Tgt_state_t@PEBD@0@_JUrandom_access_iterator_tag@0@@Z
    6C7D4 ??$_Advance1@PEBD_J@std@@YAXAEAPEBD_JUrandom_access_iterator_tag@0@@Z
    6C7D4 ??$_Assign_range@PEAI@?$vector@IV?$allocator@I@std@@@std@@AEAAXPEAI0Uforward_iterator_tag@1@@Z
    6C7D4 ??$_Assign_range@PEAU_Grp_t@?$_Tgt_state_t@PEBD@std@@@?$vector@U_Grp_t@?$_Tgt_state_t@PEBD@std@@V?$allocator@U_Grp_t@?$_Tgt_state_t@PEBD@std@@@3@@std@@AEAAXPEAU_Grp_t@?$_Tgt_state_t@PEBD@1@0Uforward_iterator_tag@1@@Z
    6C7D4 ??$_Buynode@AEBU?$pair@$$CBV?$basic_string@DU?$char_traits@D@std@@V?$allocator@D@2@@std@@V12@@std@@@?$_Tree_comp_alloc@V?$_Tmap_traits@V?$basic_string@DU?$char_traits@D@std@@V?$allocator@D@2@@std@@V12@U?$less@V?$basic_string@DU?$char_traits@D@std@@V?$allocator@D@2@@std@@@2@V?$allocator@U?$pair@$$CBV?$basic_string@DU?$char_traits@D@std@@V?$allocator@D@2@@std@@V12@@std@@@2@$0A@@std@@@std@@QEAAPEAU?$_Tree_node@U?$pair@$$CBV?$basic_string@DU?$char_traits@D@std@@V?$allocator@D@2@@std@@V12@@std@@PEAX@1@AEBU?$pair@$$CBV?$basic_string@DU?$char_traits@D@std@@V?$allocator@D@2@@std@@V12@@1@@Z
    6C7D4 ??$_Buynode_if_nil@AEAU?$pair@$$CBV?$basic_string@DU?$char_traits@D@std@@V?$allocator@D@2@@std@@V12@@std@@@?$_Tree@V?$_Tmap_traits@V?$basic_string@DU?$char_traits@D@std@@V?$allocator@D@2@@std@@V12@U?$less@V?$basic_string@DU?$char_traits@D@std@@V?$allocator@D@2@@std@@@2@V?$allocator@U?$pair@$$CBV?$basic_string@DU?$char_traits@D@std@@V?$allocator@D@2@@std@@V12@@std@@@2@$0A@@std@@@std@@IEAAPEAU?$_Tree_node@U?$pair@$$CBV?$basic_string@DU?$char_traits@D@std@@V?$allocator@D@2@@std@@V12@@std@@PEAX@1@PEAU21@AEAU?$pair@$$CBV?$basic_string@DU?$char_traits@D@std@@V?$allocator@D@2@@std@@V12@@1@@Z
    6C7D4 ??$_Cmp_chrange@PEBDPEBDU?$_Cmp_collate@V?$regex_traits@D@std@@@std@@@std@@YAPEBDPEBD000U?$_Cmp_collate@V?$regex_traits@D@std@@@0@@Z
    6C7D4 ??$_Cmp_chrange@PEBDPEBDU?$_Cmp_cs@V?$regex_traits@D@std@@@std@@@std@@YAPEBDPEBD000U?$_Cmp_cs@V?$regex_traits@D@std@@@0@@Z
    6C7D4 ??$_Cmp_chrange@PEBDPEBDU?$_Cmp_icase@V?$regex_traits@D@std@@@std@@@std@@YAPEBDPEBD000U?$_Cmp_icase@V?$regex_traits@D@std@@@0@@Z
    6C7D4 ??$_Compare@PEBDPEBDV?$regex_traits@D@std@@@std@@YAPEBDPEBD000AEBV?$regex_traits@D@0@W4syntax_option_type@regex_constants@0@@Z
    6C7D4 ??$_Const_cast@$$CBD@std@@YA@PEBD@Z
    6C7D4 ??$_Convert_size@_K@std@@YA_K_K@Z
    6C7D4 ??$_Copy_backward_unchecked@V?$_Vb_iterator@U?$_Wrap_alloc@V?$allocator@I@std@@@std@@@std@@V12@@std@@YA?AV?$_Vb_iterator@U?$_Wrap_alloc@V?$allocator@I@std@@@std@@@0@V10@00U_General_ptr_iterator_tag@0@@Z
    6C7D4 ??$_Copy_memmove@PEADPEAD@std@@YAPEADPEAD00@Z
    6C7D4 ??$_Copy_memmove@PEAIPEAI@std@@YAPEAIPEAI00@Z
    6C7D4 ??$_Copy_memmove@PEAU_Grp_t@?$_Tgt_state_t@PEBD@std@@PEAU123@@std@@YAPEAU_Grp_t@?$_Tgt_state_t@PEBD@0@PEAU120@00@Z
    6C7D4 ??$_Copy_memmove@PEAU_Loop_vals_t@std@@PEAU12@@std@@YAPEAU_Loop_vals_t@0@PEAU10@00@Z
    6C7D4 ??$_Copy_memmove@PEBDPEAD@std@@YAPEADPEBD0PEAD@Z
    6C7D4 ??$_Copy_no_deprecate@V?$_Vb_iterator@U?$_Wrap_alloc@V?$allocator@I@std@@@std@@@std@@V12@@std@@YA?AV?$_Vb_iterator@U?$_Wrap_alloc@V?$allocator@I@std@@@std@@@0@V10@00@Z
    6C7D4 ??$_Copy_unchecked1@PEAIPEAI@std@@YAPEAIPEAI00U_Trivially_copyable_ptr_iterator_tag@0@@Z
    6C7D4 ??$_Copy_unchecked1@PEAU_Grp_t@?$_Tgt_state_t@PEBD@std@@PEAU123@@std@@YAPEAU_Grp_t@?$_Tgt_state_t@PEBD@0@PEAU120@00U_Trivially_copyable_ptr_iterator_tag@0@@Z
    6C7D4 ??$_Copy_unchecked1@V?$_Vb_iterator@U?$_Wrap_alloc@V?$allocator@I@std@@@std@@@std@@V12@@std@@YA?AV?$_Vb_iterator@U?$_Wrap_alloc@V?$allocator@I@std@@@std@@@0@V10@00U_General_ptr_iterator_tag@0@@Z
    6C7D4 ??$_Copy_unchecked@PEAIPEAI@std@@YAPEAIPEAI00@Z
    6C7D4 ??$_Copy_unchecked@PEAU_Grp_t@?$_Tgt_state_t@PEBD@std@@PEAU123@@std@@YAPEAU_Grp_t@?$_Tgt_state_t@PEBD@0@PEAU120@00@Z
    6C7D4 ??$_Copy_unchecked@V?$_Vb_iterator@U?$_Wrap_alloc@V?$allocator@I@std@@@std@@@std@@V12@@std@@YA?AV?$_Vb_iterator@U?$_Wrap_alloc@V?$allocator@I@std@@@std@@@0@V10@00@Z
    6C7D4 ??$_Deallocate_plain@V?$allocator@U_Container_proxy@std@@@std@@$0A@@std@@YAXAEAV?$allocator@U_Container_proxy@std@@@0@QEAU_Container_proxy@0@@Z
    6C7D4 ??$_Debug_lt_pred@AEAU?$less@V?$basic_string@DU?$char_traits@D@std@@V?$allocator@D@2@@std@@@std@@AEBV?$basic_string@DU?$char_traits@D@std@@V?$allocator@D@2@@2@AEBV32@@std@@YA_NAEAU?$less@V?$basic_string@DU?$char_traits@D@std@@V?$allocator@D@2@@std@@@0@AEBV?$basic_string@DU?$char_traits@D@std@@V?$allocator@D@2@@0@1PEB_WI@Z
    6C7D4 ??$_Debug_range2@PEAD@std@@YAXPEAD0PEB_WIUrandom_access_iterator_tag@0@@Z
    6C7D4 ??$_Debug_range2@PEAI@std@@YAXPEAI0PEB_WIUrandom_access_iterator_tag@0@@Z
    6C7D4 ??$_Debug_range2@PEAU_Grp_t@?$_Tgt_state_t@PEBD@std@@@std@@YAXPEAU_Grp_t@?$_Tgt_state_t@PEBD@0@0PEB_WIUrandom_access_iterator_tag@0@@Z
    6C7D4 ??$_Debug_range2@PEBD@std@@YAXPEBD0PEB_WIUrandom_access_iterator_tag@0@@Z
    6C7D4 ??$_Debug_range2@PEBU?$pair@$$CBV?$basic_string@DU?$char_traits@D@std@@V?$allocator@D@2@@std@@V12@@std@@@std@@YAXPEBU?$pair@$$CBV?$basic_string@DU?$char_traits@D@std@@V?$allocator@D@2@@std@@V12@@0@0PEB_WIUrandom_access_iterator_tag@0@@Z
    6C7D4 ??$_Debug_range2@V?$_String_const_iterator@V?$_String_val@U?$_Simple_types@D@std@@@std@@@std@@@std@@YAXV?$_String_const_iterator@V?$_String_val@U?$_Simple_types@D@std@@@std@@@0@0PEB_WIUrandom_access_iterator_tag@0@@Z
    6C7D4 ??$_Debug_range2@V?$_String_iterator@V?$_String_val@U?$_Simple_types@D@std@@@std@@@std@@@std@@YAXV?$_String_iterator@V?$_String_val@U?$_Simple_types@D@std@@@std@@@0@0PEB_WIUrandom_access_iterator_tag@0@@Z
    6C7D4 ??$_Debug_range2@V?$_Vb_iterator@U?$_Wrap_alloc@V?$allocator@I@std@@@std@@@std@@@std@@YAXV?$_Vb_iterator@U?$_Wrap_alloc@V?$allocator@I@std@@@std@@@0@0PEB_WIUrandom_access_iterator_tag@0@@Z
    6C7D4 ??$_Debug_range2@V?$_Vector_iterator@V?$_Vector_val@U?$_Simple_types@V?$basic_string@DU?$char_traits@D@std@@V?$allocator@D@2@@std@@@std@@@std@@@std@@@std@@YAXV?$_Vector_iterator@V?$_Vector_val@U?$_Simple_types@V?$basic_string@DU?$char_traits@D@std@@V?$allocator@D@2@@std@@@std@@@std@@@0@0PEB_WIUrandom_access_iterator_tag@0@@Z
    6C7D4 ??$_Debug_range@PEAD@std@@YAXPEAD0PEB_WI@Z
    6C7D4 ??$_Debug_range@PEAI@std@@YAXPEAI0PEB_WI@Z
    6C7D4 ??$_Debug_range@PEAU_Grp_t@?$_Tgt_state_t@PEBD@std@@@std@@YAXPEAU_Grp_t@?$_Tgt_state_t@PEBD@0@0PEB_WI@Z
    6C7D4 ??$_Debug_range@PEBD@std@@YAXPEBD0PEB_WI@Z
    6C7D4 ??$_Debug_range@PEBU?$pair@$$CBV?$basic_string@DU?$char_traits@D@std@@V?$allocator@D@2@@std@@V12@@std@@@std@@YAXPEBU?$pair@$$CBV?$basic_string@DU?$char_traits@D@std@@V?$allocator@D@2@@std@@V12@@0@0PEB_WI@Z
    6C7D4 ??$_Debug_range@V?$_String_const_iterator@V?$_String_val@U?$_Simple_types@D@std@@@std@@@std@@@std@@YAXV?$_String_const_iterator@V?$_String_val@U?$_Simple_types@D@std@@@std@@@0@0PEB_WI@Z
    6C7D4 ??$_Debug_range@V?$_String_iterator@V?$_String_val@U?$_Simple_types@D@std@@@std@@@std@@@std@@YAXV?$_String_iterator@V?$_String_val@U?$_Simple_types@D@std@@@std@@@0@0PEB_WI@Z
    6C7D4 ??$_Debug_range@V?$_Vb_iterator@U?$_Wrap_alloc@V?$allocator@I@std@@@std@@@std@@@std@@YAXV?$_Vb_iterator@U?$_Wrap_alloc@V?$allocator@I@std@@@std@@@0@0PEB_WI@Z
    6C7D4 ??$_Debug_range@V?$_Vector_iterator@V?$_Vector_val@U?$_Simple_types@V?$basic_string@DU?$char_traits@D@std@@V?$allocator@D@2@@std@@@std@@@std@@@std@@@std@@YAXV?$_Vector_iterator@V?$_Vector_val@U?$_Simple_types@V?$basic_string@DU?$char_traits@D@std@@V?$allocator@D@2@@std@@@std@@@std@@@0@0PEB_WI@Z
    6C7D4 ??$_Destroy_range1@V?$allocator@D@std@@@std@@YAXPEAD0AEAV?$allocator@D@0@U?$integral_constant@_N$00@0@@Z
    6C7D4 ??$_Destroy_range1@V?$allocator@I@std@@@std@@YAXPEAI0AEAV?$allocator@I@0@U?$integral_constant@_N$00@0@@Z
    6C7D4 ??$_Destroy_range1@V?$allocator@U_Grp_t@?$_Tgt_state_t@PEBD@std@@@std@@@std@@YAXPEAU_Grp_t@?$_Tgt_state_t@PEBD@0@0AEAV?$allocator@U_Grp_t@?$_Tgt_state_t@PEBD@std@@@0@U?$integral_constant@_N$00@0@@Z
    6C7D4 ??$_Destroy_range1@V?$allocator@U_Loop_vals_t@std@@@std@@@std@@YAXPEAU_Loop_vals_t@0@0AEAV?$allocator@U_Loop_vals_t@std@@@0@U?$integral_constant@_N$00@0@@Z
    6C7D4 ??$_Destroy_range1@V?$allocator@V?$basic_string@DU?$char_traits@D@std@@V?$allocator@D@2@@std@@@std@@@std@@YAXPEAV?$basic_string@DU?$char_traits@D@std@@V?$allocator@D@2@@0@0AEAV?$allocator@V?$basic_string@DU?$char_traits@D@std@@V?$allocator@D@2@@std@@@0@U?$integral_constant@_N$0A@@0@@Z
    6C7D4 ??$_Destroy_range1@V?$allocator@V?$sub_match@PEBD@std@@@std@@@std@@YAXPEAV?$sub_match@PEBD@0@0AEAV?$allocator@V?$sub_match@PEBD@std@@@0@U?$integral_constant@_N$00@0@@Z
    6C7D4 ??$_Destroy_range@V?$allocator@D@std@@@std@@YAXPEAD0AEAV?$allocator@D@0@@Z
    6C7D4 ??$_Destroy_range@V?$allocator@I@std@@@std@@YAXPEAI0AEAV?$allocator@I@0@@Z
    6C7D4 ??$_Destroy_range@V?$allocator@U_Grp_t@?$_Tgt_state_t@PEBD@std@@@std@@@std@@YAXPEAU_Grp_t@?$_Tgt_state_t@PEBD@0@0AEAV?$allocator@U_Grp_t@?$_Tgt_state_t@PEBD@std@@@0@@Z
    6C7D4 ??$_Destroy_range@V?$allocator@U_Loop_vals_t@std@@@std@@@std@@YAXPEAU_Loop_vals_t@0@0AEAV?$allocator@U_Loop_vals_t@std@@@0@@Z
    6C7D4 ??$_Destroy_range@V?$allocator@V?$basic_string@DU?$char_traits@D@std@@V?$allocator@D@2@@std@@@std@@@std@@YAXPEAV?$basic_string@DU?$char_traits@D@std@@V?$allocator@D@2@@0@0AEAV?$allocator@V?$basic_string@DU?$char_traits@D@std@@V?$allocator@D@2@@std@@@0@@Z
    6C7D4 ??$_Destroy_range@V?$allocator@V?$sub_match@PEBD@std@@@std@@@std@@YAXPEAV?$sub_match@PEBD@0@0AEAV?$allocator@V?$sub_match@PEBD@std@@@0@@Z
    6C7D4 ??$_Distance1@PEAD@std@@YA_JPEAD0Urandom_access_iterator_tag@0@@Z
    6C7D4 ??$_Distance1@PEAI@std@@YA_JPEAI0Urandom_access_iterator_tag@0@@Z
    6C7D4 ??$_Distance1@PEAU_Grp_t@?$_Tgt_state_t@PEBD@std@@@std@@YA_JPEAU_Grp_t@?$_Tgt_state_t@PEBD@0@0Urandom_access_iterator_tag@0@@Z
    6C7D4 ??$_Distance1@PEAV?$basic_string@DU?$char_traits@D@std@@V?$allocator@D@2@@std@@@std@@YA_JPEAV?$basic_string@DU?$char_traits@D@std@@V?$allocator@D@2@@0@0Urandom_access_iterator_tag@0@@Z
    6C7D4 ??$_Distance1@PEBD@std@@YA_JPEBD0Urandom_access_iterator_tag@0@@Z
    6C7D4 ??$_Emplace_back_with_unused_capacity@AEBV?$basic_string@DU?$char_traits@D@std@@V?$allocator@D@2@@std@@@?$vector@V?$basic_string@DU?$char_traits@D@std@@V?$allocator@D@2@@std@@V?$allocator@V?$basic_string@DU?$char_traits@D@std@@V?$allocator@D@2@@std@@@2@@std@@AEAAXAEBV?$basic_string@DU?$char_traits@D@std@@V?$allocator@D@2@@1@@Z
    6C7D4 ??$_Emplace_back_with_unused_capacity@V?$basic_string@DU?$char_traits@D@std@@V?$allocator@D@2@@std@@@?$vector@V?$basic_string@DU?$char_traits@D@std@@V?$allocator@D@2@@std@@V?$allocator@V?$basic_string@DU?$char_traits@D@std@@V?$allocator@D@2@@std@@@2@@std@@AEAAX$$QEAV?$basic_string@DU?$char_traits@D@std@@V?$allocator@D@2@@1@@Z
    6C7D4 ??$_Equal_memcmp_is_safe@$$CBD$$CBDU?$_Cmp_icase@V?$_Regex_traits@D@std@@@std@@@std@@YA?AU?$integral_constant@_N$0A@@0@AEBQEBD0AEBU?$_Cmp_icase@V?$_Regex_traits@D@std@@@0@@Z
    6C7D4 ??$_Equal_unchecked1@PEBDPEBDU?$_Cmp_icase@V?$_Regex_traits@D@std@@@std@@@std@@YA_NPEBD00AEAU?$_Cmp_icase@V?$_Regex_traits@D@std@@@0@U?$integral_constant@_N$0A@@0@@Z
    6C7D4 ??$_Equal_unchecked@PEBDPEBDU?$_Cmp_icase@V?$_Regex_traits@D@std@@@std@@@std@@YA_NPEBD000AEAU?$_Cmp_icase@V?$_Regex_traits@D@std@@@0@Urandom_access_iterator_tag@0@2@Z
    6C7D4 ??$_Equal_unchecked@PEBDPEBDU?$_Cmp_icase@V?$_Regex_traits@D@std@@@std@@@std@@YA_NPEBD00AEAU?$_Cmp_icase@V?$_Regex_traits@D@std@@@0@@Z
    6C7D4 ??$_Fgetc@D@std@@YA_NAEADPEAU_iobuf@@@Z
    6C7D4 ??$_Fill_memset_is_safe@V?$_Vb_iterator@U?$_Wrap_alloc@V?$allocator@I@std@@@std@@@std@@_N@std@@YA?AU?$integral_constant@_N$0A@@0@AEBV?$_Vb_iterator@U?$_Wrap_alloc@V?$allocator@I@std@@@std@@@0@AEB_N@Z
    6C7D4 ??$_Fill_unchecked1@V?$_Vb_iterator@U?$_Wrap_alloc@V?$allocator@I@std@@@std@@@std@@_N@std@@YAXV?$_Vb_iterator@U?$_Wrap_alloc@V?$allocator@I@std@@@std@@@0@0AEB_NU?$integral_constant@_N$0A@@0@@Z
    6C7D4 ??$_Fill_unchecked@V?$_Vb_iterator@U?$_Wrap_alloc@V?$allocator@I@std@@@std@@@std@@_N@std@@YAXV?$_Vb_iterator@U?$_Wrap_alloc@V?$allocator@I@std@@@std@@@0@0AEB_N@Z
    6C7D4 ??$_Find@E@_Bitmap@std@@QEBA_NE@Z
    6C7D4 ??$_Find_unchecked1@PEADD@std@@YAPEADPEAD0AEBDU?$integral_constant@_N$00@0@@Z
    6C7D4 ??$_Find_unchecked1@PEBDE@std@@YAPEBDPEBD0AEBEU?$integral_constant@_N$00@0@@Z
    6C7D4 ??$_Find_unchecked@PEADD@std@@YAPEADPEAD0AEBD@Z
    6C7D4 ??$_Find_unchecked@PEBDE@std@@YAPEBDPEBD0AEBE@Z
    6C7D4 ??$_Fputc@D@std@@YA_NDPEAU_iobuf@@@Z
    6C7D4 ??$_Get@D@_Cl_names@std@@QEBAPEBDXZ
    6C7D4 ??$_Hash_array_representation@D@std@@YA_KQEBD_K@Z
    6C7D4 ??$_Idl_distance1@V?$_String_iterator@V?$_String_val@U?$_Simple_types@D@std@@@std@@@std@@PEAD@std@@YA_JAEBQEAD0Urandom_access_iterator_tag@0@@Z
    6C7D4 ??$_Idl_distance1@V?$_Vb_iterator@U?$_Wrap_alloc@V?$allocator@I@std@@@std@@@std@@V12@@std@@YA_JAEBV?$_Vb_iterator@U?$_Wrap_alloc@V?$allocator@I@std@@@std@@@0@0Urandom_access_iterator_tag@0@@Z
    6C7D4 ??$_Idl_distance@V?$_String_iterator@V?$_String_val@U?$_Simple_types@D@std@@@std@@@std@@PEAD@std@@YA@AEBQEAD0@Z
    6C7D4 ??$_Idl_distance@V?$_Vb_iterator@U?$_Wrap_alloc@V?$allocator@I@std@@@std@@@std@@V12@@std@@YA@AEBV?$_Vb_iterator@U?$_Wrap_alloc@V?$allocator@I@std@@@std@@@0@0@Z
    6C7D4 ??$_Insert@PEBD@?$_Buf@D@std@@QEAAXPEBD0@Z
    6C7D4 ??$_Insert_at@AEAU?$pair@$$CBV?$basic_string@DU?$char_traits@D@std@@V?$allocator@D@2@@std@@V12@@std@@PEAU?$_Tree_node@U?$pair@$$CBV?$basic_string@DU?$char_traits@D@std@@V?$allocator@D@2@@std@@V12@@std@@PEAX@2@@?$_Tree@V?$_Tmap_traits@V?$basic_string@DU?$char_traits@D@std@@V?$allocator@D@2@@std@@V12@U?$less@V?$basic_string@DU?$char_traits@D@std@@V?$allocator@D@2@@std@@@2@V?$allocator@U?$pair@$$CBV?$basic_string@DU?$char_traits@D@std@@V?$allocator@D@2@@std@@V12@@std@@@2@$0A@@std@@@std@@IEAA?AV?$_Tree_iterator@V?$_Tree_val@U?$_Tree_simple_types@U?$pair@$$CBV?$basic_string@DU?$char_traits@D@std@@V?$allocator@D@2@@std@@V12@@std@@@std@@@std@@@1@_NPEAU?$_Tree_node@U?$pair@$$CBV?$basic_string@DU?$char_traits@D@std@@V?$allocator@D@2@@std@@V12@@std@@PEAX@1@AEAU?$pair@$$CBV?$basic_string@DU?$char_traits@D@std@@V?$allocator@D@2@@std@@V12@@1@1@Z
    6C7D4 ??$_Insert_hint@AEAU?$pair@$$CBV?$basic_string@DU?$char_traits@D@std@@V?$allocator@D@2@@std@@V12@@std@@PEAU?$_Tree_node@U?$pair@$$CBV?$basic_string@DU?$char_traits@D@std@@V?$allocator@D@2@@std@@V12@@std@@PEAX@2@@?$_Tree@V?$_Tmap_traits@V?$basic_string@DU?$char_traits@D@std@@V?$allocator@D@2@@std@@V12@U?$less@V?$basic_string@DU?$char_traits@D@std@@V?$allocator@D@2@@std@@@2@V?$allocator@U?$pair@$$CBV?$basic_string@DU?$char_traits@D@std@@V?$allocator@D@2@@std@@V12@@std@@@2@$0A@@std@@@std@@IEAA?AV?$_Tree_iterator@V?$_Tree_val@U?$_Tree_simple_types@U?$pair@$$CBV?$basic_string@DU?$char_traits@D@std@@V?$allocator@D@2@@std@@V12@@std@@@std@@@std@@@1@V?$_Tree_const_iterator@V?$_Tree_val@U?$_Tree_simple_types@U?$pair@$$CBV?$basic_string@DU?$char_traits@D@std@@V?$allocator@D@2@@std@@V12@@std@@@std@@@std@@@1@AEAU?$pair@$$CBV?$basic_string@DU?$char_traits@D@std@@V?$allocator@D@2@@std@@V12@@1@PEAU?$_Tree_node@U?$pair@$$CBV?$basic_string@DU?$char_traits@D@std@@V?$allocator@D@2@@std@@V12@@std@@PEAX@1@@Z
    6C7D4 ??$_Insert_nohint@AEAU?$pair@$$CBV?$basic_string@DU?$char_traits@D@std@@V?$allocator@D@2@@std@@V12@@std@@PEAU?$_Tree_node@U?$pair@$$CBV?$basic_string@DU?$char_traits@D@std@@V?$allocator@D@2@@std@@V12@@std@@PEAX@2@@?$_Tree@V?$_Tmap_traits@V?$basic_string@DU?$char_traits@D@std@@V?$allocator@D@2@@std@@V12@U?$less@V?$basic_string@DU?$char_traits@D@std@@V?$allocator@D@2@@std@@@2@V?$allocator@U?$pair@$$CBV?$basic_string@DU?$char_traits@D@std@@V?$allocator@D@2@@std@@V12@@std@@@2@$0A@@std@@@std@@IEAA?AU?$pair@V?$_Tree_iterator@V?$_Tree_val@U?$_Tree_simple_types@U?$pair@$$CBV?$basic_string@DU?$char_traits@D@std@@V?$allocator@D@2@@std@@V12@@std@@@std@@@std@@@std@@_N@1@_NAEAU?$pair@$$CBV?$basic_string@DU?$char_traits@D@std@@V?$allocator@D@2@@std@@V12@@1@PEAU?$_Tree_node@U?$pair@$$CBV?$basic_string@DU?$char_traits@D@std@@V?$allocator@D@2@@std@@V12@@std@@PEAX@1@@Z
    6C7D4 ??$_Insert_range@PEAV?$basic_string@DU?$char_traits@D@std@@V?$allocator@D@2@@std@@@?$vector@V?$basic_string@DU?$char_traits@D@std@@V?$allocator@D@2@@std@@V?$allocator@V?$basic_string@DU?$char_traits@D@std@@V?$allocator@D@2@@std@@@2@@std@@AEAAXV?$_Vector_const_iterator@V?$_Vector_val@U?$_Simple_types@V?$basic_string@DU?$char_traits@D@std@@V?$allocator@D@2@@std@@@std@@@std@@@1@PEAV?$basic_string@DU?$char_traits@D@std@@V?$allocator@D@2@@1@1Uforward_iterator_tag@1@@Z
    6C7D4 ??$_Insert_string@DU?$char_traits@D@std@@_K@std@@YAAEAV?$basic_ostream@DU?$char_traits@D@std@@@0@AEAV10@QEBD_K@Z
    6C7D4 ??$_Is_checked@V?$_String_iterator@V?$_String_val@U?$_Simple_types@D@std@@@std@@@std@@@std@@YA?AU?$integral_constant@_N$00@0@V?$_String_iterator@V?$_String_val@U?$_Simple_types@D@std@@@std@@@0@@Z
    6C7D4 ??$_Is_checked@V?$_Vb_iterator@U?$_Wrap_alloc@V?$allocator@I@std@@@std@@@std@@@std@@YA?AU?$integral_constant@_N$00@0@V?$_Vb_iterator@U?$_Wrap_alloc@V?$allocator@I@std@@@std@@@0@@Z
    6C7D4 ??$_Kfn@$$CBV?$basic_string@DU?$char_traits@D@std@@V?$allocator@D@2@@std@@V12@@?$_Tmap_traits@V?$basic_string@DU?$char_traits@D@std@@V?$allocator@D@2@@std@@V12@U?$less@V?$basic_string@DU?$char_traits@D@std@@V?$allocator@D@2@@std@@@2@V?$allocator@U?$pair@$$CBV?$basic_string@DU?$char_traits@D@std@@V?$allocator@D@2@@std@@V12@@std@@@2@$0A@@std@@SAAEBV?$basic_string@DU?$char_traits@D@std@@V?$allocator@D@2@@1@AEBU?$pair@$$CBV?$basic_string@DU?$char_traits@D@std@@V?$allocator@D@2@@std@@V12@@1@@Z
    6C7D4 ??$_LStrcoll@D@std@@YAHPEBD000PEBU_Collvec@@@Z
    6C7D4 ??$_LStrxfrm@D@std@@YA_KPEAD0PEBD1PEBU_Collvec@@@Z
    6C7D4 ??$_Lookup_coll@PEBDD@std@@YAPEBDPEBD0PEBU?$_Sequence@D@0@@Z
    6C7D4 ??$_Lookup_equiv@DV?$regex_traits@D@std@@@std@@YA_NEPEBU?$_Sequence@D@0@AEBV?$regex_traits@D@0@@Z
    6C7D4 ??$_Lookup_range@D@std@@YA_NIPEBU?$_Buf@D@0@@Z
    6C7D4 ??$_Mark@E@_Bitmap@std@@QEAAXE@Z
    6C7D4 ??$_Mark@I@_Bitmap@std@@QEAAXI@Z
    6C7D4 ??$_Match@V?$allocator@V?$sub_match@PEBD@std@@@std@@@?$_Matcher@PEBDDV?$regex_traits@D@std@@PEBD@std@@QEAA_NPEAV?$match_results@PEBDV?$allocator@V?$sub_match@PEBD@std@@@std@@@1@_N@Z
    6C7D4 ??$_Max_value@_K@std@@YAAEB_KAEB_K0@Z
    6C7D4 ??$_Min_value@_K@std@@YAAEB_KAEB_K0@Z
    6C7D4 ??$_Move_backward_unchecked1@PEAV?$basic_string@DU?$char_traits@D@std@@V?$allocator@D@2@@std@@PEAV12@@std@@YAPEAV?$basic_string@DU?$char_traits@D@std@@V?$allocator@D@2@@0@PEAV10@00U_General_ptr_iterator_tag@0@@Z
    6C7D4 ??$_Move_backward_unchecked@PEAV?$basic_string@DU?$char_traits@D@std@@V?$allocator@D@2@@std@@PEAV12@@std@@YAPEAV?$basic_string@DU?$char_traits@D@std@@V?$allocator@D@2@@0@PEAV10@00@Z
    6C7D4 ??$_Move_unchecked1@PEAIPEAI@std@@YAPEAIPEAI00U_Trivially_copyable_ptr_iterator_tag@0@@Z
    6C7D4 ??$_Move_unchecked1@PEAV?$basic_string@DU?$char_traits@D@std@@V?$allocator@D@2@@std@@PEAV12@@std@@YAPEAV?$basic_string@DU?$char_traits@D@std@@V?$allocator@D@2@@0@PEAV10@00U_General_ptr_iterator_tag@0@@Z
    6C7D4 ??$_Move_unchecked@PEAIPEAI@std@@YAPEAIPEAI00@Z
    6C7D4 ??$_Move_unchecked@PEAV?$basic_string@DU?$char_traits@D@std@@V?$allocator@D@2@@std@@PEAV12@@std@@YAPEAV?$basic_string@DU?$char_traits@D@std@@V?$allocator@D@2@@0@PEAV10@00@Z
    6C7D4 ??$_Pocca@V?$allocator@D@std@@@std@@YAXAEAV?$allocator@D@0@AEBV10@@Z
    6C7D4 ??$_Pocca@V?$allocator@D@std@@@std@@YAXAEAV?$allocator@D@0@AEBV10@U?$integral_constant@_N$0A@@0@@Z
    6C7D4 ??$_Pocca@V?$allocator@I@std@@@std@@YAXAEAV?$allocator@I@0@AEBV10@@Z
    6C7D4 ??$_Pocca@V?$allocator@I@std@@@std@@YAXAEAV?$allocator@I@0@AEBV10@U?$integral_constant@_N$0A@@0@@Z
    6C7D4 ??$_Pocca@V?$allocator@U_Grp_t@?$_Tgt_state_t@PEBD@std@@@std@@@std@@YAXAEAV?$allocator@U_Grp_t@?$_Tgt_state_t@PEBD@std@@@0@AEBV10@@Z
    6C7D4 ??$_Pocca@V?$allocator@U_Grp_t@?$_Tgt_state_t@PEBD@std@@@std@@@std@@YAXAEAV?$allocator@U_Grp_t@?$_Tgt_state_t@PEBD@std@@@0@AEBV10@U?$integral_constant@_N$0A@@0@@Z
    6C7D4 ??$_Pocma@V?$allocator@D@std@@@std@@YAXAEAV?$allocator@D@0@0@Z
    6C7D4 ??$_Pocma@V?$allocator@D@std@@@std@@YAXAEAV?$allocator@D@0@0U?$integral_constant@_N$00@0@@Z
    6C7D4 ??$_Ptr_copy_cat@$$CBDD@std@@YA?AU_Really_trivial_ptr_iterator_tag@0@AEBQEBDAEBQEAD@Z
    6C7D4 ??$_Ptr_copy_cat@DD@std@@YA?AU_Really_trivial_ptr_iterator_tag@0@AEBQEAD0@Z
    6C7D4 ??$_Ptr_copy_cat@II@std@@YA?AU_Really_trivial_ptr_iterator_tag@0@AEBQEAI0@Z
    6C7D4 ??$_Ptr_copy_cat@U_Grp_t@?$_Tgt_state_t@PEBD@std@@U123@@std@@YA?AU_Really_trivial_ptr_iterator_tag@0@AEBQEAU_Grp_t@?$_Tgt_state_t@PEBD@0@0@Z
    6C7D4 ??$_Ptr_copy_cat@V?$_Vb_iterator@U?$_Wrap_alloc@V?$allocator@I@std@@@std@@@std@@V12@@std@@YA?AU_General_ptr_iterator_tag@0@AEBV?$_Vb_iterator@U?$_Wrap_alloc@V?$allocator@I@std@@@std@@@0@0@Z
    6C7D4 ??$_Ptr_copy_cat@V?$basic_string@DU?$char_traits@D@std@@V?$allocator@D@2@@std@@V12@@std@@YA?AU_General_ptr_iterator_tag@0@AEBQEAV?$basic_string@DU?$char_traits@D@std@@V?$allocator@D@2@@0@0@Z
    6C7D4 ??$_Ptr_move_cat@II@std@@YA?AU_Really_trivial_ptr_iterator_tag@0@AEBQEAI0@Z
    6C7D4 ??$_Ptr_move_cat@U_Grp_t@?$_Tgt_state_t@PEBD@std@@U123@@std@@YA?AU_Really_trivial_ptr_iterator_tag@0@AEBQEAU_Grp_t@?$_Tgt_state_t@PEBD@0@0@Z
    6C7D4 ??$_Ptr_move_cat@U_Loop_vals_t@std@@U12@@std@@YA?AU_Really_trivial_ptr_iterator_tag@0@AEBQEAU_Loop_vals_t@0@0@Z
    6C7D4 ??$_Ptr_move_cat@V?$basic_string@DU?$char_traits@D@std@@V?$allocator@D@2@@std@@V12@@std@@YA?AU_General_ptr_iterator_tag@0@AEBQEAV?$basic_string@DU?$char_traits@D@std@@V?$allocator@D@2@@0@0@Z
    6C7D4 ??$_Ptr_move_cat@V?$sub_match@PEBD@std@@V12@@std@@YA?AU_General_ptr_iterator_tag@0@AEBQEAV?$sub_match@PEBD@0@0@Z
    6C7D4 ??$_Range_construct_or_tidy@PEAD@?$vector@DV?$allocator@D@std@@@std@@AEAAXPEAD0Uforward_iterator_tag@1@@Z
    6C7D4 ??$_Range_construct_or_tidy@PEBD@?$vector@DV?$allocator@D@std@@@std@@AEAAXPEBD0Uforward_iterator_tag@1@@Z
    6C7D4 ??$_Rechecked@PEADPEAD@std@@YAAEAPEADAEAPEADPEAD@Z
    6C7D4 ??$_Rechecked@PEAIPEAI@std@@YAAEAPEAIAEAPEAIPEAI@Z
    6C7D4 ??$_Rechecked@PEAU_Grp_t@?$_Tgt_state_t@PEBD@std@@PEAU123@@std@@YAAEAPEAU_Grp_t@?$_Tgt_state_t@PEBD@0@AEAPEAU120@PEAU120@@Z
    6C7D4 ??$_Rechecked@PEAU_Loop_vals_t@std@@PEAU12@@std@@YAAEAPEAU_Loop_vals_t@0@AEAPEAU10@PEAU10@@Z
    6C7D4 ??$_Rechecked@PEAV?$basic_string@DU?$char_traits@D@std@@V?$allocator@D@2@@std@@PEAV12@@std@@YAAEAPEAV?$basic_string@DU?$char_traits@D@std@@V?$allocator@D@2@@0@AEAPEAV10@PEAV10@@Z
    6C7D4 ??$_Rechecked@PEAV?$sub_match@PEBD@std@@PEAV12@@std@@YAAEAPEAV?$sub_match@PEBD@0@AEAPEAV10@PEAV10@@Z
    6C7D4 ??$_Rechecked@PEBDPEBD@std@@YAAEAPEBDAEAPEBDPEBD@Z
    6C7D4 ??$_Rechecked@V?$_String_val@U?$_Simple_types@D@std@@@std@@@std@@YAAEAV?$_String_iterator@V?$_String_val@U?$_Simple_types@D@std@@@std@@@0@AEAV10@QEAD@Z
    6C7D4 ??$_Rechecked@V?$_Vb_iterator@U?$_Wrap_alloc@V?$allocator@I@std@@@std@@@std@@V12@@std@@YAAEAV?$_Vb_iterator@U?$_Wrap_alloc@V?$allocator@I@std@@@std@@@0@AEAV10@V10@@Z
    6C7D4 ??$_Refancy@PEAD$0A@@std@@YAPEADPEAD@Z
    6C7D4 ??$_Refancy@PEBD$0A@@std@@YAPEBDPEBD@Z
    6C7D4 ??$_Regex_match1@PEBDV?$allocator@V?$sub_match@PEBD@std@@@std@@DV?$regex_traits@D@2@PEBD@std@@YA_NPEBD0PEAV?$match_results@PEBDV?$allocator@V?$sub_match@PEBD@std@@@std@@@0@AEBV?$basic_regex@DV?$regex_traits@D@std@@@0@W4match_flag_type@regex_constants@0@_N@Z
    6C7D4 ??$_Remove_unchecked@PEADD@std@@YAPEADPEAD0AEBD@Z
    6C7D4 ??$_Replace_range@PEBD@?$basic_string@DU?$char_traits@D@std@@V?$allocator@D@2@@std@@QEAAAEAV01@V?$_String_const_iterator@V?$_String_val@U?$_Simple_types@D@std@@@std@@@1@0QEBD1U?$integral_constant@_N$00@1@@Z
    6C7D4 ??$_Reset@PEBD@?$basic_regex@DV?$regex_traits@D@std@@@std@@AEAAXPEBD0W4syntax_option_type@regex_constants@1@Uforward_iterator_tag@1@@Z
    6C7D4 ??$_Swap_adl@PEAV_Node_base@std@@@std@@YAXAEAPEAV_Node_base@0@0@Z
    6C7D4 ??$_Traits_compare@U?$char_traits@D@std@@@std@@YAHQEBD_K01@Z
    6C7D4 ??$_Traits_equal@U?$char_traits@D@std@@@std@@YA_NQEBD_K01@Z
    6C7D4 ??$_Traits_find@U?$char_traits@D@std@@@std@@YA_KQEBD_K101@Z
    6C7D4 ??$_Traits_find_ch@U?$char_traits@D@std@@@std@@YA_KQEBD_K1D@Z
    6C7D4 ??$_Traits_find_first_not_of@U?$char_traits@D@std@@@std@@YA_KQEBD_K101@Z
    6C7D4 ??$_Traits_find_first_of@U?$char_traits@D@std@@@std@@YA_KQEBD_K101@Z
    6C7D4 ??$_Traits_find_last_not_of@U?$char_traits@D@std@@@std@@YA_KQEBD_K101@Z
    6C7D4 ??$_Transform_no_deprecate@V?$_String_iterator@V?$_String_val@U?$_Simple_types@D@std@@@std@@@std@@V12@P6AHH@Z@std@@YA?AV?$_String_iterator@V?$_String_val@U?$_Simple_types@D@std@@@std@@@0@V10@00AEAP6AHH@Z@Z
    6C7D4 ??$_Ucopy@PEAD@?$vector@DV?$allocator@D@std@@@std@@AEAAPEADPEAD00@Z
    6C7D4 ??$_Ucopy@PEAI@?$vector@IV?$allocator@I@std@@@std@@AEAAPEAIPEAI00@Z
    6C7D4 ??$_Ucopy@PEAU_Grp_t@?$_Tgt_state_t@PEBD@std@@@?$vector@U_Grp_t@?$_Tgt_state_t@PEBD@std@@V?$allocator@U_Grp_t@?$_Tgt_state_t@PEBD@std@@@3@@std@@AEAAPEAU_Grp_t@?$_Tgt_state_t@PEBD@1@PEAU231@00@Z
    6C7D4 ??$_Ucopy@PEAV?$basic_string@DU?$char_traits@D@std@@V?$allocator@D@2@@std@@@?$vector@V?$basic_string@DU?$char_traits@D@std@@V?$allocator@D@2@@std@@V?$allocator@V?$basic_string@DU?$char_traits@D@std@@V?$allocator@D@2@@std@@@2@@std@@AEAAPEAV?$basic_string@DU?$char_traits@D@std@@V?$allocator@D@2@@1@PEAV21@00@Z
    6C7D4 ??$_Ucopy@PEBD@?$vector@DV?$allocator@D@std@@@std@@AEAAPEADPEBD0PEAD@Z
    6C7D4 ??$_Unchecked@PEAD@std@@YAPEADPEAD@Z
    6C7D4 ??$_Unchecked@PEAI@std@@YAPEAIPEAI@Z
    6C7D4 ??$_Unchecked@PEAU_Grp_t@?$_Tgt_state_t@PEBD@std@@@std@@YAPEAU_Grp_t@?$_Tgt_state_t@PEBD@0@PEAU120@@Z
    6C7D4 ??$_Unchecked@PEAU_Loop_vals_t@std@@@std@@YAPEAU_Loop_vals_t@0@PEAU10@@Z
    6C7D4 ??$_Unchecked@PEAV?$basic_string@DU?$char_traits@D@std@@V?$allocator@D@2@@std@@@std@@YAPEAV?$basic_string@DU?$char_traits@D@std@@V?$allocator@D@2@@0@PEAV10@@Z
    6C7D4 ??$_Unchecked@PEAV?$sub_match@PEBD@std@@@std@@YAPEAV?$sub_match@PEBD@0@PEAV10@@Z
    6C7D4 ??$_Unchecked@PEBD@std@@YAPEBDPEBD@Z
    6C7D4 ??$_Unchecked@V?$_String_val@U?$_Simple_types@D@std@@@std@@@std@@YAPEADAEBV?$_String_iterator@V?$_String_val@U?$_Simple_types@D@std@@@std@@@0@@Z
    6C7D4 ??$_Unchecked@V?$_String_val@U?$_Simple_types@D@std@@@std@@@std@@YAPEBDAEBV?$_String_const_iterator@V?$_String_val@U?$_Simple_types@D@std@@@std@@@0@@Z
    6C7D4 ??$_Unchecked@V?$_Vb_iterator@U?$_Wrap_alloc@V?$allocator@I@std@@@std@@@std@@@std@@YA?AV?$_Vb_iterator@U?$_Wrap_alloc@V?$allocator@I@std@@@std@@@0@V10@@Z
    6C7D4 ??$_Unchecked@V?$_Vector_val@U?$_Simple_types@V?$basic_string@DU?$char_traits@D@std@@V?$allocator@D@2@@std@@@std@@@std@@@std@@YAPEAV?$basic_string@DU?$char_traits@D@std@@V?$allocator@D@2@@0@AEBV?$_Vector_iterator@V?$_Vector_val@U?$_Simple_types@V?$basic_string@DU?$char_traits@D@std@@V?$allocator@D@2@@std@@@std@@@std@@@0@@Z
    6C7D4 ??$_Unchecked_n1@V?$_String_iterator@V?$_String_val@U?$_Simple_types@D@std@@@std@@@std@@_J@std@@YA@V?$_String_iterator@V?$_String_val@U?$_Simple_types@D@std@@@std@@@0@_JU?$integral_constant@_N$00@0@@Z
    6C7D4 ??$_Unchecked_n1@V?$_Vb_iterator@U?$_Wrap_alloc@V?$allocator@I@std@@@std@@@std@@_J@std@@YA@V?$_Vb_iterator@U?$_Wrap_alloc@V?$allocator@I@std@@@std@@@0@_JU?$integral_constant@_N$00@0@@Z
    6C7D4 ??$_Unchecked_n@V?$_String_iterator@V?$_String_val@U?$_Simple_types@D@std@@@std@@@std@@_J@std@@YA@V?$_String_iterator@V?$_String_val@U?$_Simple_types@D@std@@@std@@@0@_J@Z
    6C7D4 ??$_Unchecked_n@V?$_Vb_iterator@U?$_Wrap_alloc@V?$allocator@I@std@@@std@@@std@@_J@std@@YA@V?$_Vb_iterator@U?$_Wrap_alloc@V?$allocator@I@std@@@std@@@0@_J@Z
    6C7D4 ??$_Unchecked_n_backward1@V?$_Vb_iterator@U?$_Wrap_alloc@V?$allocator@I@std@@@std@@@std@@_J@std@@YA@V?$_Vb_iterator@U?$_Wrap_alloc@V?$allocator@I@std@@@std@@@0@_JUrandom_access_iterator_tag@0@@Z
    6C7D4 ??$_Unchecked_n_backward@V?$_Vb_iterator@U?$_Wrap_alloc@V?$allocator@I@std@@@std@@@std@@_J@std@@YA@V?$_Vb_iterator@U?$_Wrap_alloc@V?$allocator@I@std@@@std@@@0@_J@Z
    6C7D4 ??$_Unfancy@$$CBD@std@@YAPEBDPEBD@Z
    6C7D4 ??$_Unfancy@D@std@@YAPEADPEAD@Z
    6C7D4 ??$_Unfancy@I@std@@YAPEAIPEAI@Z
    6C7D4 ??$_Unfancy@U_Container_proxy@std@@@std@@YAPEAU_Container_proxy@0@PEAU10@@Z
    6C7D4 ??$_Unfancy@U_Grp_t@?$_Tgt_state_t@PEBD@std@@@std@@YAPEAU_Grp_t@?$_Tgt_state_t@PEBD@0@PEAU120@@Z
    6C7D4 ??$_Unfancy@U_Loop_vals_t@std@@@std@@YAPEAU_Loop_vals_t@0@PEAU10@@Z
    6C7D4 ??$_Unfancy@V?$basic_string@DU?$char_traits@D@std@@V?$allocator@D@2@@std@@@std@@YAPEAV?$basic_string@DU?$char_traits@D@std@@V?$allocator@D@2@@0@PEAV10@@Z
    6C7D4 ??$_Unfancy@V?$sub_match@PEBD@std@@@std@@YAPEAV?$sub_match@PEBD@0@PEAV10@@Z
    6C7D4 ??$_Unfancy_maybe_null@D@std@@YAPEADPEAD@Z
    6C7D4 ??$_Unfancy_maybe_null@I@std@@YAPEAIPEAI@Z
    6C7D4 ??$_Ungetc@D@std@@YA_NAEBDPEAU_iobuf@@@Z
    6C7D4 ??$_Uninit_alloc_fill_n1@PEAI_KV?$allocator@I@std@@@std@@YAPEAIPEAI_KAEBIAEAV?$allocator@I@0@U?$integral_constant@_N$0A@@0@@Z
    6C7D4 ??$_Uninitialized_copy@PEADPEADV?$allocator@D@std@@@std@@YAPEADPEAD00AEAV?$allocator@D@0@@Z
    6C7D4 ??$_Uninitialized_copy@PEAIPEAIV?$allocator@I@std@@@std@@YAPEAIPEAI00AEAV?$allocator@I@0@@Z
    6C7D4 ??$_Uninitialized_copy@PEAU_Grp_t@?$_Tgt_state_t@PEBD@std@@PEAU123@V?$allocator@U_Grp_t@?$_Tgt_state_t@PEBD@std@@@3@@std@@YAPEAU_Grp_t@?$_Tgt_state_t@PEBD@0@PEAU120@00AEAV?$allocator@U_Grp_t@?$_Tgt_state_t@PEBD@std@@@0@@Z
    6C7D4 ??$_Uninitialized_copy@PEAV?$basic_string@DU?$char_traits@D@std@@V?$allocator@D@2@@std@@PEAV12@V?$allocator@V?$basic_string@DU?$char_traits@D@std@@V?$allocator@D@2@@std@@@2@@std@@YAPEAV?$basic_string@DU?$char_traits@D@std@@V?$allocator@D@2@@0@PEAV10@00AEAV?$allocator@V?$basic_string@DU?$char_traits@D@std@@V?$allocator@D@2@@std@@@0@@Z
    6C7D4 ??$_Uninitialized_copy@PEBDPEADV?$allocator@D@std@@@std@@YAPEADPEBD0PEADAEAV?$allocator@D@0@@Z
    6C7D4 ??$_Uninitialized_copy_al_unchecked@$$CBDDV?$allocator@D@std@@@std@@YAPEADPEBD0PEADAEAV?$allocator@D@0@U_Really_trivial_ptr_iterator_tag@0@U?$integral_constant@_N$00@0@@Z
    6C7D4 ??$_Uninitialized_copy_al_unchecked@DDV?$allocator@D@std@@@std@@YAPEADPEAD00AEAV?$allocator@D@0@U_Really_trivial_ptr_iterator_tag@0@U?$integral_constant@_N$00@0@@Z
    6C7D4 ??$_Uninitialized_copy_al_unchecked@IIV?$allocator@I@std@@@std@@YAPEAIPEAI00AEAV?$allocator@I@0@U_Really_trivial_ptr_iterator_tag@0@U?$integral_constant@_N$00@0@@Z
    6C7D4 ??$_Uninitialized_copy_al_unchecked@PEAV?$basic_string@DU?$char_traits@D@std@@V?$allocator@D@2@@std@@PEAV12@V?$allocator@V?$basic_string@DU?$char_traits@D@std@@V?$allocator@D@2@@std@@@2@@std@@YAPEAV?$basic_string@DU?$char_traits@D@std@@V?$allocator@D@2@@0@PEAV10@00AEAV?$allocator@V?$basic_string@DU?$char_traits@D@std@@V?$allocator@D@2@@std@@@0@U_General_ptr_iterator_tag@0@U_Unused_parameter@0@@Z
    6C7D4 ??$_Uninitialized_copy_al_unchecked@U_Grp_t@?$_Tgt_state_t@PEBD@std@@U123@V?$allocator@U_Grp_t@?$_Tgt_state_t@PEBD@std@@@3@@std@@YAPEAU_Grp_t@?$_Tgt_state_t@PEBD@0@PEAU120@00AEAV?$allocator@U_Grp_t@?$_Tgt_state_t@PEBD@std@@@0@U_Really_trivial_ptr_iterator_tag@0@U?$integral_constant@_N$00@0@@Z
    6C7D4 ??$_Uninitialized_fill_n@PEAI_KV?$allocator@I@std@@@std@@YAPEAIPEAI_KAEBIAEAV?$allocator@I@0@@Z
    6C7D4 ??$_Uninitialized_move@PEAIPEAIV?$allocator@I@std@@@std@@YAPEAIPEAI00AEAV?$allocator@I@0@@Z
    6C7D4 ??$_Uninitialized_move@PEAU_Grp_t@?$_Tgt_state_t@PEBD@std@@PEAU123@V?$allocator@U_Grp_t@?$_Tgt_state_t@PEBD@std@@@3@@std@@YAPEAU_Grp_t@?$_Tgt_state_t@PEBD@0@PEAU120@00AEAV?$allocator@U_Grp_t@?$_Tgt_state_t@PEBD@std@@@0@@Z
    6C7D4 ??$_Uninitialized_move@PEAU_Loop_vals_t@std@@PEAU12@V?$allocator@U_Loop_vals_t@std@@@2@@std@@YAPEAU_Loop_vals_t@0@PEAU10@00AEAV?$allocator@U_Loop_vals_t@std@@@0@@Z
    6C7D4 ??$_Uninitialized_move@PEAV?$basic_string@DU?$char_traits@D@std@@V?$allocator@D@2@@std@@PEAV12@V?$allocator@V?$basic_string@DU?$char_traits@D@std@@V?$allocator@D@2@@std@@@2@@std@@YAPEAV?$basic_string@DU?$char_traits@D@std@@V?$allocator@D@2@@0@PEAV10@00AEAV?$allocator@V?$basic_string@DU?$char_traits@D@std@@V?$allocator@D@2@@std@@@0@@Z
    6C7D4 ??$_Uninitialized_move@PEAV?$sub_match@PEBD@std@@PEAV12@V?$allocator@V?$sub_match@PEBD@std@@@2@@std@@YAPEAV?$sub_match@PEBD@0@PEAV10@00AEAV?$allocator@V?$sub_match@PEBD@std@@@0@@Z
    6C7D4 ??$_Uninitialized_move_al_unchecked@IIV?$allocator@I@std@@@std@@YAPEAIPEAI00AEAV?$allocator@I@0@U_Really_trivial_ptr_iterator_tag@0@U?$integral_constant@_N$00@0@@Z
    6C7D4 ??$_Uninitialized_move_al_unchecked@PEAV?$basic_string@DU?$char_traits@D@std@@V?$allocator@D@2@@std@@PEAV12@V?$allocator@V?$basic_string@DU?$char_traits@D@std@@V?$allocator@D@2@@std@@@2@@std@@YAPEAV?$basic_string@DU?$char_traits@D@std@@V?$allocator@D@2@@0@PEAV10@00AEAV?$allocator@V?$basic_string@DU?$char_traits@D@std@@V?$allocator@D@2@@std@@@0@U_General_ptr_iterator_tag@0@U_Unused_parameter@0@@Z
    6C7D4 ??$_Uninitialized_move_al_unchecked@PEAV?$sub_match@PEBD@std@@PEAV12@V?$allocator@V?$sub_match@PEBD@std@@@2@@std@@YAPEAV?$sub_match@PEBD@0@PEAV10@00AEAV?$allocator@V?$sub_match@PEBD@std@@@0@U_General_ptr_iterator_tag@0@U_Unused_parameter@0@@Z
    6C7D4 ??$_Uninitialized_move_al_unchecked@U_Grp_t@?$_Tgt_state_t@PEBD@std@@U123@V?$allocator@U_Grp_t@?$_Tgt_state_t@PEBD@std@@@3@@std@@YAPEAU_Grp_t@?$_Tgt_state_t@PEBD@0@PEAU120@00AEAV?$allocator@U_Grp_t@?$_Tgt_state_t@PEBD@std@@@0@U_Really_trivial_ptr_iterator_tag@0@U?$integral_constant@_N$00@0@@Z
    6C7D4 ??$_Uninitialized_move_al_unchecked@U_Loop_vals_t@std@@U12@V?$allocator@U_Loop_vals_t@std@@@2@@std@@YAPEAU_Loop_vals_t@0@PEAU10@00AEAV?$allocator@U_Loop_vals_t@std@@@0@U_Really_trivial_ptr_iterator_tag@0@U?$integral_constant@_N$00@0@@Z
    6C7D4 ??$_Uninitialized_value_construct_n1@PEAU_Grp_t@?$_Tgt_state_t@PEBD@std@@_KV?$allocator@U_Grp_t@?$_Tgt_state_t@PEBD@std@@@3@@std@@YAPEAU_Grp_t@?$_Tgt_state_t@PEBD@0@PEAU120@_KAEAV?$allocator@U_Grp_t@?$_Tgt_state_t@PEBD@std@@@0@U?$integral_constant@_N$0A@@0@@Z
    6C7D4 ??$_Uninitialized_value_construct_n1@PEAU_Loop_vals_t@std@@_KV?$allocator@U_Loop_vals_t@std@@@2@@std@@YAPEAU_Loop_vals_t@0@PEAU10@_KAEAV?$allocator@U_Loop_vals_t@std@@@0@U?$integral_constant@_N$0A@@0@@Z
    6C7D4 ??$_Uninitialized_value_construct_n1@PEAV?$sub_match@PEBD@std@@_KV?$allocator@V?$sub_match@PEBD@std@@@2@@std@@YAPEAV?$sub_match@PEBD@0@PEAV10@_KAEAV?$allocator@V?$sub_match@PEBD@std@@@0@U?$integral_constant@_N$0A@@0@@Z
    6C7D4 ??$_Uninitialized_value_construct_n@PEAU_Grp_t@?$_Tgt_state_t@PEBD@std@@_KV?$allocator@U_Grp_t@?$_Tgt_state_t@PEBD@std@@@3@@std@@YAPEAU_Grp_t@?$_Tgt_state_t@PEBD@0@PEAU120@_KAEAV?$allocator@U_Grp_t@?$_Tgt_state_t@PEBD@std@@@0@@Z
    6C7D4 ??$_Uninitialized_value_construct_n@PEAU_Loop_vals_t@std@@_KV?$allocator@U_Loop_vals_t@std@@@2@@std@@YAPEAU_Loop_vals_t@0@PEAU10@_KAEAV?$allocator@U_Loop_vals_t@std@@@0@@Z
    6C7D4 ??$_Uninitialized_value_construct_n@PEAV?$sub_match@PEBD@std@@_KV?$allocator@V?$sub_match@PEBD@std@@@2@@std@@YAPEAV?$sub_match@PEBD@0@PEAV10@_KAEAV?$allocator@V?$sub_match@PEBD@std@@@0@@Z
    6C7D4 ??$_Within_limits@D@std@@YA_NAEBDU?$integral_constant@_N$00@0@1U_Unused_parameter@0@@Z
    6C7D4 ??$_Within_limits@E@std@@YA_NAEBEU?$integral_constant@_N$00@0@U?$integral_constant@_N$0A@@0@2@Z
    6C7D4 ??$_Within_limits@PEADD@std@@YA_NPEADAEBD@Z
    6C7D4 ??$_Within_limits@PEBDE@std@@YA_NPEBDAEBE@Z
    6C7D4 ??$addressof@$$CBV?$_String_val@U?$_Simple_types@D@std@@@std@@@std@@YAPEBV?$_String_val@U?$_Simple_types@D@std@@@0@AEBV10@@Z
    6C7D4 ??$addressof@$$CBV?$basic_string@DU?$char_traits@D@std@@V?$allocator@D@2@@std@@@std@@YAPEBV?$basic_string@DU?$char_traits@D@std@@V?$allocator@D@2@@0@AEBV10@@Z
    6C7D4 ??$addressof@$$CBV?$vector@IV?$allocator@I@std@@@std@@@std@@YAPEBV?$vector@IV?$allocator@I@std@@@0@AEBV10@@Z
    6C7D4 ??$addressof@$$CBV?$vector@U_Grp_t@?$_Tgt_state_t@PEBD@std@@V?$allocator@U_Grp_t@?$_Tgt_state_t@PEBD@std@@@3@@std@@@std@@YAPEBV?$vector@U_Grp_t@?$_Tgt_state_t@PEBD@std@@V?$allocator@U_Grp_t@?$_Tgt_state_t@PEBD@std@@@3@@0@AEBV10@@Z
    6C7D4 ??$addressof@$$CBV?$vector@_NV?$allocator@_N@std@@@std@@@std@@YAPEBV?$vector@_NV?$allocator@_N@std@@@0@AEBV10@@Z
    6C7D4 ??$addressof@D@std@@YAPEADAEAD@Z
    6C7D4 ??$addressof@PEAD@std@@YAPEAPEADAEAPEAD@Z
    6C7D4 ??$addressof@PEAU?$_Tree_node@U?$pair@$$CBV?$basic_string@DU?$char_traits@D@std@@V?$allocator@D@2@@std@@V12@@std@@PEAX@std@@@std@@YAPEAPEAU?$_Tree_node@U?$pair@$$CBV?$basic_string@DU?$char_traits@D@std@@V?$allocator@D@2@@std@@V12@@std@@PEAX@0@AEAPEAU10@@Z
    6C7D4 ??$addressof@U?$pair@$$CBV?$basic_string@DU?$char_traits@D@std@@V?$allocator@D@2@@std@@V12@@std@@@std@@YAPEAU?$pair@$$CBV?$basic_string@DU?$char_traits@D@std@@V?$allocator@D@2@@std@@V12@@0@AEAU10@@Z
    6C7D4 ??$addressof@V?$_String_val@U?$_Simple_types@D@std@@@std@@@std@@YAPEAV?$_String_val@U?$_Simple_types@D@std@@@0@AEAV10@@Z
    6C7D4 ??$addressof@V?$_Tree_val@U?$_Tree_simple_types@U?$pair@$$CBV?$basic_string@DU?$char_traits@D@std@@V?$allocator@D@2@@std@@V12@@std@@@std@@@std@@@std@@YAPEAV?$_Tree_val@U?$_Tree_simple_types@U?$pair@$$CBV?$basic_string@DU?$char_traits@D@std@@V?$allocator@D@2@@std@@V12@@std@@@std@@@0@AEAV10@@Z
    6C7D4 ??$addressof@V?$_Vector_val@U?$_Simple_types@D@std@@@std@@@std@@YAPEAV?$_Vector_val@U?$_Simple_types@D@std@@@0@AEAV10@@Z
    6C7D4 ??$addressof@V?$_Vector_val@U?$_Simple_types@I@std@@@std@@@std@@YAPEAV?$_Vector_val@U?$_Simple_types@I@std@@@0@AEAV10@@Z
    6C7D4 ??$addressof@V?$_Vector_val@U?$_Simple_types@U_Grp_t@?$_Tgt_state_t@PEBD@std@@@std@@@std@@@std@@YAPEAV?$_Vector_val@U?$_Simple_types@U_Grp_t@?$_Tgt_state_t@PEBD@std@@@std@@@0@AEAV10@@Z
    6C7D4 ??$addressof@V?$_Vector_val@U?$_Simple_types@U_Loop_vals_t@std@@@std@@@std@@@std@@YAPEAV?$_Vector_val@U?$_Simple_types@U_Loop_vals_t@std@@@std@@@0@AEAV10@@Z
    6C7D4 ??$addressof@V?$_Vector_val@U?$_Simple_types@V?$basic_string@DU?$char_traits@D@std@@V?$allocator@D@2@@std@@@std@@@std@@@std@@YAPEAV?$_Vector_val@U?$_Simple_types@V?$basic_string@DU?$char_traits@D@std@@V?$allocator@D@2@@std@@@std@@@0@AEAV10@@Z
    6C7D4 ??$addressof@V?$basic_string@DU?$char_traits@D@std@@V?$allocator@D@2@@std@@@std@@YAPEAV?$basic_string@DU?$char_traits@D@std@@V?$allocator@D@2@@0@AEAV10@@Z
    6C7D4 ??$advance@PEAI_J@std@@YAXAEAPEAI_J@Z
    6C7D4 ??$advance@PEAU_Grp_t@?$_Tgt_state_t@PEBD@std@@_J@std@@YAXAEAPEAU_Grp_t@?$_Tgt_state_t@PEBD@0@_J@Z
    6C7D4 ??$advance@PEBD_J@std@@YAXAEAPEBD_J@Z
    6C7D4 ??$assign@PEAIX@?$vector@IV?$allocator@I@std@@@std@@QEAAXPEAI0@Z
    6C7D4 ??$assign@PEAU_Grp_t@?$_Tgt_state_t@PEBD@std@@X@?$vector@U_Grp_t@?$_Tgt_state_t@PEBD@std@@V?$allocator@U_Grp_t@?$_Tgt_state_t@PEBD@std@@@3@@std@@QEAAXPEAU_Grp_t@?$_Tgt_state_t@PEBD@1@0@Z
    6C7D4 ??$assign@PEBDX@?$basic_string@DU?$char_traits@D@std@@V?$allocator@D@2@@std@@QEAAAEAV01@QEBD0@Z
    6C7D4 ??$construct@IAEBI@?$_Default_allocator_traits@V?$allocator@I@std@@@std@@SAXAEAV?$allocator@I@1@QEAIAEBI@Z
    6C7D4 ??$construct@PEADAEBQEAD@?$_Default_allocator_traits@V?$allocator@D@std@@@std@@SAXAEAV?$allocator@D@1@QEAPEADAEBQEAD@Z
    6C7D4 ??$construct@PEAU?$_Tree_node@U?$pair@$$CBV?$basic_string@DU?$char_traits@D@std@@V?$allocator@D@2@@std@@V12@@std@@PEAX@std@@AEAPEAU12@@?$_Default_allocator_traits@V?$allocator@U?$_Tree_node@U?$pair@$$CBV?$basic_string@DU?$char_traits@D@std@@V?$allocator@D@2@@std@@V12@@std@@PEAX@std@@@std@@@std@@SAXAEAV?$allocator@U?$_Tree_node@U?$pair@$$CBV?$basic_string@DU?$char_traits@D@std@@V?$allocator@D@2@@std@@V12@@std@@PEAX@std@@@1@QEAPEAU?$_Tree_node@U?$pair@$$CBV?$basic_string@DU?$char_traits@D@std@@V?$allocator@D@2@@std@@V12@@std@@PEAX@1@AEAPEAU31@@Z
    6C7D4 ??$construct@U?$pair@$$CBV?$basic_string@DU?$char_traits@D@std@@V?$allocator@D@2@@std@@V12@@std@@AEBU12@@?$_Default_allocator_traits@V?$allocator@U?$_Tree_node@U?$pair@$$CBV?$basic_string@DU?$char_traits@D@std@@V?$allocator@D@2@@std@@V12@@std@@PEAX@std@@@std@@@std@@SAXAEAV?$allocator@U?$_Tree_node@U?$pair@$$CBV?$basic_string@DU?$char_traits@D@std@@V?$allocator@D@2@@std@@V12@@std@@PEAX@std@@@1@QEAU?$pair@$$CBV?$basic_string@DU?$char_traits@D@std@@V?$allocator@D@2@@std@@V12@@1@AEBU31@@Z
    6C7D4 ??$construct@U_Container_proxy@std@@U12@@?$_Default_allocator_traits@V?$allocator@U_Container_proxy@std@@@std@@@std@@SAXAEAV?$allocator@U_Container_proxy@std@@@1@QEAU_Container_proxy@1@$$QEAU31@@Z
    6C7D4 ??$construct@U_Grp_t@?$_Tgt_state_t@PEBD@std@@$$V@?$_Default_allocator_traits@V?$allocator@U_Grp_t@?$_Tgt_state_t@PEBD@std@@@std@@@std@@SAXAEAV?$allocator@U_Grp_t@?$_Tgt_state_t@PEBD@std@@@1@QEAU_Grp_t@?$_Tgt_state_t@PEBD@1@@Z
    6C7D4 ??$construct@U_Loop_vals_t@std@@$$V@?$_Default_allocator_traits@V?$allocator@U_Loop_vals_t@std@@@std@@@std@@SAXAEAV?$allocator@U_Loop_vals_t@std@@@1@QEAU_Loop_vals_t@1@@Z
    6C7D4 ??$construct@V?$basic_string@DU?$char_traits@D@std@@V?$allocator@D@2@@std@@AEAV12@@?$_Default_allocator_traits@V?$allocator@V?$basic_string@DU?$char_traits@D@std@@V?$allocator@D@2@@std@@@std@@@std@@SAXAEAV?$allocator@V?$basic_string@DU?$char_traits@D@std@@V?$allocator@D@2@@std@@@1@QEAV?$basic_string@DU?$char_traits@D@std@@V?$allocator@D@2@@1@AEAV31@@Z
    6C7D4 ??$construct@V?$basic_string@DU?$char_traits@D@std@@V?$allocator@D@2@@std@@AEBV12@@?$_Default_allocator_traits@V?$allocator@V?$basic_string@DU?$char_traits@D@std@@V?$allocator@D@2@@std@@@std@@@std@@SAXAEAV?$allocator@V?$basic_string@DU?$char_traits@D@std@@V?$allocator@D@2@@std@@@1@QEAV?$basic_string@DU?$char_traits@D@std@@V?$allocator@D@2@@1@AEBV31@@Z
    6C7D4 ??$construct@V?$basic_string@DU?$char_traits@D@std@@V?$allocator@D@2@@std@@V12@@?$_Default_allocator_traits@V?$allocator@V?$basic_string@DU?$char_traits@D@std@@V?$allocator@D@2@@std@@@std@@@std@@SAXAEAV?$allocator@V?$basic_string@DU?$char_traits@D@std@@V?$allocator@D@2@@std@@@1@QEAV?$basic_string@DU?$char_traits@D@std@@V?$allocator@D@2@@1@$$QEAV31@@Z
    6C7D4 ??$construct@V?$sub_match@PEBD@std@@$$V@?$_Default_allocator_traits@V?$allocator@V?$sub_match@PEBD@std@@@std@@@std@@SAXAEAV?$allocator@V?$sub_match@PEBD@std@@@1@QEAV?$sub_match@PEBD@1@@Z
    6C7D4 ??$construct@V?$sub_match@PEBD@std@@V12@@?$_Default_allocator_traits@V?$allocator@V?$sub_match@PEBD@std@@@std@@@std@@SAXAEAV?$allocator@V?$sub_match@PEBD@std@@@1@QEAV?$sub_match@PEBD@1@$$QEAV31@@Z
    6C7D4 ??$copy@V?$_Vb_iterator@U?$_Wrap_alloc@V?$allocator@I@std@@@std@@@std@@V12@@std@@YA?AV?$_Vb_iterator@U?$_Wrap_alloc@V?$allocator@I@std@@@std@@@0@V10@00@Z
    6C7D4 ??$copy_backward@V?$_Vb_iterator@U?$_Wrap_alloc@V?$allocator@I@std@@@std@@@std@@V12@@std@@YA?AV?$_Vb_iterator@U?$_Wrap_alloc@V?$allocator@I@std@@@std@@@0@V10@00@Z
    6C7D4 ??$destroy@PEAD@?$_Default_allocator_traits@V?$allocator@D@std@@@std@@SAXAEAV?$allocator@D@1@QEAPEAD@Z
    6C7D4 ??$destroy@PEAU?$_Tree_node@U?$pair@$$CBV?$basic_string@DU?$char_traits@D@std@@V?$allocator@D@2@@std@@V12@@std@@PEAX@std@@@?$_Default_allocator_traits@V?$allocator@U?$_Tree_node@U?$pair@$$CBV?$basic_string@DU?$char_traits@D@std@@V?$allocator@D@2@@std@@V12@@std@@PEAX@std@@@std@@@std@@SAXAEAV?$allocator@U?$_Tree_node@U?$pair@$$CBV?$basic_string@DU?$char_traits@D@std@@V?$allocator@D@2@@std@@V12@@std@@PEAX@std@@@1@QEAPEAU?$_Tree_node@U?$pair@$$CBV?$basic_string@DU?$char_traits@D@std@@V?$allocator@D@2@@std@@V12@@std@@PEAX@1@@Z
    6C7D4 ??$destroy@U?$pair@$$CBV?$basic_string@DU?$char_traits@D@std@@V?$allocator@D@2@@std@@V12@@std@@@?$_Default_allocator_traits@V?$allocator@U?$_Tree_node@U?$pair@$$CBV?$basic_string@DU?$char_traits@D@std@@V?$allocator@D@2@@std@@V12@@std@@PEAX@std@@@std@@@std@@SAXAEAV?$allocator@U?$_Tree_node@U?$pair@$$CBV?$basic_string@DU?$char_traits@D@std@@V?$allocator@D@2@@std@@V12@@std@@PEAX@std@@@1@QEAU?$pair@$$CBV?$basic_string@DU?$char_traits@D@std@@V?$allocator@D@2@@std@@V12@@1@@Z
    6C7D4 ??$destroy@U_Container_proxy@std@@@?$_Default_allocator_traits@V?$allocator@U_Container_proxy@std@@@std@@@std@@SAXAEAV?$allocator@U_Container_proxy@std@@@1@QEAU_Container_proxy@1@@Z
    6C7D4 ??$destroy@V?$basic_string@DU?$char_traits@D@std@@V?$allocator@D@2@@std@@@?$_Default_allocator_traits@V?$allocator@V?$basic_string@DU?$char_traits@D@std@@V?$allocator@D@2@@std@@@std@@@std@@SAXAEAV?$allocator@V?$basic_string@DU?$char_traits@D@std@@V?$allocator@D@2@@std@@@1@QEAV?$basic_string@DU?$char_traits@D@std@@V?$allocator@D@2@@1@@Z
    6C7D4 ??$distance@PEAD@std@@YA_JPEAD0@Z
    6C7D4 ??$distance@PEAI@std@@YA_JPEAI0@Z
    6C7D4 ??$distance@PEAU_Grp_t@?$_Tgt_state_t@PEBD@std@@@std@@YA_JPEAU_Grp_t@?$_Tgt_state_t@PEBD@0@0@Z
    6C7D4 ??$distance@PEAV?$basic_string@DU?$char_traits@D@std@@V?$allocator@D@2@@std@@@std@@YA_JPEAV?$basic_string@DU?$char_traits@D@std@@V?$allocator@D@2@@0@0@Z
    6C7D4 ??$distance@PEBD@std@@YA_JPEBD0@Z
    6C7D4 ??$emplace_back@AEBV?$basic_string@DU?$char_traits@D@std@@V?$allocator@D@2@@std@@@?$vector@V?$basic_string@DU?$char_traits@D@std@@V?$allocator@D@2@@std@@V?$allocator@V?$basic_string@DU?$char_traits@D@std@@V?$allocator@D@2@@std@@@2@@std@@QEAA@AEBV?$basic_string@DU?$char_traits@D@std@@V?$allocator@D@2@@1@@Z
    6C7D4 ??$emplace_back@V?$basic_string@DU?$char_traits@D@std@@V?$allocator@D@2@@std@@@?$vector@V?$basic_string@DU?$char_traits@D@std@@V?$allocator@D@2@@std@@V?$allocator@V?$basic_string@DU?$char_traits@D@std@@V?$allocator@D@2@@std@@@2@@std@@QEAA@$$QEAV?$basic_string@DU?$char_traits@D@std@@V?$allocator@D@2@@1@@Z
    6C7D4 ??$emplace_hint@AEBU?$pair@$$CBV?$basic_string@DU?$char_traits@D@std@@V?$allocator@D@2@@std@@V12@@std@@@?$_Tree@V?$_Tmap_traits@V?$basic_string@DU?$char_traits@D@std@@V?$allocator@D@2@@std@@V12@U?$less@V?$basic_string@DU?$char_traits@D@std@@V?$allocator@D@2@@std@@@2@V?$allocator@U?$pair@$$CBV?$basic_string@DU?$char_traits@D@std@@V?$allocator@D@2@@std@@V12@@std@@@2@$0A@@std@@@std@@QEAA?AV?$_Tree_iterator@V?$_Tree_val@U?$_Tree_simple_types@U?$pair@$$CBV?$basic_string@DU?$char_traits@D@std@@V?$allocator@D@2@@std@@V12@@std@@@std@@@std@@@1@V?$_Tree_const_iterator@V?$_Tree_val@U?$_Tree_simple_types@U?$pair@$$CBV?$basic_string@DU?$char_traits@D@std@@V?$allocator@D@2@@std@@V12@@std@@@std@@@std@@@1@AEBU?$pair@$$CBV?$basic_string@DU?$char_traits@D@std@@V?$allocator@D@2@@std@@V12@@1@@Z
    6C7D4 ??$endl@DU?$char_traits@D@std@@@std@@YAAEAV?$basic_ostream@DU?$char_traits@D@std@@@0@AEAV10@@Z
    6C7D4 ??$equal@PEBDPEBDU?$_Cmp_icase@V?$_Regex_traits@D@std@@@std@@@std@@YA_NPEBD000U?$_Cmp_icase@V?$_Regex_traits@D@std@@@0@@Z
    6C7D4 ??$fill@V?$_Vb_iterator@U?$_Wrap_alloc@V?$allocator@I@std@@@std@@@std@@_N@std@@YAXV?$_Vb_iterator@U?$_Wrap_alloc@V?$allocator@I@std@@@std@@@0@0AEB_N@Z
    6C7D4 ??$find@PEBDE@std@@YAPEBDPEBD0AEBE@Z
    6C7D4 ??$forward@AEAPEAU?$_Tree_node@U?$pair@$$CBV?$basic_string@DU?$char_traits@D@std@@V?$allocator@D@2@@std@@V12@@std@@PEAX@std@@@std@@YAAEAPEAU?$_Tree_node@U?$pair@$$CBV?$basic_string@DU?$char_traits@D@std@@V?$allocator@D@2@@std@@V12@@std@@PEAX@0@AEAPEAU10@@Z
    6C7D4 ??$forward@AEAU?$pair@$$CBV?$basic_string@DU?$char_traits@D@std@@V?$allocator@D@2@@std@@V12@@std@@@std@@YAAEAU?$pair@$$CBV?$basic_string@DU?$char_traits@D@std@@V?$allocator@D@2@@std@@V12@@0@AEAU10@@Z
    6C7D4 ??$forward@AEAV?$_Tree_iterator@V?$_Tree_val@U?$_Tree_simple_types@U?$pair@$$CBV?$basic_string@DU?$char_traits@D@std@@V?$allocator@D@2@@std@@V12@@std@@@std@@@std@@@std@@@std@@YAAEAV?$_Tree_iterator@V?$_Tree_val@U?$_Tree_simple_types@U?$pair@$$CBV?$basic_string@DU?$char_traits@D@std@@V?$allocator@D@2@@std@@V12@@std@@@std@@@std@@@0@AEAV10@@Z
    6C7D4 ??$forward@AEAV?$basic_string@DU?$char_traits@D@std@@V?$allocator@D@2@@std@@@std@@YAAEAV?$basic_string@DU?$char_traits@D@std@@V?$allocator@D@2@@0@AEAV10@@Z
    6C7D4 ??$forward@AEAY00$$CBD@std@@YAAEAY00$$CBDAEAY00$$CBD@Z
    6C7D4 ??$forward@AEAY05$$CBD@std@@YAAEAY05$$CBDAEAY05$$CBD@Z
    6C7D4 ??$forward@AEBI@std@@YAAEBIAEBI@Z
    6C7D4 ??$forward@AEBQEAD@std@@YAAEBQEADAEBQEAD@Z
    6C7D4 ??$forward@AEBU?$less@V?$basic_string@DU?$char_traits@D@std@@V?$allocator@D@2@@std@@@std@@@std@@YAAEBU?$less@V?$basic_string@DU?$char_traits@D@std@@V?$allocator@D@2@@std@@@0@AEBU10@@Z
    6C7D4 ??$forward@AEBU?$pair@$$CBV?$basic_string@DU?$char_traits@D@std@@V?$allocator@D@2@@std@@V12@@std@@@std@@YAAEBU?$pair@$$CBV?$basic_string@DU?$char_traits@D@std@@V?$allocator@D@2@@std@@V12@@0@AEBU10@@Z
    6C7D4 ??$forward@AEBV?$allocator@D@std@@@std@@YAAEBV?$allocator@D@0@AEBV10@@Z
    6C7D4 ??$forward@AEBV?$allocator@I@std@@@std@@YAAEBV?$allocator@I@0@AEBV10@@Z
    6C7D4 ??$forward@AEBV?$basic_string@DU?$char_traits@D@std@@V?$allocator@D@2@@std@@@std@@YAAEBV?$basic_string@DU?$char_traits@D@std@@V?$allocator@D@2@@0@AEBV10@@Z
    6C7D4 ??$forward@U_Container_proxy@std@@@std@@YA$$QEAU_Container_proxy@0@AEAU10@@Z
    6C7D4 ??$forward@U_Zero_then_variadic_args_t@std@@@std@@YA$$QEAU_Zero_then_variadic_args_t@0@AEAU10@@Z
    6C7D4 ??$forward@V?$_Tree_iterator@V?$_Tree_val@U?$_Tree_simple_types@U?$pair@$$CBV?$basic_string@DU?$char_traits@D@std@@V?$allocator@D@2@@std@@V12@@std@@@std@@@std@@@std@@@std@@YA$$QEAV?$_Tree_iterator@V?$_Tree_val@U?$_Tree_simple_types@U?$pair@$$CBV?$basic_string@DU?$char_traits@D@std@@V?$allocator@D@2@@std@@V12@@std@@@std@@@std@@@0@AEAV10@@Z
    6C7D4 ??$forward@V?$allocator@D@std@@@std@@YA$$QEAV?$allocator@D@0@AEAV10@@Z
    6C7D4 ??$forward@V?$allocator@I@std@@@std@@YA$$QEAV?$allocator@I@0@AEAV10@@Z
    6C7D4 ??$forward@V?$allocator@U_Grp_t@?$_Tgt_state_t@PEBD@std@@@std@@@std@@YA$$QEAV?$allocator@U_Grp_t@?$_Tgt_state_t@PEBD@std@@@0@AEAV10@@Z
    6C7D4 ??$forward@V?$allocator@V?$basic_string@DU?$char_traits@D@std@@V?$allocator@D@2@@std@@@std@@@std@@YA$$QEAV?$allocator@V?$basic_string@DU?$char_traits@D@std@@V?$allocator@D@2@@std@@@0@AEAV10@@Z
    6C7D4 ??$forward@V?$basic_string@DU?$char_traits@D@std@@V?$allocator@D@2@@std@@@std@@YA$$QEAV?$basic_string@DU?$char_traits@D@std@@V?$allocator@D@2@@0@AEAV10@@Z
    6C7D4 ??$forward@V?$sub_match@PEBD@std@@@std@@YA$$QEAV?$sub_match@PEBD@0@AEAV10@@Z
    6C7D4 ??$forward@_N@std@@YA$$QEA_NAEA_N@Z
    6C7D4 ??$getline@DU?$char_traits@D@std@@V?$allocator@D@2@@std@@YAAEAV?$basic_istream@DU?$char_traits@D@std@@@0@$$QEAV10@AEAV?$basic_string@DU?$char_traits@D@std@@V?$allocator@D@2@@0@D@Z
    6C7D4 ??$getline@DU?$char_traits@D@std@@V?$allocator@D@2@@std@@YAAEAV?$basic_istream@DU?$char_traits@D@std@@@0@AEAV10@AEAV?$basic_string@DU?$char_traits@D@std@@V?$allocator@D@2@@0@@Z
    6C7D4 ??$insert@PEBU?$pair@$$CBV?$basic_string@DU?$char_traits@D@std@@V?$allocator@D@2@@std@@V12@@std@@@?$_Tree@V?$_Tmap_traits@V?$basic_string@DU?$char_traits@D@std@@V?$allocator@D@2@@std@@V12@U?$less@V?$basic_string@DU?$char_traits@D@std@@V?$allocator@D@2@@std@@@2@V?$allocator@U?$pair@$$CBV?$basic_string@DU?$char_traits@D@std@@V?$allocator@D@2@@std@@V12@@std@@@2@$0A@@std@@@std@@QEAAXPEBU?$pair@$$CBV?$basic_string@DU?$char_traits@D@std@@V?$allocator@D@2@@std@@V12@@1@0@Z
    6C7D4 ??$insert@V?$_Vector_iterator@V?$_Vector_val@U?$_Simple_types@V?$basic_string@DU?$char_traits@D@std@@V?$allocator@D@2@@std@@@std@@@std@@@std@@X@?$vector@V?$basic_string@DU?$char_traits@D@std@@V?$allocator@D@2@@std@@V?$allocator@V?$basic_string@DU?$char_traits@D@std@@V?$allocator@D@2@@std@@@2@@std@@QEAA?AV?$_Vector_iterator@V?$_Vector_val@U?$_Simple_types@V?$basic_string@DU?$char_traits@D@std@@V?$allocator@D@2@@std@@@std@@@std@@@1@V?$_Vector_const_iterator@V?$_Vector_val@U?$_Simple_types@V?$basic_string@DU?$char_traits@D@std@@V?$allocator@D@2@@std@@@std@@@std@@@1@V21@1@Z
    6C7D4 ??$lookup_classname@PEBD@?$_Regex_traits@D@std@@QEBAFPEBD0_N@Z
    6C7D4 ??$move@AEAD@std@@YA$$QEADAEAD@Z
    6C7D4 ??$move@AEAPEAV_Node_base@std@@@std@@YA$$QEAPEAV_Node_base@0@AEAPEAV10@@Z
    6C7D4 ??$move@AEAV?$allocator@D@std@@@std@@YA$$QEAV?$allocator@D@0@AEAV10@@Z
    6C7D4 ??$move@AEAV?$allocator@V?$basic_string@DU?$char_traits@D@std@@V?$allocator@D@2@@std@@@std@@@std@@YA$$QEAV?$allocator@V?$basic_string@DU?$char_traits@D@std@@V?$allocator@D@2@@std@@@0@AEAV10@@Z
    6C7D4 ??$move@AEAV?$basic_istream@DU?$char_traits@D@std@@@std@@@std@@YA$$QEAV?$basic_istream@DU?$char_traits@D@std@@@0@AEAV10@@Z
    6C7D4 ??$move@AEAV?$basic_string@DU?$char_traits@D@std@@V?$allocator@D@2@@std@@@std@@YA$$QEAV?$basic_string@DU?$char_traits@D@std@@V?$allocator@D@2@@0@AEAV10@@Z
    6C7D4 ??$move@AEAV?$sub_match@PEBD@std@@@std@@YA$$QEAV?$sub_match@PEBD@0@AEAV10@@Z
    6C7D4 ??$move@AEAV?$vector@V?$basic_string@DU?$char_traits@D@std@@V?$allocator@D@2@@std@@V?$allocator@V?$basic_string@DU?$char_traits@D@std@@V?$allocator@D@2@@std@@@2@@std@@@std@@YA$$QEAV?$vector@V?$basic_string@DU?$char_traits@D@std@@V?$allocator@D@2@@std@@V?$allocator@V?$basic_string@DU?$char_traits@D@std@@V?$allocator@D@2@@std@@@2@@0@AEAV10@@Z
    6C7D4 ??$next@PEAI@std@@YAPEAIPEAI_J@Z
    6C7D4 ??$next@PEAU_Grp_t@?$_Tgt_state_t@PEBD@std@@@std@@YAPEAU_Grp_t@?$_Tgt_state_t@PEBD@0@PEAU120@_J@Z
    6C7D4 ??$prev@PEBD@std@@YAPEBDPEBD_J@Z
    6C7D4 ??$put_time@D@std@@YA?AU?$_Timeobj@DPEBUtm@@@0@PEBUtm@@PEBD@Z
    6C7D4 ??$regex_match@U?$char_traits@D@std@@V?$allocator@D@2@DV?$regex_traits@D@2@@std@@YA_NAEBV?$basic_string@DU?$char_traits@D@std@@V?$allocator@D@2@@0@AEBV?$basic_regex@DV?$regex_traits@D@std@@@0@W4match_flag_type@regex_constants@0@@Z
    6C7D4 ??$remove@V?$_String_iterator@V?$_String_val@U?$_Simple_types@D@std@@@std@@@std@@D@std@@YA?AV?$_String_iterator@V?$_String_val@U?$_Simple_types@D@std@@@std@@@0@V10@0AEBD@Z
    6C7D4 ??$replace@PEBDX@?$basic_string@DU?$char_traits@D@std@@V?$allocator@D@2@@std@@QEAAAEAV01@V?$_String_const_iterator@V?$_String_val@U?$_Simple_types@D@std@@@std@@@1@0QEBD1@Z
    6C7D4 ??$swap@DX@std@@YAXAEAD0@Z
    6C7D4 ??$swap@PEAV_Node_base@std@@X@std@@YAXAEAPEAV_Node_base@0@0@Z
    6C7D4 ??$transform@V?$_String_iterator@V?$_String_val@U?$_Simple_types@D@std@@@std@@@std@@V12@P6AHH@Z@std@@YA?AV?$_String_iterator@V?$_String_val@U?$_Simple_types@D@std@@@std@@@0@V10@00P6AHH@Z@Z
    6C7D4 ??$transform_primary@PEAD@?$_Regex_traits@D@std@@QEBA?AV?$basic_string@DU?$char_traits@D@std@@V?$allocator@D@2@@1@PEAD0@Z
    6C7D4 ??$transform_primary@PEBD@?$_Regex_traits@D@std@@QEBA?AV?$basic_string@DU?$char_traits@D@std@@V?$allocator@D@2@@1@PEBD0@Z
    6C7D4 ??$transform_primary@V?$_String_iterator@V?$_String_val@U?$_Simple_types@D@std@@@std@@@std@@@?$_Regex_traits@D@std@@QEBA?AV?$basic_string@DU?$char_traits@D@std@@V?$allocator@D@2@@1@V?$_String_iterator@V?$_String_val@U?$_Simple_types@D@std@@@std@@@1@0@Z
    6C7D4 ??$use_facet@V?$codecvt@DDU_Mbstatet@@@std@@@std@@YAAEBV?$codecvt@DDU_Mbstatet@@@0@AEBVlocale@0@@Z
    6C7D4 ??$use_facet@V?$collate@D@std@@@std@@YAAEBV?$collate@D@0@AEBVlocale@0@@Z
    6C7D4 ??$use_facet@V?$ctype@D@std@@@std@@YAAEBV?$ctype@D@0@AEBVlocale@0@@Z
    6C7D4 ??$use_facet@V?$time_put@DV?$ostreambuf_iterator@DU?$char_traits@D@std@@@std@@@std@@@std@@YAAEBV?$time_put@DV?$ostreambuf_iterator@DU?$char_traits@D@std@@@std@@@0@AEBVlocale@0@@Z
    6C7D4 ??0?$_Bt_state_t@PEBD@std@@QEAA@AEBV01@@Z
    6C7D4 ??0?$_Bt_state_t@PEBD@std@@QEAA@XZ
    6C7D4 ??0?$_Buf@D@std@@QEAA@XZ
    6C7D4 ??0?$_Builder@PEBDDV?$regex_traits@D@std@@@std@@QEAA@AEBV?$regex_traits@D@1@W4syntax_option_type@regex_constants@1@@Z
    6C7D4 ??0?$_Cmp_collate@V?$regex_traits@D@std@@@std@@QEAA@AEBV?$regex_traits@D@1@@Z
    6C7D4 ??0?$_Cmp_icase@V?$_Regex_traits@D@std@@@std@@QEAA@AEBV?$_Regex_traits@D@1@@Z
    6C7D4 ??0?$_Cmp_icase@V?$regex_traits@D@std@@@std@@QEAA@AEBV?$regex_traits@D@1@@Z
    6C7D4 ??0?$_Matcher@PEBDDV?$regex_traits@D@std@@PEBD@std@@QEAA@PEBD0AEBV?$regex_traits@D@1@PEAV_Root_node@1@IW4syntax_option_type@regex_constants@1@W4match_flag_type@51@@Z
    6C7D4 ??0?$_Node_class@DV?$regex_traits@D@std@@@std@@QEAA@W4_Node_type@1@W4_Node_flags@1@@Z
    6C7D4 ??0?$_Node_str@D@std@@QEAA@W4_Node_flags@1@@Z
    6C7D4 ??0?$_Parser@PEBDDV?$regex_traits@D@std@@@std@@QEAA@AEBV?$regex_traits@D@1@PEBD1W4syntax_option_type@regex_constants@1@@Z
    6C7D4 ??0?$_Regex_traits@D@std@@QEAA@XZ
    6C7D4 ??0?$_Sequence@D@std@@QEAA@I@Z
    6C7D4 ??0?$_String_alloc@U?$_String_base_types@DV?$allocator@D@std@@@std@@@std@@QEAA@XZ
    6C7D4 ??0?$_String_const_iterator@V?$_String_val@U?$_Simple_types@D@std@@@std@@@std@@QEAA@$$QEAV01@@Z
    6C7D4 ??0?$_String_const_iterator@V?$_String_val@U?$_Simple_types@D@std@@@std@@@std@@QEAA@AEBV01@@Z
    6C7D4 ??0?$_String_const_iterator@V?$_String_val@U?$_Simple_types@D@std@@@std@@@std@@QEAA@PEBDPEBU_Container_base12@1@@Z
    6C7D4 ??0?$_String_iterator@V?$_String_val@U?$_Simple_types@D@std@@@std@@@std@@QEAA@AEBV01@@Z
    6C7D4 ??0?$_String_iterator@V?$_String_val@U?$_Simple_types@D@std@@@std@@@std@@QEAA@PEADPEBU_Container_base12@1@@Z
    6C7D4 ??0?$_String_val@U?$_Simple_types@D@std@@@std@@QEAA@XZ
    6C7D4 ??0?$_Tgt_state_t@PEBD@std@@QEAA@AEBV01@@Z
    6C7D4 ??0?$_Tgt_state_t@PEBD@std@@QEAA@XZ
    6C7D4 ??0?$_Timeobj@DPEBUtm@@@std@@QEAA@PEBUtm@@PEBD@Z
    6C7D4 ??0?$_Tree@V?$_Tmap_traits@V?$basic_string@DU?$char_traits@D@std@@V?$allocator@D@2@@std@@V12@U?$less@V?$basic_string@DU?$char_traits@D@std@@V?$allocator@D@2@@std@@@2@V?$allocator@U?$pair@$$CBV?$basic_string@DU?$char_traits@D@std@@V?$allocator@D@2@@std@@V12@@std@@@2@$0A@@std@@@std@@QEAA@AEBU?$less@V?$basic_string@DU?$char_traits@D@std@@V?$allocator@D@2@@std@@@1@@Z
    6C7D4 ??0?$_Tree_comp_alloc@V?$_Tmap_traits@V?$basic_string@DU?$char_traits@D@std@@V?$allocator@D@2@@std@@V12@U?$less@V?$basic_string@DU?$char_traits@D@std@@V?$allocator@D@2@@std@@@2@V?$allocator@U?$pair@$$CBV?$basic_string@DU?$char_traits@D@std@@V?$allocator@D@2@@std@@V12@@std@@@2@$0A@@std@@@std@@QEAA@AEBU?$less@V?$basic_string@DU?$char_traits@D@std@@V?$allocator@D@2@@std@@@1@@Z
    6C7D4 ??0?$_Tree_const_iterator@V?$_Tree_val@U?$_Tree_simple_types@U?$pair@$$CBV?$basic_string@DU?$char_traits@D@std@@V?$allocator@D@2@@std@@V12@@std@@@std@@@std@@@std@@QEAA@$$QEAV01@@Z
    6C7D4 ??0?$_Tree_const_iterator@V?$_Tree_val@U?$_Tree_simple_types@U?$pair@$$CBV?$basic_string@DU?$char_traits@D@std@@V?$allocator@D@2@@std@@V12@@std@@@std@@@std@@@std@@QEAA@AEBV01@@Z
    6C7D4 ??0?$_Tree_const_iterator@V?$_Tree_val@U?$_Tree_simple_types@U?$pair@$$CBV?$basic_string@DU?$char_traits@D@std@@V?$allocator@D@2@@std@@V12@@std@@@std@@@std@@@std@@QEAA@PEAU?$_Tree_node@U?$pair@$$CBV?$basic_string@DU?$char_traits@D@std@@V?$allocator@D@2@@std@@V12@@std@@PEAX@1@PEBV?$_Tree_val@U?$_Tree_simple_types@U?$pair@$$CBV?$basic_string@DU?$char_traits@D@std@@V?$allocator@D@2@@std@@V12@@std@@@std@@@1@@Z
    6C7D4 ??0?$_Tree_const_iterator@V?$_Tree_val@U?$_Tree_simple_types@U?$pair@$$CBV?$basic_string@DU?$char_traits@D@std@@V?$allocator@D@2@@std@@V12@@std@@@std@@@std@@@std@@QEAA@XZ
    6C7D4 ??0?$_Tree_iterator@V?$_Tree_val@U?$_Tree_simple_types@U?$pair@$$CBV?$basic_string@DU?$char_traits@D@std@@V?$allocator@D@2@@std@@V12@@std@@@std@@@std@@@std@@QEAA@$$QEAV01@@Z
    6C7D4 ??0?$_Tree_iterator@V?$_Tree_val@U?$_Tree_simple_types@U?$pair@$$CBV?$basic_string@DU?$char_traits@D@std@@V?$allocator@D@2@@std@@V12@@std@@@std@@@std@@@std@@QEAA@AEBV01@@Z
    6C7D4 ??0?$_Tree_iterator@V?$_Tree_val@U?$_Tree_simple_types@U?$pair@$$CBV?$basic_string@DU?$char_traits@D@std@@V?$allocator@D@2@@std@@V12@@std@@@std@@@std@@@std@@QEAA@PEAU?$_Tree_node@U?$pair@$$CBV?$basic_string@DU?$char_traits@D@std@@V?$allocator@D@2@@std@@V12@@std@@PEAX@1@PEBV?$_Tree_val@U?$_Tree_simple_types@U?$pair@$$CBV?$basic_string@DU?$char_traits@D@std@@V?$allocator@D@2@@std@@V12@@std@@@std@@@1@@Z
    6C7D4 ??0?$_Tree_unchecked_const_iterator@V?$_Tree_val@U?$_Tree_simple_types@U?$pair@$$CBV?$basic_string@DU?$char_traits@D@std@@V?$allocator@D@2@@std@@V12@@std@@@std@@@std@@U_Iterator_base12@2@@std@@QEAA@$$QEAV01@@Z
    6C7D4 ??0?$_Tree_unchecked_const_iterator@V?$_Tree_val@U?$_Tree_simple_types@U?$pair@$$CBV?$basic_string@DU?$char_traits@D@std@@V?$allocator@D@2@@std@@V12@@std@@@std@@@std@@U_Iterator_base12@2@@std@@QEAA@AEBV01@@Z
    6C7D4 ??0?$_Tree_unchecked_const_iterator@V?$_Tree_val@U?$_Tree_simple_types@U?$pair@$$CBV?$basic_string@DU?$char_traits@D@std@@V?$allocator@D@2@@std@@V12@@std@@@std@@@std@@U_Iterator_base12@2@@std@@QEAA@PEAU?$_Tree_node@U?$pair@$$CBV?$basic_string@DU?$char_traits@D@std@@V?$allocator@D@2@@std@@V12@@std@@PEAX@1@PEBV?$_Tree_val@U?$_Tree_simple_types@U?$pair@$$CBV?$basic_string@DU?$char_traits@D@std@@V?$allocator@D@2@@std@@V12@@std@@@std@@@1@@Z
    6C7D4 ??0?$_Tree_unchecked_const_iterator@V?$_Tree_val@U?$_Tree_simple_types@U?$pair@$$CBV?$basic_string@DU?$char_traits@D@std@@V?$allocator@D@2@@std@@V12@@std@@@std@@@std@@U_Iterator_base12@2@@std@@QEAA@XZ
    6C7D4 ??0?$_Tree_val@U?$_Tree_simple_types@U?$pair@$$CBV?$basic_string@DU?$char_traits@D@std@@V?$allocator@D@2@@std@@V12@@std@@@std@@@std@@QEAA@XZ
    6C7D4 ??0?$_Vb_const_iterator@U?$_Wrap_alloc@V?$allocator@I@std@@@std@@@std@@QEAA@$$QEAV01@@Z
    6C7D4 ??0?$_Vb_const_iterator@U?$_Wrap_alloc@V?$allocator@I@std@@@std@@@std@@QEAA@AEBV01@@Z
    6C7D4 ??0?$_Vb_const_iterator@U?$_Wrap_alloc@V?$allocator@I@std@@@std@@@std@@QEAA@PEBIPEBU_Container_base12@1@@Z
    6C7D4 ??0?$_Vb_iter_base@U?$_Wrap_alloc@V?$allocator@I@std@@@std@@@std@@QEAA@$$QEAV01@@Z
    6C7D4 ??0?$_Vb_iter_base@U?$_Wrap_alloc@V?$allocator@I@std@@@std@@@std@@QEAA@AEBV01@@Z
    6C7D4 ??0?$_Vb_iter_base@U?$_Wrap_alloc@V?$allocator@I@std@@@std@@@std@@QEAA@PEBI_KPEBU_Container_base12@1@@Z
    6C7D4 ??0?$_Vb_iterator@U?$_Wrap_alloc@V?$allocator@I@std@@@std@@@std@@QEAA@$$QEAV01@@Z
    6C7D4 ??0?$_Vb_iterator@U?$_Wrap_alloc@V?$allocator@I@std@@@std@@@std@@QEAA@AEBV01@@Z
    6C7D4 ??0?$_Vb_iterator@U?$_Wrap_alloc@V?$allocator@I@std@@@std@@@std@@QEAA@PEAIPEAU_Container_base12@1@@Z
    6C7D4 ??0?$_Vb_reference@U?$_Wrap_alloc@V?$allocator@I@std@@@std@@@std@@QEAA@AEBV?$_Vb_iter_base@U?$_Wrap_alloc@V?$allocator@I@std@@@std@@@1@@Z
    6C7D4 ??0?$_Vb_val@V?$allocator@_N@std@@@std@@QEAA@AEBV01@@Z
    6C7D4 ??0?$_Vb_val@V?$allocator@_N@std@@@std@@QEAA@_KAEB_N@Z
    6C7D4 ??0?$_Vb_val@V?$allocator@_N@std@@@std@@QEAA@_KAEB_NAEBV?$allocator@_N@1@@Z
    6C7D4 ??0?$_Vector_alloc@U?$_Vec_base_types@U_Grp_t@?$_Tgt_state_t@PEBD@std@@V?$allocator@U_Grp_t@?$_Tgt_state_t@PEBD@std@@@3@@std@@@std@@QEAA@XZ
    6C7D4 ??0?$_Vector_alloc@U?$_Vec_base_types@U_Loop_vals_t@std@@V?$allocator@U_Loop_vals_t@std@@@2@@std@@@std@@QEAA@XZ
    6C7D4 ??0?$_Vector_alloc@U?$_Vec_base_types@V?$basic_string@DU?$char_traits@D@std@@V?$allocator@D@2@@std@@V?$allocator@V?$basic_string@DU?$char_traits@D@std@@V?$allocator@D@2@@std@@@2@@std@@@std@@QEAA@XZ
    6C7D4 ??0?$_Vector_const_iterator@V?$_Vector_val@U?$_Simple_types@I@std@@@std@@@std@@QEAA@$$QEAV01@@Z
    6C7D4 ??0?$_Vector_const_iterator@V?$_Vector_val@U?$_Simple_types@I@std@@@std@@@std@@QEAA@AEBV01@@Z
    6C7D4 ??0?$_Vector_const_iterator@V?$_Vector_val@U?$_Simple_types@I@std@@@std@@@std@@QEAA@PEAIPEBU_Container_base12@1@@Z
    6C7D4 ??0?$_Vector_const_iterator@V?$_Vector_val@U?$_Simple_types@V?$basic_string@DU?$char_traits@D@std@@V?$allocator@D@2@@std@@@std@@@std@@@std@@QEAA@$$QEAV01@@Z
    6C7D4 ??0?$_Vector_const_iterator@V?$_Vector_val@U?$_Simple_types@V?$basic_string@DU?$char_traits@D@std@@V?$allocator@D@2@@std@@@std@@@std@@@std@@QEAA@AEBV01@@Z
    6C7D4 ??0?$_Vector_const_iterator@V?$_Vector_val@U?$_Simple_types@V?$basic_string@DU?$char_traits@D@std@@V?$allocator@D@2@@std@@@std@@@std@@@std@@QEAA@PEAV?$basic_string@DU?$char_traits@D@std@@V?$allocator@D@2@@1@PEBU_Container_base12@1@@Z
    6C7D4 ??0?$_Vector_iterator@V?$_Vector_val@U?$_Simple_types@I@std@@@std@@@std@@QEAA@AEBV01@@Z
    6C7D4 ??0?$_Vector_iterator@V?$_Vector_val@U?$_Simple_types@I@std@@@std@@@std@@QEAA@PEAIPEBU_Container_base12@1@@Z
    6C7D4 ??0?$_Vector_iterator@V?$_Vector_val@U?$_Simple_types@V?$basic_string@DU?$char_traits@D@std@@V?$allocator@D@2@@std@@@std@@@std@@@std@@QEAA@$$QEAV01@@Z
    6C7D4 ??0?$_Vector_iterator@V?$_Vector_val@U?$_Simple_types@V?$basic_string@DU?$char_traits@D@std@@V?$allocator@D@2@@std@@@std@@@std@@@std@@QEAA@AEBV01@@Z
    6C7D4 ??0?$_Vector_iterator@V?$_Vector_val@U?$_Simple_types@V?$basic_string@DU?$char_traits@D@std@@V?$allocator@D@2@@std@@@std@@@std@@@std@@QEAA@PEAV?$basic_string@DU?$char_traits@D@std@@V?$allocator@D@2@@1@PEBU_Container_base12@1@@Z
    6C7D4 ??0?$_Vector_val@U?$_Simple_types@D@std@@@std@@QEAA@XZ
    6C7D4 ??0?$_Vector_val@U?$_Simple_types@I@std@@@std@@QEAA@XZ
    6C7D4 ??0?$_Vector_val@U?$_Simple_types@U_Grp_t@?$_Tgt_state_t@PEBD@std@@@std@@@std@@QEAA@XZ
    6C7D4 ??0?$_Vector_val@U?$_Simple_types@U_Loop_vals_t@std@@@std@@@std@@QEAA@XZ
    6C7D4 ??0?$_Vector_val@U?$_Simple_types@V?$basic_string@DU?$char_traits@D@std@@V?$allocator@D@2@@std@@@std@@@std@@QEAA@XZ
    6C7D4 ??0?$allocator@D@std@@QEAA@XZ
    6C7D4 ??0?$allocator@I@std@@QEAA@XZ
    6C7D4 ??0?$allocator@U?$_Tree_node@U?$pair@$$CBV?$basic_string@DU?$char_traits@D@std@@V?$allocator@D@2@@std@@V12@@std@@PEAX@std@@@std@@QEAA@XZ
    6C7D4 ??0?$allocator@U_Grp_t@?$_Tgt_state_t@PEBD@std@@@std@@QEAA@XZ
    6C7D4 ??0?$allocator@U_Loop_vals_t@std@@@std@@QEAA@XZ
    6C7D4 ??0?$allocator@V?$basic_string@DU?$char_traits@D@std@@V?$allocator@D@2@@std@@@std@@QEAA@XZ
    6C7D4 ??0?$allocator@_N@std@@QEAA@XZ
    6C7D4 ??0?$basic_filebuf@DU?$char_traits@D@std@@@std@@QEAA@PEAU_iobuf@@@Z
    6C7D4 ??0?$basic_ifstream@DU?$char_traits@D@std@@@std@@QEAA@AEBV?$basic_string@DU?$char_traits@D@std@@V?$allocator@D@2@@1@HH@Z
    6C7D4 ??0?$basic_ifstream@DU?$char_traits@D@std@@@std@@QEAA@PEBDHH@Z
    6C7D4 ??0?$basic_ostringstream@DU?$char_traits@D@std@@V?$allocator@D@2@@std@@QEAA@H@Z
    6C7D4 ??0?$basic_regex@DV?$regex_traits@D@std@@@std@@QEAA@PEBDW4syntax_option_type@regex_constants@1@@Z
    6C7D4 ??0?$basic_string@DU?$char_traits@D@std@@V?$allocator@D@2@@std@@QEAA@$$QEAV01@@Z
    6C7D4 ??0?$basic_string@DU?$char_traits@D@std@@V?$allocator@D@2@@std@@QEAA@AEBV01@@Z
    6C7D4 ??0?$basic_string@DU?$char_traits@D@std@@V?$allocator@D@2@@std@@QEAA@AEBV01@_K1AEBV?$allocator@D@1@@Z
    6C7D4 ??0?$basic_string@DU?$char_traits@D@std@@V?$allocator@D@2@@std@@QEAA@QEBD@Z
    6C7D4 ??0?$basic_string@DU?$char_traits@D@std@@V?$allocator@D@2@@std@@QEAA@QEBD_K@Z
    6C7D4 ??0?$basic_string@DU?$char_traits@D@std@@V?$allocator@D@2@@std@@QEAA@XZ
    6C7D4 ??0?$basic_string@DU?$char_traits@D@std@@V?$allocator@D@2@@std@@QEAA@_KD@Z
    6C7D4 ??0?$basic_stringbuf@DU?$char_traits@D@std@@V?$allocator@D@2@@std@@QEAA@H@Z
    6C7D4 ??0?$collate@D@std@@QEAA@AEBV_Locinfo@1@_K@Z
    6C7D4 ??0?$fpos@U_Mbstatet@@@std@@QEAA@U_Mbstatet@@_J@Z
    6C7D4 ??0?$fpos@U_Mbstatet@@@std@@QEAA@_J@Z
    6C7D4 ??0?$initializer_list@U?$pair@$$CBV?$basic_string@DU?$char_traits@D@std@@V?$allocator@D@2@@std@@V12@@std@@@std@@QEAA@PEBU?$pair@$$CBV?$basic_string@DU?$char_traits@D@std@@V?$allocator@D@2@@std@@V12@@1@0@Z
    6C7D4 ??0?$map@V?$basic_string@DU?$char_traits@D@std@@V?$allocator@D@2@@std@@V12@U?$less@V?$basic_string@DU?$char_traits@D@std@@V?$allocator@D@2@@std@@@2@V?$allocator@U?$pair@$$CBV?$basic_string@DU?$char_traits@D@std@@V?$allocator@D@2@@std@@V12@@std@@@2@@std@@QEAA@V?$initializer_list@U?$pair@$$CBV?$basic_string@DU?$char_traits@D@std@@V?$allocator@D@2@@std@@V12@@std@@@1@@Z
    6C7D4 ??0?$ostreambuf_iterator@DU?$char_traits@D@std@@@std@@QEAA@PEAV?$basic_streambuf@DU?$char_traits@D@std@@@1@@Z
    6C7D4 ??0?$pair@$$CBV?$basic_string@DU?$char_traits@D@std@@V?$allocator@D@2@@std@@V12@@std@@QEAA@AEBU01@@Z
    6C7D4 ??0?$regex_traits@D@std@@QEAA@XZ
    6C7D4 ??0?$sub_match@PEBD@std@@QEAA@XZ
    6C7D4 ??0?$vector@IV?$allocator@I@std@@@std@@QEAA@AEBV01@@Z
    6C7D4 ??0?$vector@IV?$allocator@I@std@@@std@@QEAA@_KAEBIAEBV?$allocator@I@1@@Z
    6C7D4 ??0?$vector@U_Grp_t@?$_Tgt_state_t@PEBD@std@@V?$allocator@U_Grp_t@?$_Tgt_state_t@PEBD@std@@@3@@std@@QEAA@AEBV01@@Z
    6C7D4 ??0?$vector@U_Grp_t@?$_Tgt_state_t@PEBD@std@@V?$allocator@U_Grp_t@?$_Tgt_state_t@PEBD@std@@@3@@std@@QEAA@XZ
    6C7D4 ??0?$vector@U_Loop_vals_t@std@@V?$allocator@U_Loop_vals_t@std@@@2@@std@@QEAA@XZ
    6C7D4 ??0?$vector@V?$basic_string@DU?$char_traits@D@std@@V?$allocator@D@2@@std@@V?$allocator@V?$basic_string@DU?$char_traits@D@std@@V?$allocator@D@2@@std@@@2@@std@@QEAA@$$QEAV01@@Z
    6C7D4 ??0?$vector@V?$basic_string@DU?$char_traits@D@std@@V?$allocator@D@2@@std@@V?$allocator@V?$basic_string@DU?$char_traits@D@std@@V?$allocator@D@2@@std@@@2@@std@@QEAA@XZ
    6C7D4 ??0?$vector@_NV?$allocator@_N@std@@@std@@QEAA@AEBV01@@Z
    6C7D4 ??0?$vector@_NV?$allocator@_N@std@@@std@@QEAA@XZ
    6C7D4 ??0?$vector@_NV?$allocator@_N@std@@@std@@QEAA@_KAEBV?$allocator@_N@1@@Z
    6C7D4 ??0_Bitmap@std@@QEAA@XZ
    6C7D4 ??0_Bxty@?$_String_val@U?$_Simple_types@D@std@@@std@@QEAA@XZ
    6C7D4 ??0_Container_base12@std@@QEAA@XZ
    6C7D4 ??0_Container_proxy@std@@QEAA@XZ
    6C7D4 ??0_Iterator_base12@std@@QEAA@AEBU01@@Z
    6C7D4 ??0_Iterator_base12@std@@QEAA@XZ
    6C7D4 ??0_Node_assert@std@@QEAA@W4_Node_type@1@W4_Node_flags@1@@Z
    6C7D4 ??0_Node_back@std@@QEAA@I@Z
    6C7D4 ??0_Node_base@std@@QEAA@W4_Node_type@1@W4_Node_flags@1@@Z
    6C7D4 ??0_Node_capture@std@@QEAA@I@Z
    6C7D4 ??0_Node_end_group@std@@QEAA@W4_Node_type@1@W4_Node_flags@1@PEAV_Node_base@1@@Z
    6C7D4 ??0_Node_end_rep@std@@QEAA@XZ
    6C7D4 ??0_Node_endif@std@@QEAA@XZ
    6C7D4 ??0_Node_if@std@@QEAA@PEAV_Node_base@1@@Z
    6C7D4 ??0_Node_rep@std@@QEAA@_NHHPEAV_Node_end_rep@1@I@Z
    6C7D4 ??0_Regex_base@std@@QEAA@XZ
    6C7D4 ??0_Root_node@std@@QEAA@XZ
    6C7D4 ??0_Sentry_base@?$basic_istream@DU?$char_traits@D@std@@@std@@QEAA@AEAV12@@Z
    6C7D4 ??0_Sentry_base@?$basic_ostream@DU?$char_traits@D@std@@@std@@QEAA@AEAV12@@Z
    6C7D4 ??0bad_cast@std@@QEAA@AEBV01@@Z
    6C7D4 ??0bad_cast@std@@QEAA@XZ
    6C7D4 ??0exception@std@@QEAA@AEBV01@@Z
    6C7D4 ??0exception@std@@QEAA@QEBDH@Z
    6C7D4 ??0locale@std@@QEAA@XZ
    6C7D4 ??0sentry@?$basic_istream@DU?$char_traits@D@std@@@std@@QEAA@AEAV12@_N@Z
    6C7D4 ??0sentry@?$basic_ostream@DU?$char_traits@D@std@@@std@@QEAA@AEAV12@@Z
    6C7D4 ??1?$_Bt_state_t@PEBD@std@@QEAA@XZ
    6C7D4 ??1?$_Buf@D@std@@QEAA@XZ
    6C7D4 ??1?$_Compressed_pair@U?$less@V?$basic_string@DU?$char_traits@D@std@@V?$allocator@D@2@@std@@@std@@V?$_Compressed_pair@V?$allocator@U?$_Tree_node@U?$pair@$$CBV?$basic_string@DU?$char_traits@D@std@@V?$allocator@D@2@@std@@V12@@std@@PEAX@std@@@std@@V?$_Tree_val@U?$_Tree_simple_types@U?$pair@$$CBV?$basic_string@DU?$char_traits@D@std@@V?$allocator@D@2@@std@@V12@@std@@@std@@@2@$00@2@$00@std@@QEAA@XZ
    6C7D4 ??1?$_Compressed_pair@V?$allocator@D@std@@V?$_String_val@U?$_Simple_types@D@std@@@2@$00@std@@QEAA@XZ
    6C7D4 ??1?$_Compressed_pair@V?$allocator@D@std@@V?$_Vector_val@U?$_Simple_types@D@std@@@2@$00@std@@QEAA@XZ
    6C7D4 ??1?$_Compressed_pair@V?$allocator@I@std@@V?$_Vector_val@U?$_Simple_types@I@std@@@2@$00@std@@QEAA@XZ
    6C7D4 ??1?$_Compressed_pair@V?$allocator@U?$_Tree_node@U?$pair@$$CBV?$basic_string@DU?$char_traits@D@std@@V?$allocator@D@2@@std@@V12@@std@@PEAX@std@@@std@@V?$_Tree_val@U?$_Tree_simple_types@U?$pair@$$CBV?$basic_string@DU?$char_traits@D@std@@V?$allocator@D@2@@std@@V12@@std@@@std@@@2@$00@std@@QEAA@XZ
    6C7D4 ??1?$_Compressed_pair@V?$allocator@U_Grp_t@?$_Tgt_state_t@PEBD@std@@@std@@V?$_Vector_val@U?$_Simple_types@U_Grp_t@?$_Tgt_state_t@PEBD@std@@@std@@@2@$00@std@@QEAA@XZ
    6C7D4 ??1?$_Compressed_pair@V?$allocator@U_Loop_vals_t@std@@@std@@V?$_Vector_val@U?$_Simple_types@U_Loop_vals_t@std@@@std@@@2@$00@std@@QEAA@XZ
    6C7D4 ??1?$_Compressed_pair@V?$allocator@V?$basic_string@DU?$char_traits@D@std@@V?$allocator@D@2@@std@@@std@@V?$_Vector_val@U?$_Simple_types@V?$basic_string@DU?$char_traits@D@std@@V?$allocator@D@2@@std@@@std@@@2@$00@std@@QEAA@XZ
    6C7D4 ??1?$_Matcher@PEBDDV?$regex_traits@D@std@@PEBD@std@@QEAA@XZ
    6C7D4 ??1?$_Node_class@DV?$regex_traits@D@std@@@std@@UEAA@XZ
    6C7D4 ??1?$_Node_str@D@std@@UEAA@XZ
    6C7D4 ??1?$_Parser@PEBDDV?$regex_traits@D@std@@@std@@QEAA@XZ
    6C7D4 ??1?$_Regex_traits@D@std@@QEAA@XZ
    6C7D4 ??1?$_Sequence@D@std@@QEAA@XZ
    6C7D4 ??1?$_String_alloc@U?$_String_base_types@DV?$allocator@D@std@@@std@@@std@@QEAA@XZ
    6C7D4 ??1?$_String_const_iterator@V?$_String_val@U?$_Simple_types@D@std@@@std@@@std@@QEAA@XZ
    6C7D4 ??1?$_String_iterator@V?$_String_val@U?$_Simple_types@D@std@@@std@@@std@@QEAA@XZ
    6C7D4 ??1?$_String_val@U?$_Simple_types@D@std@@@std@@QEAA@XZ
    6C7D4 ??1?$_Tgt_state_t@PEBD@std@@QEAA@XZ
    6C7D4 ??1?$_Tree@V?$_Tmap_traits@V?$basic_string@DU?$char_traits@D@std@@V?$allocator@D@2@@std@@V12@U?$less@V?$basic_string@DU?$char_traits@D@std@@V?$allocator@D@2@@std@@@2@V?$allocator@U?$pair@$$CBV?$basic_string@DU?$char_traits@D@std@@V?$allocator@D@2@@std@@V12@@std@@@2@$0A@@std@@@std@@QEAA@XZ
    6C7D4 ??1?$_Tree_comp_alloc@V?$_Tmap_traits@V?$basic_string@DU?$char_traits@D@std@@V?$allocator@D@2@@std@@V12@U?$less@V?$basic_string@DU?$char_traits@D@std@@V?$allocator@D@2@@std@@@2@V?$allocator@U?$pair@$$CBV?$basic_string@DU?$char_traits@D@std@@V?$allocator@D@2@@std@@V12@@std@@@2@$0A@@std@@@std@@QEAA@XZ
    6C7D4 ??1?$_Tree_const_iterator@V?$_Tree_val@U?$_Tree_simple_types@U?$pair@$$CBV?$basic_string@DU?$char_traits@D@std@@V?$allocator@D@2@@std@@V12@@std@@@std@@@std@@@std@@QEAA@XZ
    6C7D4 ??1?$_Tree_iterator@V?$_Tree_val@U?$_Tree_simple_types@U?$pair@$$CBV?$basic_string@DU?$char_traits@D@std@@V?$allocator@D@2@@std@@V12@@std@@@std@@@std@@@std@@QEAA@XZ
    6C7D4 ??1?$_Tree_unchecked_const_iterator@V?$_Tree_val@U?$_Tree_simple_types@U?$pair@$$CBV?$basic_string@DU?$char_traits@D@std@@V?$allocator@D@2@@std@@V12@@std@@@std@@@std@@U_Iterator_base12@2@@std@@QEAA@XZ
    6C7D4 ??1?$_Tree_val@U?$_Tree_simple_types@U?$pair@$$CBV?$basic_string@DU?$char_traits@D@std@@V?$allocator@D@2@@std@@V12@@std@@@std@@@std@@QEAA@XZ
    6C7D4 ??1?$_Vb_const_iterator@U?$_Wrap_alloc@V?$allocator@I@std@@@std@@@std@@QEAA@XZ
    6C7D4 ??1?$_Vb_iter_base@U?$_Wrap_alloc@V?$allocator@I@std@@@std@@@std@@QEAA@XZ
    6C7D4 ??1?$_Vb_iterator@U?$_Wrap_alloc@V?$allocator@I@std@@@std@@@std@@QEAA@XZ
    6C7D4 ??1?$_Vb_reference@U?$_Wrap_alloc@V?$allocator@I@std@@@std@@@std@@QEAA@XZ
    6C7D4 ??1?$_Vb_val@V?$allocator@_N@std@@@std@@QEAA@XZ
    6C7D4 ??1?$_Vector_alloc@U?$_Vec_base_types@DV?$allocator@D@std@@@std@@@std@@QEAA@XZ
    6C7D4 ??1?$_Vector_alloc@U?$_Vec_base_types@IV?$allocator@I@std@@@std@@@std@@QEAA@XZ
    6C7D4 ??1?$_Vector_alloc@U?$_Vec_base_types@U_Grp_t@?$_Tgt_state_t@PEBD@std@@V?$allocator@U_Grp_t@?$_Tgt_state_t@PEBD@std@@@3@@std@@@std@@QEAA@XZ
    6C7D4 ??1?$_Vector_alloc@U?$_Vec_base_types@U_Loop_vals_t@std@@V?$allocator@U_Loop_vals_t@std@@@2@@std@@@std@@QEAA@XZ
    6C7D4 ??1?$_Vector_alloc@U?$_Vec_base_types@V?$basic_string@DU?$char_traits@D@std@@V?$allocator@D@2@@std@@V?$allocator@V?$basic_string@DU?$char_traits@D@std@@V?$allocator@D@2@@std@@@2@@std@@@std@@QEAA@XZ
    6C7D4 ??1?$_Vector_const_iterator@V?$_Vector_val@U?$_Simple_types@I@std@@@std@@@std@@QEAA@XZ
    6C7D4 ??1?$_Vector_const_iterator@V?$_Vector_val@U?$_Simple_types@V?$basic_string@DU?$char_traits@D@std@@V?$allocator@D@2@@std@@@std@@@std@@@std@@QEAA@XZ
    6C7D4 ??1?$_Vector_iterator@V?$_Vector_val@U?$_Simple_types@I@std@@@std@@@std@@QEAA@XZ
    6C7D4 ??1?$_Vector_iterator@V?$_Vector_val@U?$_Simple_types@V?$basic_string@DU?$char_traits@D@std@@V?$allocator@D@2@@std@@@std@@@std@@@std@@QEAA@XZ
    6C7D4 ??1?$_Vector_val@U?$_Simple_types@D@std@@@std@@QEAA@XZ
    6C7D4 ??1?$_Vector_val@U?$_Simple_types@I@std@@@std@@QEAA@XZ
    6C7D4 ??1?$_Vector_val@U?$_Simple_types@U_Grp_t@?$_Tgt_state_t@PEBD@std@@@std@@@std@@QEAA@XZ
    6C7D4 ??1?$_Vector_val@U?$_Simple_types@U_Loop_vals_t@std@@@std@@@std@@QEAA@XZ
    6C7D4 ??1?$_Vector_val@U?$_Simple_types@V?$basic_string@DU?$char_traits@D@std@@V?$allocator@D@2@@std@@@std@@@std@@QEAA@XZ
    6C7D4 ??1?$basic_filebuf@DU?$char_traits@D@std@@@std@@UEAA@XZ
    6C7D4 ??1?$basic_ifstream@DU?$char_traits@D@std@@@std@@UEAA@XZ
    6C7D4 ??1?$basic_ostringstream@DU?$char_traits@D@std@@V?$allocator@D@2@@std@@UEAA@XZ
    6C7D4 ??1?$basic_regex@DV?$regex_traits@D@std@@@std@@QEAA@XZ
    6C7D4 ??1?$basic_string@DU?$char_traits@D@std@@V?$allocator@D@2@@std@@QEAA@XZ
    6C7D4 ??1?$basic_stringbuf@DU?$char_traits@D@std@@V?$allocator@D@2@@std@@UEAA@XZ
    6C7D4 ??1?$collate@D@std@@MEAA@XZ
    6C7D4 ??1?$map@V?$basic_string@DU?$char_traits@D@std@@V?$allocator@D@2@@std@@V12@U?$less@V?$basic_string@DU?$char_traits@D@std@@V?$allocator@D@2@@std@@@2@V?$allocator@U?$pair@$$CBV?$basic_string@DU?$char_traits@D@std@@V?$allocator@D@2@@std@@V12@@std@@@2@@std@@QEAA@XZ
    6C7D4 ??1?$pair@$$CBV?$basic_string@DU?$char_traits@D@std@@V?$allocator@D@2@@std@@V12@@std@@QEAA@XZ
    6C7D4 ??1?$pair@V?$_Tree_iterator@V?$_Tree_val@U?$_Tree_simple_types@U?$pair@$$CBV?$basic_string@DU?$char_traits@D@std@@V?$allocator@D@2@@std@@V12@@std@@@std@@@std@@@std@@_N@std@@QEAA@XZ
    6C7D4 ??1?$regex_traits@D@std@@QEAA@XZ
    6C7D4 ??1?$vector@DV?$allocator@D@std@@@std@@QEAA@XZ
    6C7D4 ??1?$vector@IV?$allocator@I@std@@@std@@QEAA@XZ
    6C7D4 ??1?$vector@U_Grp_t@?$_Tgt_state_t@PEBD@std@@V?$allocator@U_Grp_t@?$_Tgt_state_t@PEBD@std@@@3@@std@@QEAA@XZ
    6C7D4 ??1?$vector@U_Loop_vals_t@std@@V?$allocator@U_Loop_vals_t@std@@@2@@std@@QEAA@XZ
    6C7D4 ??1?$vector@V?$basic_string@DU?$char_traits@D@std@@V?$allocator@D@2@@std@@V?$allocator@V?$basic_string@DU?$char_traits@D@std@@V?$allocator@D@2@@std@@@2@@std@@QEAA@XZ
    6C7D4 ??1?$vector@_NV?$allocator@_N@std@@@std@@QEAA@XZ
    6C7D4 ??1_Bxty@?$_String_val@U?$_Simple_types@D@std@@@std@@QEAA@XZ
    6C7D4 ??1_Container_base12@std@@QEAA@XZ
    6C7D4 ??1_Iterator_base12@std@@QEAA@XZ
    6C7D4 ??1_Node_assert@std@@UEAA@XZ
    6C7D4 ??1_Node_back@std@@UEAA@XZ
    6C7D4 ??1_Node_base@std@@UEAA@XZ
    6C7D4 ??1_Node_capture@std@@UEAA@XZ
    6C7D4 ??1_Node_end_group@std@@UEAA@XZ
    6C7D4 ??1_Node_end_rep@std@@UEAA@XZ
    6C7D4 ??1_Node_endif@std@@UEAA@XZ
    6C7D4 ??1_Node_if@std@@UEAA@XZ
    6C7D4 ??1_Node_rep@std@@UEAA@XZ
    6C7D4 ??1_Regex_base@std@@QEAA@XZ
    6C7D4 ??1_Root_node@std@@UEAA@XZ
    6C7D4 ??1_Sentry_base@?$basic_istream@DU?$char_traits@D@std@@@std@@QEAA@XZ
    6C7D4 ??1_Sentry_base@?$basic_ostream@DU?$char_traits@D@std@@@std@@QEAA@XZ
    6C7D4 ??1bad_cast@std@@UEAA@XZ
    6C7D4 ??1exception@std@@UEAA@XZ
    6C7D4 ??1locale@std@@QEAA@XZ
    6C7D4 ??1sentry@?$basic_istream@DU?$char_traits@D@std@@@std@@QEAA@XZ
    6C7D4 ??1sentry@?$basic_ostream@DU?$char_traits@D@std@@@std@@QEAA@XZ
    6C7D4 ??2@YAPEAX_KPEAX@Z
    6C7D4 ??3@YAXPEAX0@Z
    6C7D4 ??4?$_Bt_state_t@PEBD@std@@QEAAAEAV01@AEBV01@@Z
    6C7D4 ??4?$_Tgt_state_t@PEBD@std@@QEAAAEAV01@AEBV01@@Z
    6C7D4 ??4?$_Tgt_state_t@PEBD@std@@QEAAXAEBV?$_Bt_state_t@PEBD@1@@Z
    6C7D4 ??4?$_Tree_const_iterator@V?$_Tree_val@U?$_Tree_simple_types@U?$pair@$$CBV?$basic_string@DU?$char_traits@D@std@@V?$allocator@D@2@@std@@V12@@std@@@std@@@std@@@std@@QEAAAEAV01@AEBV01@@Z
    6C7D4 ??4?$_Tree_unchecked_const_iterator@V?$_Tree_val@U?$_Tree_simple_types@U?$pair@$$CBV?$basic_string@DU?$char_traits@D@std@@V?$allocator@D@2@@std@@V12@@std@@@std@@@std@@U_Iterator_base12@2@@std@@QEAAAEAV01@AEBV01@@Z
    6C7D4 ??4?$_Vb_const_iterator@U?$_Wrap_alloc@V?$allocator@I@std@@@std@@@std@@QEAAAEAV01@AEBV01@@Z
    6C7D4 ??4?$_Vb_iter_base@U?$_Wrap_alloc@V?$allocator@I@std@@@std@@@std@@QEAAAEAV01@AEBV01@@Z
    6C7D4 ??4?$_Vb_iterator@U?$_Wrap_alloc@V?$allocator@I@std@@@std@@@std@@QEAAAEAV01@AEBV01@@Z
    6C7D4 ??4?$_Vb_reference@U?$_Wrap_alloc@V?$allocator@I@std@@@std@@@std@@QEAAAEAV01@AEBV01@@Z
    6C7D4 ??4?$_Vb_reference@U?$_Wrap_alloc@V?$allocator@I@std@@@std@@@std@@QEAAAEAV01@_N@Z
    6C7D4 ??4?$_Vector_const_iterator@V?$_Vector_val@U?$_Simple_types@V?$basic_string@DU?$char_traits@D@std@@V?$allocator@D@2@@std@@@std@@@std@@@std@@QEAAAEAV01@$$QEAV01@@Z
    6C7D4 ??4?$_Vector_const_iterator@V?$_Vector_val@U?$_Simple_types@V?$basic_string@DU?$char_traits@D@std@@V?$allocator@D@2@@std@@@std@@@std@@@std@@QEAAAEAV01@AEBV01@@Z
    6C7D4 ??4?$_Vector_iterator@V?$_Vector_val@U?$_Simple_types@V?$basic_string@DU?$char_traits@D@std@@V?$allocator@D@2@@std@@@std@@@std@@@std@@QEAAAEAV01@$$QEAV01@@Z
    6C7D4 ??4?$_Vector_iterator@V?$_Vector_val@U?$_Simple_types@V?$basic_string@DU?$char_traits@D@std@@V?$allocator@D@2@@std@@@std@@@std@@@std@@QEAAAEAV01@AEBV01@@Z
    6C7D4 ??4?$basic_string@DU?$char_traits@D@std@@V?$allocator@D@2@@std@@QEAAAEAV01@$$QEAV01@@Z
    6C7D4 ??4?$basic_string@DU?$char_traits@D@std@@V?$allocator@D@2@@std@@QEAAAEAV01@AEBV01@@Z
    6C7D4 ??4?$basic_string@DU?$char_traits@D@std@@V?$allocator@D@2@@std@@QEAAAEAV01@QEBD@Z
    6C7D4 ??4?$vector@IV?$allocator@I@std@@@std@@QEAAAEAV01@AEBV01@@Z
    6C7D4 ??4?$vector@U_Grp_t@?$_Tgt_state_t@PEBD@std@@V?$allocator@U_Grp_t@?$_Tgt_state_t@PEBD@std@@@3@@std@@QEAAAEAV01@AEBV01@@Z
    6C7D4 ??4?$vector@_NV?$allocator@_N@std@@@std@@QEAAAEAV01@AEBV01@@Z
    6C7D4 ??4_Iterator_base12@std@@QEAAAEAU01@AEBU01@@Z
    6C7D4 ??8?$_String_const_iterator@V?$_String_val@U?$_Simple_types@D@std@@@std@@@std@@QEBA_NAEBV01@@Z
    6C7D4 ??8?$_Tree_const_iterator@V?$_Tree_val@U?$_Tree_simple_types@U?$pair@$$CBV?$basic_string@DU?$char_traits@D@std@@V?$allocator@D@2@@std@@V12@@std@@@std@@@std@@@std@@QEBA_NAEBV01@@Z
    6C7D4 ??8?$_Vb_const_iterator@U?$_Wrap_alloc@V?$allocator@I@std@@@std@@@std@@QEBA_NAEBV01@@Z
    6C7D4 ??8?$_Vector_const_iterator@V?$_Vector_val@U?$_Simple_types@V?$basic_string@DU?$char_traits@D@std@@V?$allocator@D@2@@std@@@std@@@std@@@std@@QEBA_NAEBV01@@Z
    6C7D4 ??9?$_String_const_iterator@V?$_String_val@U?$_Simple_types@D@std@@@std@@@std@@QEBA_NAEBV01@@Z
    6C7D4 ??9?$_Tree_const_iterator@V?$_Tree_val@U?$_Tree_simple_types@U?$pair@$$CBV?$basic_string@DU?$char_traits@D@std@@V?$allocator@D@2@@std@@V12@@std@@@std@@@std@@@std@@QEBA_NAEBV01@@Z
    6C7D4 ??9?$_Vb_const_iterator@U?$_Wrap_alloc@V?$allocator@I@std@@@std@@@std@@QEBA_NAEBV01@@Z
    6C7D4 ??9?$_Vector_const_iterator@V?$_Vector_val@U?$_Simple_types@V?$basic_string@DU?$char_traits@D@std@@V?$allocator@D@2@@std@@@std@@@std@@@std@@QEBA_NAEBV01@@Z
    6C7D4 ??A?$basic_string@DU?$char_traits@D@std@@V?$allocator@D@2@@std@@QEAAAEAD_K@Z
    6C7D4 ??A?$vector@IV?$allocator@I@std@@@std@@QEAAAEAI_K@Z
    6C7D4 ??A?$vector@U_Grp_t@?$_Tgt_state_t@PEBD@std@@V?$allocator@U_Grp_t@?$_Tgt_state_t@PEBD@std@@@3@@std@@QEAAAEAU_Grp_t@?$_Tgt_state_t@PEBD@1@_K@Z
    6C7D4 ??A?$vector@U_Loop_vals_t@std@@V?$allocator@U_Loop_vals_t@std@@@2@@std@@QEAAAEAU_Loop_vals_t@1@_K@Z
    6C7D4 ??A?$vector@V?$sub_match@PEBD@std@@V?$allocator@V?$sub_match@PEBD@std@@@2@@std@@QEAAAEAV?$sub_match@PEBD@1@_K@Z
    6C7D4 ??A?$vector@_NV?$allocator@_N@std@@@std@@QEAA?AV?$_Vb_reference@U?$_Wrap_alloc@V?$allocator@I@std@@@std@@@1@_K@Z
    6C7D4 ??B?$_Vb_reference@U?$_Wrap_alloc@V?$allocator@I@std@@@std@@@std@@QEBA_NXZ
    6C7D4 ??B?$fpos@U_Mbstatet@@@std@@QEBA_JXZ
    6C7D4 ??Bsentry@?$basic_istream@DU?$char_traits@D@std@@@std@@QEBA_NXZ
    6C7D4 ??Bsentry@?$basic_ostream@DU?$char_traits@D@std@@@std@@QEBA_NXZ
    6C7D4 ??D?$_String_const_iterator@V?$_String_val@U?$_Simple_types@D@std@@@std@@@std@@QEBAAEBDXZ
    6C7D4 ??D?$_String_iterator@V?$_String_val@U?$_Simple_types@D@std@@@std@@@std@@QEBAAEADXZ
    6C7D4 ??D?$_Vb_iterator@U?$_Wrap_alloc@V?$allocator@I@std@@@std@@@std@@QEBA?AV?$_Vb_reference@U?$_Wrap_alloc@V?$allocator@I@std@@@std@@@1@XZ
    6C7D4 ??D?$_Vector_const_iterator@V?$_Vector_val@U?$_Simple_types@V?$basic_string@DU?$char_traits@D@std@@V?$allocator@D@2@@std@@@std@@@std@@@std@@QEBAAEBV?$basic_string@DU?$char_traits@D@std@@V?$allocator@D@2@@1@XZ
    6C7D4 ??D?$_Vector_iterator@V?$_Vector_val@U?$_Simple_types@V?$basic_string@DU?$char_traits@D@std@@V?$allocator@D@2@@std@@@std@@@std@@@std@@QEBAAEAV?$basic_string@DU?$char_traits@D@std@@V?$allocator@D@2@@1@XZ
    6C7D4 ??E?$_Tree_const_iterator@V?$_Tree_val@U?$_Tree_simple_types@U?$pair@$$CBV?$basic_string@DU?$char_traits@D@std@@V?$allocator@D@2@@std@@V12@@std@@@std@@@std@@@std@@QEAA?AV01@H@Z
    6C7D4 ??E?$_Tree_const_iterator@V?$_Tree_val@U?$_Tree_simple_types@U?$pair@$$CBV?$basic_string@DU?$char_traits@D@std@@V?$allocator@D@2@@std@@V12@@std@@@std@@@std@@@std@@QEAAAEAV01@XZ
    6C7D4 ??E?$_Tree_unchecked_const_iterator@V?$_Tree_val@U?$_Tree_simple_types@U?$pair@$$CBV?$basic_string@DU?$char_traits@D@std@@V?$allocator@D@2@@std@@V12@@std@@@std@@@std@@U_Iterator_base12@2@@std@@QEAAAEAV01@XZ
    6C7D4 ??E?$_Vb_const_iterator@U?$_Wrap_alloc@V?$allocator@I@std@@@std@@@std@@QEAAAEAV01@XZ
    6C7D4 ??E?$_Vb_iterator@U?$_Wrap_alloc@V?$allocator@I@std@@@std@@@std@@QEAAAEAV01@XZ
    6C7D4 ??E?$_Vector_const_iterator@V?$_Vector_val@U?$_Simple_types@V?$basic_string@DU?$char_traits@D@std@@V?$allocator@D@2@@std@@@std@@@std@@@std@@QEAAAEAV01@XZ
    6C7D4 ??E?$_Vector_iterator@V?$_Vector_val@U?$_Simple_types@V?$basic_string@DU?$char_traits@D@std@@V?$allocator@D@2@@std@@@std@@@std@@@std@@QEAAAEAV01@XZ
    6C7D4 ??F?$_Tree_const_iterator@V?$_Tree_val@U?$_Tree_simple_types@U?$pair@$$CBV?$basic_string@DU?$char_traits@D@std@@V?$allocator@D@2@@std@@V12@@std@@@std@@@std@@@std@@QEAAAEAV01@XZ
    6C7D4 ??F?$_Tree_iterator@V?$_Tree_val@U?$_Tree_simple_types@U?$pair@$$CBV?$basic_string@DU?$char_traits@D@std@@V?$allocator@D@2@@std@@V12@@std@@@std@@@std@@@std@@QEAAAEAV01@XZ
    6C7D4 ??F?$_Tree_unchecked_const_iterator@V?$_Tree_val@U?$_Tree_simple_types@U?$pair@$$CBV?$basic_string@DU?$char_traits@D@std@@V?$allocator@D@2@@std@@V12@@std@@@std@@@std@@U_Iterator_base12@2@@std@@QEAAAEAV01@XZ
    6C7D4 ??F?$_Vb_const_iterator@U?$_Wrap_alloc@V?$allocator@I@std@@@std@@@std@@QEAAAEAV01@XZ
    6C7D4 ??F?$_Vb_iterator@U?$_Wrap_alloc@V?$allocator@I@std@@@std@@@std@@QEAAAEAV01@XZ
    6C7D4 ??G?$_String_const_iterator@V?$_String_val@U?$_Simple_types@D@std@@@std@@@std@@QEBA_JAEBV01@@Z
    6C7D4 ??G?$_Vb_const_iterator@U?$_Wrap_alloc@V?$allocator@I@std@@@std@@@std@@QEBA_JAEBV01@@Z
    6C7D4 ??G?$_Vb_iterator@U?$_Wrap_alloc@V?$allocator@I@std@@@std@@@std@@QEBA?AV01@_J@Z
    6C7D4 ??G?$_Vb_iterator@U?$_Wrap_alloc@V?$allocator@I@std@@@std@@@std@@QEBA_JAEBV?$_Vb_const_iterator@U?$_Wrap_alloc@V?$allocator@I@std@@@std@@@1@@Z
    6C7D4 ??H?$_String_iterator@V?$_String_val@U?$_Simple_types@D@std@@@std@@@std@@QEBA?AV01@_J@Z
    6C7D4 ??H?$_Vb_iterator@U?$_Wrap_alloc@V?$allocator@I@std@@@std@@@std@@QEBA?AV01@_J@Z
    6C7D4 ??H?$_Vector_iterator@V?$_Vector_val@U?$_Simple_types@I@std@@@std@@@std@@QEBA?AV01@_J@Z
    6C7D4 ??H?$_Vector_iterator@V?$_Vector_val@U?$_Simple_types@V?$basic_string@DU?$char_traits@D@std@@V?$allocator@D@2@@std@@@std@@@std@@@std@@QEBA?AV01@_J@Z
    6C7D4 ??Iregex_constants@std@@YA?AW4match_flag_type@01@W4201@0@Z
    6C7D4 ??Iregex_constants@std@@YA?AW4syntax_option_type@01@W4201@0@Z
    6C7D4 ??M?$_String_const_iterator@V?$_String_val@U?$_Simple_types@D@std@@@std@@@std@@QEBA_NAEBV01@@Z
    6C7D4 ??M?$_Vb_const_iterator@U?$_Wrap_alloc@V?$allocator@I@std@@@std@@@std@@QEBA_NAEBV01@@Z
    6C7D4 ??M?$_Vector_const_iterator@V?$_Vector_val@U?$_Simple_types@V?$basic_string@DU?$char_traits@D@std@@V?$allocator@D@2@@std@@@std@@@std@@@std@@QEBA_NAEBV01@@Z
    6C7D4 ??R?$_Cmp_collate@V?$regex_traits@D@std@@@std@@QEAA_NDD@Z
    6C7D4 ??R?$_Cmp_cs@V?$regex_traits@D@std@@@std@@QEAA_NDD@Z
    6C7D4 ??R?$_Cmp_icase@V?$_Regex_traits@D@std@@@std@@QEAA_NDD@Z
    6C7D4 ??R?$_Cmp_icase@V?$regex_traits@D@std@@@std@@QEAA_NDD@Z
    6C7D4 ??R?$less@V?$basic_string@DU?$char_traits@D@std@@V?$allocator@D@2@@std@@@std@@QEBA_NAEBV?$basic_string@DU?$char_traits@D@std@@V?$allocator@D@2@@1@0@Z
    6C7D4 ??Uregex_constants@std@@YA?AW4match_flag_type@01@W4201@0@Z
    6C7D4 ??Y?$_String_const_iterator@V?$_String_val@U?$_Simple_types@D@std@@@std@@@std@@QEAAAEAV01@_J@Z
    6C7D4 ??Y?$_String_iterator@V?$_String_val@U?$_Simple_types@D@std@@@std@@@std@@QEAAAEAV01@_J@Z
    6C7D4 ??Y?$_Vb_const_iterator@U?$_Wrap_alloc@V?$allocator@I@std@@@std@@@std@@QEAAAEAV01@_J@Z
    6C7D4 ??Y?$_Vb_iterator@U?$_Wrap_alloc@V?$allocator@I@std@@@std@@@std@@QEAAAEAV01@_J@Z
    6C7D4 ??Y?$_Vector_const_iterator@V?$_Vector_val@U?$_Simple_types@I@std@@@std@@@std@@QEAAAEAV01@_J@Z
    6C7D4 ??Y?$_Vector_const_iterator@V?$_Vector_val@U?$_Simple_types@V?$basic_string@DU?$char_traits@D@std@@V?$allocator@D@2@@std@@@std@@@std@@@std@@QEAAAEAV01@_J@Z
    6C7D4 ??Y?$_Vector_iterator@V?$_Vector_val@U?$_Simple_types@I@std@@@std@@@std@@QEAAAEAV01@_J@Z
    6C7D4 ??Y?$_Vector_iterator@V?$_Vector_val@U?$_Simple_types@V?$basic_string@DU?$char_traits@D@std@@V?$allocator@D@2@@std@@@std@@@std@@@std@@QEAAAEAV01@_J@Z
    6C7D4 ??Y?$basic_string@DU?$char_traits@D@std@@V?$allocator@D@2@@std@@QEAAAEAV01@AEBV01@@Z
    6C7D4 ??Y?$basic_string@DU?$char_traits@D@std@@V?$allocator@D@2@@std@@QEAAAEAV01@D@Z
    6C7D4 ??Y?$basic_string@DU?$char_traits@D@std@@V?$allocator@D@2@@std@@QEAAAEAV01@QEBD@Z
    6C7D4 ??Z?$_Vb_iterator@U?$_Wrap_alloc@V?$allocator@I@std@@@std@@@std@@QEAAAEAV01@_J@Z
    6C7D4 ??_5std@@YA?AW4_Node_flags@0@AEAW410@W410@@Z
    6C7D4 ??_6std@@YA?AW4_Node_flags@0@AEAW410@W410@@Z
    6C7D4 ??_7?$_Node_class@DV?$regex_traits@D@std@@@std@@6B@
    6C7D4 ??_7?$_Node_str@D@std@@6B@
    6C7D4 ??_7?$basic_filebuf@DU?$char_traits@D@std@@@std@@6B@
    6C7D4 ??_7?$basic_ifstream@DU?$char_traits@D@std@@@std@@6B@
    6C7D4 ??_7?$basic_ostringstream@DU?$char_traits@D@std@@V?$allocator@D@2@@std@@6B@
    6C7D4 ??_7?$basic_stringbuf@DU?$char_traits@D@std@@V?$allocator@D@2@@std@@6B@
    6C7D4 ??_7?$collate@D@std@@6B@
    6C7D4 ??_7_Node_assert@std@@6B@
    6C7D4 ??_7_Node_back@std@@6B@
    6C7D4 ??_7_Node_base@std@@6B@
    6C7D4 ??_7_Node_capture@std@@6B@
    6C7D4 ??_7_Node_end_group@std@@6B@
    6C7D4 ??_7_Node_end_rep@std@@6B@
    6C7D4 ??_7_Node_endif@std@@6B@
    6C7D4 ??_7_Node_if@std@@6B@
    6C7D4 ??_7_Node_rep@std@@6B@
    6C7D4 ??_7_Root_node@std@@6B@
    6C7D4 ??_7bad_cast@std@@6B@
    6C7D4 ??_7exception@std@@6B@
    6C7D4 ??_8?$basic_ifstream@DU?$char_traits@D@std@@@std@@7B@
    6C7D4 ??_8?$basic_ostringstream@DU?$char_traits@D@std@@V?$allocator@D@2@@std@@7B@
    6C7D4 ??_C@_00CNPNBAHC@?$AA@
    6C7D4 ??_C@_01CLKCMJKC@?5?$AA@
    6C7D4 ??_C@_01KMDKNFGN@?1?$AA@
    6C7D4 ??_C@_01LKDEMHDF@s?$AA@
    6C7D4 ??_C@_01LPLHEDKD@d?$AA@
    6C7D4 ??_C@_01MNNFJEPP@?$DM?$AA@
    6C7D4 ??_C@_01NOFIACDB@w?$AA@
    6C7D4 ??_C@_01PPODPGHN@?$DO?$AA@
    6C7D4 ??_C@_02DPNDACHE@?$DM?1?$AA@
    6C7D4 ??_C@_02KHOJGJKF@?4?5?$AA@
    6C7D4 ??_C@_03ILLHFMNI@?5?7?6?$AA@
    6C7D4 ??_C@_03LCPHGAHP@cls?$AA@
    6C7D4 ??_C@_03PNLDJJMO@?9?9?$DO?$AA@
    6C7D4 ??_C@_04FFDNBKGC@?$DM?$CB?9?9?$AA@
    6C7D4 ??_C@_05BABJKOGB@blank?$AA@
    6C7D4 ??_C@_05DGGNBJMM@?$DM?$CB?9?9?5?$AA@
    6C7D4 ??_C@_05DJDIECHG@?$DM?$DPxml?$AA@
    6C7D4 ??_C@_05IAEKHIAN@alpha?$AA@
    6C7D4 ??_C@_05IIMHCHIO@alnum?$AA@
    6C7D4 ??_C@_05IJDJACGD@print?$AA@
    6C7D4 ??_C@_05IPJEPLHL@lower?$AA@
    6C7D4 ??_C@_05JMDPEFNK@cntrl?$AA@
    6C7D4 ??_C@_05KCJBMLII@graph?$AA@
    6C7D4 ??_C@_05KOBGHFJJ@punct?$AA@
    6C7D4 ??_C@_05NECKJAMC@upper?$AA@
    6C7D4 ??_C@_05ODNOIFML@digit?$AA@
    6C7D4 ??_C@_05OLNILLAB@space?$AA@
    6C7D4 ??_C@_06BAPHGFFK@xdigit?$AA@
    6C7D4 ??_C@_08EPJLHIJG@bad?5cast?$AA@
    6C7D4 ??_C@_08GOBPOGDO@?$CFY?9?$CFm?9?$CFd?$AA@
    6C7D4 ??_C@_09CEJGLLFG@wmic?5exit?$AA@
    6C7D4 ??_C@_09GLJCAGLP@_Ptr?5?$CB?$DN?50?$AA@
    6C7D4 ??_C@_0BA@JFNIOLAK@string?5too?5long?$AA@
    6C7D4 ??_C@_0BC@EOODALEL@Unknown?5exception?$AA@
    6C7D4 ??_C@_0BD@OLBABOEK@vector?$DMT?$DO?5too?5long?$AA@
    6C7D4 ??_C@_0BE@BLLLJNLB@Error?3?5empty?5tree?3?5?$AA@
    6C7D4 ??_C@_0BE@JONHPENG@map?1set?$DMT?$DO?5too?5long?$AA@
    6C7D4 ??_C@_0BE@LMNLACIC@_Ptr_container?5?$CB?$DN?50?$AA@
    6C7D4 ??_C@_0BG@EOMJEIFA@vector?$DMbool?$DO?5too?5long?$AA@
    6C7D4 ??_C@_0BI@CFPLBAOH@invalid?5string?5position?$AA@
    6C7D4 ??_C@_0BN@ELFFMIIN@Error?0?5missing?5open?5tag?5for?5?$AA@
    6C7D4 ??_C@_0BO@ILCCICL@Error?0?5missing?5close?5tag?5for?5?$AA@
    6C7D4 ??_C@_0CD@JGIENMLN@Press?5Enter?5to?5erase?5the?5screen?4@
    6C7D4 ??_C@_0CG@PPHFBBBK@Error?0?5missing?5tag?5name?5on?5open?5@
    6C7D4 ??_C@_0CH@LAMGLEEK@?$FO?$CI?$FL?$CL?9?$FN?$DP?$FL0?99?$FN?$CL?$CJ?$HM?$CI?$FL?$CL?9?$FN?$DP?$FL0?99?$FN?$CK?$FL?4?$FN?$FL0@
    6C7D4 ??_C@_0CI@HHCHEIB@Error?3?5missing?5open?5?$DM?5char?5on?5op@
    6C7D4 ??_C@_0CJ@LBHPPNMD@Error?3?5missing?5close?5?$DO?5char?5on?5o@
    6C7D4 ??_C@_0CJ@MAKBHEIK@Tools?3?3XMLParser?$CI?$CJ?3?5unable?5to?5fi@
    6C7D4 ??_C@_0CK@OEMCGDHJ@Error?3?5found?5tree?5with?5embeded?5n@
    6C7D4 ??_C@_0DC@GKMCDCDH@Error?3?5missing?5root?5tag?4?5First?5t@
    6C7D4 ??_C@_0DK@KHBFPLKI@?6Trees?5with?5node?$CIs?$CJ?5on?5the?5same?5@
    6C7D4 ??_C@_0M@BJNAPKND@?$CFY?9?$CFm?9?$CFd?9?$CFT?$AA@
    6C7D4 ??_C@_0O@HDNEHMFI@?$DO?5has?5no?5text?$AA@
    6C7D4 ??_C@_0P@OJAGOIAD@Warning?3?5tag?5?$DM?$AA@
    6C7D4 ??_C@_13CIFDLIMG@?$AAw?$AA?$AA@
    6C7D4 ??_C@_13GKPPEALH@?$AAd?$AA?$AA@
    6C7D4 ??_C@_13KHDBCPJB@?$AAs?$AA?$AA@
    6C7D4 ??_C@_17CNPHIMPH@?$AA?$CF?$AAl?$AAs?$AA?$AA@
    6C7D4 ??_C@_1BAA@CKOBBKNE@?$AA?$CC?$AAc?$AAa?$AAn?$AAn?$AAo?$AAt?$AA?5?$AAs?$AAe?$AAe?$AAk?$AA?5?$AAs?$AAt?$AAr?$AAi?$AAn?$AAg?$AA?5?$AAi?$AAt?$AAe?$AAr?$AAa?$AAt?$AAo?$AAr?$AA?5?$AAb?$AAe?$AAc@
    6C7D4 ??_C@_1BAE@HEEJFKO@?$AAc?$AAa?$AAn?$AAn?$AAo?$AAt?$AA?5?$AAd?$AAe?$AAr?$AAe?$AAf?$AAe?$AAr?$AAe?$AAn?$AAc?$AAe?$AA?5?$AAs?$AAt?$AAr?$AAi?$AAn?$AAg?$AA?5?$AAi?$AAt?$AAe?$AAr?$AAa?$AAt@
    6C7D4 ??_C@_1BAO@BGLBIONH@?$AA?$CC?$AAc?$AAa?$AAn?$AAn?$AAo?$AAt?$AA?5?$AAd?$AAe?$AAr?$AAe?$AAf?$AAe?$AAr?$AAe?$AAn?$AAc?$AAe?$AA?5?$AAs?$AAt?$AAr?$AAi?$AAn?$AAg?$AA?5?$AAi?$AAt?$AAe?$AAr?$AAa@
    6C7D4 ??_C@_1BBO@PGCBDJJB@?$AAs?$AAt?$AAd?$AA?3?$AA?3?$AAv?$AAe?$AAc?$AAt?$AAo?$AAr?$AA?$DM?$AAs?$AAt?$AAr?$AAu?$AAc?$AAt?$AA?5?$AAs?$AAt?$AAd?$AA?3?$AA?3?$AA_?$AAT?$AAg?$AAt?$AA_?$AAs?$AAt?$AAa@
    6C7D4 ??_C@_1BGI@CFILNOOP@?$AAs?$AAt?$AAd?$AA?3?$AA?3?$AA_?$AAV?$AAe?$AAc?$AAt?$AAo?$AAr?$AA_?$AAc?$AAo?$AAn?$AAs?$AAt?$AA_?$AAi?$AAt?$AAe?$AAr?$AAa?$AAt?$AAo?$AAr?$AA?$DM?$AAc?$AAl?$AAa?$AAs@
    6C7D4 ??_C@_1BGO@ENKEMOHL@?$AAs?$AAt?$AAd?$AA?3?$AA?3?$AA_?$AAV?$AAe?$AAc?$AAt?$AAo?$AAr?$AA_?$AAc?$AAo?$AAn?$AAs?$AAt?$AA_?$AAi?$AAt?$AAe?$AAr?$AAa?$AAt?$AAo?$AAr?$AA?$DM?$AAc?$AAl?$AAa?$AAs@
    6C7D4 ??_C@_1BHA@HJAKPBPH@?$AAs?$AAt?$AAd?$AA?3?$AA?3?$AA_?$AAV?$AAe?$AAc?$AAt?$AAo?$AAr?$AA_?$AAc?$AAo?$AAn?$AAs?$AAt?$AA_?$AAi?$AAt?$AAe?$AAr?$AAa?$AAt?$AAo?$AAr?$AA?$DM?$AAc?$AAl?$AAa?$AAs@
    6C7D4 ??_C@_1BHA@MHIPJLE@?$AAs?$AAt?$AAd?$AA?3?$AA?3?$AA_?$AAV?$AAe?$AAc?$AAt?$AAo?$AAr?$AA_?$AAc?$AAo?$AAn?$AAs?$AAt?$AA_?$AAi?$AAt?$AAe?$AAr?$AAa?$AAt?$AAo?$AAr?$AA?$DM?$AAc?$AAl?$AAa?$AAs@
    6C7D4 ??_C@_1BLK@GBKABDEF@?$AAs?$AAt?$AAd?$AA?3?$AA?3?$AAv?$AAe?$AAc?$AAt?$AAo?$AAr?$AA?$DM?$AAc?$AAl?$AAa?$AAs?$AAs?$AA?5?$AAs?$AAt?$AAd?$AA?3?$AA?3?$AAb?$AAa?$AAs?$AAi?$AAc?$AA_?$AAs?$AAt?$AAr@
    6C7D4 ??_C@_1BO@NKFMJPA@?$AAs?$AAt?$AAd?$AA?3?$AA?3?$AA_?$AAA?$AAl?$AAl?$AAo?$AAc?$AAa?$AAt?$AAe?$AA?$AA@
    6C7D4 ??_C@_1CC@GKJLLHIM@?$AA?$CC?$AA_?$AAP?$AAt?$AAr?$AA?5?$AA?$CB?$AA?$DN?$AA?5?$AA0?$AA?$CC?$AA?5?$AA?$CG?$AA?$CG?$AA?5?$AA0?$AA?$AA@
    6C7D4 ??_C@_1CC@LOFJFFDB@?$AAs?$AAt?$AAd?$AA?3?$AA?3?$AA_?$AAD?$AAe?$AAa?$AAl?$AAl?$AAo?$AAc?$AAa?$AAt?$AAe?$AA?$AA@
    6C7D4 ??_C@_1CFG@FFIHNBD@?$AAs?$AAt?$AAd?$AA?3?$AA?3?$AA_?$AAT?$AAr?$AAe?$AAe?$AA_?$AAc?$AAo?$AAn?$AAs?$AAt?$AA_?$AAi?$AAt?$AAe?$AAr?$AAa?$AAt?$AAo?$AAr?$AA?$DM?$AAc?$AAl?$AAa?$AAs?$AAs?$AA?5@
    6C7D4 ??_C@_1CFG@FGJHCIBH@?$AAs?$AAt?$AAd?$AA?3?$AA?3?$AA_?$AAT?$AAr?$AAe?$AAe?$AA_?$AAc?$AAo?$AAn?$AAs?$AAt?$AA_?$AAi?$AAt?$AAe?$AAr?$AAa?$AAt?$AAo?$AAr?$AA?$DM?$AAc?$AAl?$AAa?$AAs?$AAs?$AA?5@
    6C7D4 ??_C@_1CFG@PGGKMBNC@?$AAs?$AAt?$AAd?$AA?3?$AA?3?$AA_?$AAT?$AAr?$AAe?$AAe?$AA_?$AAc?$AAo?$AAn?$AAs?$AAt?$AA_?$AAi?$AAt?$AAe?$AAr?$AAa?$AAt?$AAo?$AAr?$AA?$DM?$AAc?$AAl?$AAa?$AAs?$AAs?$AA?5@
    6C7D4 ??_C@_1CG@JNLFBNGN@?$AA?$CC?$AAi?$AAn?$AAv?$AAa?$AAl?$AAi?$AAd?$AA?5?$AAa?$AAr?$AAg?$AAu?$AAm?$AAe?$AAn?$AAt?$AA?$CC?$AA?$AA@
    6C7D4 ??_C@_1CG@LEJCKCBB@?$AAi?$AAn?$AAv?$AAa?$AAl?$AAi?$AAd?$AA?5?$AAc?$AAo?$AAm?$AAp?$AAa?$AAr?$AAa?$AAt?$AAo?$AAr?$AA?$AA@
    6C7D4 ??_C@_1CG@MDICLDJA@?$AAs?$AAt?$AAd?$AA?3?$AA?3?$AA_?$AAD?$AAe?$AAb?$AAu?$AAg?$AA_?$AAr?$AAa?$AAn?$AAg?$AAe?$AA2?$AA?$AA@
    6C7D4 ??_C@_1CI@JONCLBEJ@?$AAs?$AAt?$AAd?$AA?3?$AA?3?$AA_?$AAD?$AAe?$AAb?$AAu?$AAg?$AA_?$AAl?$AAt?$AA_?$AAp?$AAr?$AAe?$AAd?$AA?$AA@
    6C7D4 ??_C@_1CK@FGJPLFEF@?$AAs?$AAt?$AAd?$AA?3?$AA?3?$AA_?$AAB?$AAu?$AAf?$AA?$DM?$AAc?$AAh?$AAa?$AAr?$AA?$DO?$AA?3?$AA?3?$AA_?$AAA?$AAt?$AA?$AA@
    6C7D4 ??_C@_1CK@NDNHPKPI@?$AA?$CC?$AAi?$AAn?$AAv?$AAa?$AAl?$AAi?$AAd?$AA?5?$AAc?$AAo?$AAm?$AAp?$AAa?$AAr?$AAa?$AAt?$AAo?$AAr?$AA?$CC?$AA?$AA@
    6C7D4 ??_C@_1CO@DGLIKNHI@?$AAi?$AAn?$AAv?$AAa?$AAl?$AAi?$AAd?$AA?5?$AAi?$AAt?$AAe?$AAr?$AAa?$AAt?$AAo?$AAr?$AA?5?$AAr?$AAa?$AAn?$AAg?$AAe?$AA?$AA@
    6C7D4 ??_C@_1DC@CHPPODDE@?$AA?$CC?$AAi?$AAn?$AAv?$AAa?$AAl?$AAi?$AAd?$AA?5?$AAi?$AAt?$AAe?$AAr?$AAa?$AAt?$AAo?$AAr?$AA?5?$AAr?$AAa?$AAn?$AAg?$AAe?$AA?$CC?$AA?$AA@
    6C7D4 ??_C@_1DC@POOIKBAO@?$AAI?$AAT?$AAE?$AAR?$AAA?$AAT?$AAO?$AAR?$AA?5?$AAL?$AAI?$AAS?$AAT?$AA?5?$AAC?$AAO?$AAR?$AAR?$AAU?$AAP?$AAT?$AAE?$AAD?$AA?$CB?$AA?$AA@
    6C7D4 ??_C@_1DG@HGDKEBPG@?$AA?$CC?$AA_?$AAP?$AAt?$AAr?$AA_?$AAc?$AAo?$AAn?$AAt?$AAa?$AAi?$AAn?$AAe?$AAr?$AA?5?$AA?$CB?$AA?$DN?$AA?5?$AA0?$AA?$CC?$AA?5?$AA?$CG?$AA?$CG?$AA?5?$AA0?$AA?$AA@
    6C7D4 ??_C@_1DG@PLBPCAEM@?$AA?$CC?$AAI?$AAT?$AAE?$AAR?$AAA?$AAT?$AAO?$AAR?$AA?5?$AAL?$AAI?$AAS?$AAT?$AA?5?$AAC?$AAO?$AAR?$AAR?$AAU?$AAP?$AAT?$AAE?$AAD?$AA?$CB?$AA?$CC?$AA?$AA@
    6C7D4 ??_C@_1DM@GMPLOCPK@?$AAs?$AAt?$AAr?$AAi?$AAn?$AAg?$AA?5?$AAs?$AAu?$AAb?$AAs?$AAc?$AAr?$AAi?$AAp?$AAt?$AA?5?$AAo?$AAu?$AAt?$AA?5?$AAo?$AAf?$AA?5?$AAr?$AAa?$AAn?$AAg?$AAe?$AA?$AA@
    6C7D4 ??_C@_1DM@HINDPMBP@?$AAv?$AAe?$AAc?$AAt?$AAo?$AAr?$AA?5?$AAi?$AAt?$AAe?$AAr?$AAa?$AAt?$AAo?$AAr?$AAs?$AA?5?$AAi?$AAn?$AAc?$AAo?$AAm?$AAp?$AAa?$AAt?$AAi?$AAb?$AAl?$AAe?$AA?$AA@
    6C7D4 ??_C@_1DM@LHGCHCBA@?$AAv?$AAe?$AAc?$AAt?$AAo?$AAr?$AA?5?$AAs?$AAu?$AAb?$AAs?$AAc?$AAr?$AAi?$AAp?$AAt?$AA?5?$AAo?$AAu?$AAt?$AA?5?$AAo?$AAf?$AA?5?$AAr?$AAa?$AAn?$AAg?$AAe?$AA?$AA@
    6C7D4 ??_C@_1DO@CFEEPGGJ@?$AAm?$AAa?$AAp?$AA?1?$AAs?$AAe?$AAt?$AA?5?$AAi?$AAt?$AAe?$AAr?$AAa?$AAt?$AAo?$AAr?$AAs?$AA?5?$AAi?$AAn?$AAc?$AAo?$AAm?$AAp?$AAa?$AAt?$AAi?$AAb?$AAl?$AAe?$AA?$AA@
    6C7D4 ??_C@_1EA@DJDGNIII@?$AA?$CC?$AAv?$AAe?$AAc?$AAt?$AAo?$AAr?$AA?5?$AAi?$AAt?$AAe?$AAr?$AAa?$AAt?$AAo?$AAr?$AAs?$AA?5?$AAi?$AAn?$AAc?$AAo?$AAm?$AAp?$AAa?$AAt?$AAi?$AAb?$AAl?$AAe?$AA?$CC?$AA?$AA@
    6C7D4 ??_C@_1EA@LEKOKFNB@?$AA?$CC?$AAv?$AAe?$AAc?$AAt?$AAo?$AAr?$AA?5?$AAs?$AAu?$AAb?$AAs?$AAc?$AAr?$AAi?$AAp?$AAt?$AA?5?$AAo?$AAu?$AAt?$AA?5?$AAo?$AAf?$AA?5?$AAr?$AAa?$AAn?$AAg?$AAe?$AA?$CC?$AA?$AA@
    6C7D4 ??_C@_1EA@OADAPGGK@?$AA?$CC?$AAs?$AAt?$AAr?$AAi?$AAn?$AAg?$AA?5?$AAs?$AAu?$AAb?$AAs?$AAc?$AAr?$AAi?$AAp?$AAt?$AA?5?$AAo?$AAu?$AAt?$AA?5?$AAo?$AAf?$AA?5?$AAr?$AAa?$AAn?$AAg?$AAe?$AA?$CC?$AA?$AA@
    6C7D4 ??_C@_1EC@JLIDLCDH@?$AA?$CC?$AAm?$AAa?$AAp?$AA?1?$AAs?$AAe?$AAt?$AA?5?$AAi?$AAt?$AAe?$AAr?$AAa?$AAt?$AAo?$AAr?$AAs?$AA?5?$AAi?$AAn?$AAc?$AAo?$AAm?$AAp?$AAa?$AAt?$AAi?$AAb?$AAl?$AAe?$AA?$CC@
    6C7D4 ??_C@_1EE@EJDKCLKB@?$AAv?$AAe?$AAc?$AAt?$AAo?$AAr?$AA?5?$AAi?$AAt?$AAe?$AAr?$AAa?$AAt?$AAo?$AAr?$AA?5?$AAn?$AAo?$AAt?$AA?5?$AAi?$AAn?$AAc?$AAr?$AAe?$AAm?$AAe?$AAn?$AAt?$AAa?$AAb?$AAl@
    6C7D4 ??_C@_1EE@KLDMFDFL@?$AAs?$AAt?$AAd?$AA?3?$AA?3?$AA_?$AAI?$AAt?$AAe?$AAr?$AAa?$AAt?$AAo?$AAr?$AA_?$AAb?$AAa?$AAs?$AAe?$AA1?$AA2?$AA?3?$AA?3?$AA_?$AAO?$AAr?$AAp?$AAh?$AAa?$AAn?$AA_?$AAm@
    6C7D4 ??_C@_1EFG@HPDNAECC@?$AAs?$AAt?$AAd?$AA?3?$AA?3?$AA_?$AAT?$AAr?$AAe?$AAe?$AA?$DM?$AAc?$AAl?$AAa?$AAs?$AAs?$AA?5?$AAs?$AAt?$AAd?$AA?3?$AA?3?$AA_?$AAT?$AAm?$AAa?$AAp?$AA_?$AAt?$AAr?$AAa?$AAi@
    6C7D4 ??_C@_1EG@EHJFMBHJ@?$AAm?$AAa?$AAp?$AA?1?$AAs?$AAe?$AAt?$AA?5?$AAi?$AAt?$AAe?$AAr?$AAa?$AAt?$AAo?$AAr?$AA?5?$AAn?$AAo?$AAt?$AA?5?$AAi?$AAn?$AAc?$AAr?$AAe?$AAm?$AAe?$AAn?$AAt?$AAa?$AAb@
    6C7D4 ??_C@_1EG@FOHJJHAC@?$AAv?$AAe?$AAc?$AAt?$AAo?$AAr?$AA?5?$AAi?$AAt?$AAe?$AAr?$AAa?$AAt?$AAo?$AAr?$AA?5?$AAn?$AAo?$AAt?$AA?5?$AAd?$AAe?$AAr?$AAe?$AAf?$AAe?$AAr?$AAe?$AAn?$AAc?$AAa?$AAb@
    6C7D4 ??_C@_1EG@OKCGOALM@?$AAm?$AAa?$AAp?$AA?1?$AAs?$AAe?$AAt?$AA?5?$AAi?$AAt?$AAe?$AAr?$AAa?$AAt?$AAo?$AAr?$AA?5?$AAn?$AAo?$AAt?$AA?5?$AAd?$AAe?$AAc?$AAr?$AAe?$AAm?$AAe?$AAn?$AAt?$AAa?$AAb@
    6C7D4 ??_C@_1EGE@IHOCAPBL@?$AAs?$AAt?$AAd?$AA?3?$AA?3?$AA_?$AAT?$AAr?$AAe?$AAe?$AA?$DM?$AAc?$AAl?$AAa?$AAs?$AAs?$AA?5?$AAs?$AAt?$AAd?$AA?3?$AA?3?$AA_?$AAT?$AAm?$AAa?$AAp?$AA_?$AAt?$AAr?$AAa?$AAi@
    6C7D4 ??_C@_1EI@CADIPFJC@?$AAv?$AAe?$AAc?$AAt?$AAo?$AAr?$AA?$DM?$AAb?$AAo?$AAo?$AAl?$AA?$DO?$AA?5?$AAi?$AAt?$AAe?$AAr?$AAa?$AAt?$AAo?$AAr?$AAs?$AA?5?$AAi?$AAn?$AAc?$AAo?$AAm?$AAp?$AAa?$AAt?$AAi@
    6C7D4 ??_C@_1EI@DKOJGMLN@?$AAr?$AAe?$AAg?$AAe?$AAx?$AA?5?$AAb?$AAu?$AAf?$AAf?$AAe?$AAr?$AA?5?$AAs?$AAu?$AAb?$AAs?$AAc?$AAr?$AAi?$AAp?$AAt?$AA?5?$AAo?$AAu?$AAt?$AA?5?$AAo?$AAf?$AA?5?$AAr?$AAa@
    6C7D4 ??_C@_1EI@HCADPHFC@?$AA?$CC?$AAv?$AAe?$AAc?$AAt?$AAo?$AAr?$AA?5?$AAi?$AAt?$AAe?$AAr?$AAa?$AAt?$AAo?$AAr?$AA?5?$AAn?$AAo?$AAt?$AA?5?$AAi?$AAn?$AAc?$AAr?$AAe?$AAm?$AAe?$AAn?$AAt?$AAa?$AAb@
    6C7D4 ??_C@_1EI@HGIDLLCM@?$AAv?$AAe?$AAc?$AAt?$AAo?$AAr?$AA?5?$AAe?$AAr?$AAa?$AAs?$AAe?$AA?5?$AAi?$AAt?$AAe?$AAr?$AAa?$AAt?$AAo?$AAr?$AA?5?$AAo?$AAu?$AAt?$AAs?$AAi?$AAd?$AAe?$AA?5?$AAr?$AAa@
    6C7D4 ??_C@_1EK@BCPDGOMC@?$AA?$CC?$AAm?$AAa?$AAp?$AA?1?$AAs?$AAe?$AAt?$AA?5?$AAi?$AAt?$AAe?$AAr?$AAa?$AAt?$AAo?$AAr?$AA?5?$AAn?$AAo?$AAt?$AA?5?$AAi?$AAn?$AAc?$AAr?$AAe?$AAm?$AAe?$AAn?$AAt?$AAa@
    6C7D4 ??_C@_1EK@BGCEAKDC@?$AAc?$AAa?$AAn?$AAn?$AAo?$AAt?$AA?5?$AAs?$AAe?$AAe?$AAk?$AA?5?$AAs?$AAt?$AAr?$AAi?$AAn?$AAg?$AA?5?$AAi?$AAt?$AAe?$AAr?$AAa?$AAt?$AAo?$AAr?$AA?5?$AAp?$AAa?$AAs?$AAt@
    6C7D4 ??_C@_1EK@EEHFMKDC@?$AAv?$AAe?$AAc?$AAt?$AAo?$AAr?$AA?5?$AAi?$AAn?$AAs?$AAe?$AAr?$AAt?$AA?5?$AAi?$AAt?$AAe?$AAr?$AAa?$AAt?$AAo?$AAr?$AA?5?$AAo?$AAu?$AAt?$AAs?$AAi?$AAd?$AAe?$AA?5?$AAr@
    6C7D4 ??_C@_1EK@FMDACDNC@?$AA?$CC?$AAv?$AAe?$AAc?$AAt?$AAo?$AAr?$AA?5?$AAi?$AAt?$AAe?$AAr?$AAa?$AAt?$AAo?$AAr?$AA?5?$AAn?$AAo?$AAt?$AA?5?$AAd?$AAe?$AAr?$AAe?$AAf?$AAe?$AAr?$AAe?$AAn?$AAc?$AAa@
    6C7D4 ??_C@_1EK@OIBHPACE@?$AA?$CC?$AAm?$AAa?$AAp?$AA?1?$AAs?$AAe?$AAt?$AA?5?$AAi?$AAt?$AAe?$AAr?$AAa?$AAt?$AAo?$AAr?$AA?5?$AAn?$AAo?$AAt?$AA?5?$AAd?$AAe?$AAc?$AAr?$AAe?$AAm?$AAe?$AAn?$AAt?$AAa@
    6C7D4 ??_C@_1EK@PPDBPCAN@?$AAm?$AAa?$AAp?$AA?1?$AAs?$AAe?$AAt?$AA?5?$AAe?$AAr?$AAa?$AAs?$AAe?$AA?5?$AAi?$AAt?$AAe?$AAr?$AAa?$AAt?$AAo?$AAr?$AA?5?$AAo?$AAu?$AAt?$AAs?$AAi?$AAd?$AAe?$AA?5?$AAr@
    6C7D4 ??_C@_1EM@BEMPOGMM@?$AA?$CC?$AAv?$AAe?$AAc?$AAt?$AAo?$AAr?$AA?5?$AAe?$AAr?$AAa?$AAs?$AAe?$AA?5?$AAi?$AAt?$AAe?$AAr?$AAa?$AAt?$AAo?$AAr?$AA?5?$AAo?$AAu?$AAt?$AAs?$AAi?$AAd?$AAe?$AA?5?$AAr@
    6C7D4 ??_C@_1EM@FKAOCOMF@?$AAv?$AAe?$AAc?$AAt?$AAo?$AAr?$AA?5?$AAi?$AAt?$AAe?$AAr?$AAa?$AAt?$AAo?$AAr?$AA?5?$AA?$CL?$AA?5?$AAo?$AAf?$AAf?$AAs?$AAe?$AAt?$AA?5?$AAo?$AAu?$AAt?$AA?5?$AAo?$AAf?$AA?5@
    6C7D4 ??_C@_1EM@GECCFGIK@?$AA?$CC?$AAr?$AAe?$AAg?$AAe?$AAx?$AA?5?$AAb?$AAu?$AAf?$AAf?$AAe?$AAr?$AA?5?$AAs?$AAu?$AAb?$AAs?$AAc?$AAr?$AAi?$AAp?$AAt?$AA?5?$AAo?$AAu?$AAt?$AA?5?$AAo?$AAf?$AA?5?$AAr@
    6C7D4 ??_C@_1EM@MHOKKPFH@?$AAm?$AAa?$AAp?$AA?1?$AAs?$AAe?$AAt?$AA?5?$AAi?$AAn?$AAs?$AAe?$AAr?$AAt?$AA?5?$AAi?$AAt?$AAe?$AAr?$AAa?$AAt?$AAo?$AAr?$AA?5?$AAo?$AAu?$AAt?$AAs?$AAi?$AAd?$AAe?$AA?5@
    6C7D4 ??_C@_1EM@PPONFPNG@?$AA?$CC?$AAv?$AAe?$AAc?$AAt?$AAo?$AAr?$AA?$DM?$AAb?$AAo?$AAo?$AAl?$AA?$DO?$AA?5?$AAi?$AAt?$AAe?$AAr?$AAa?$AAt?$AAo?$AAr?$AAs?$AA?5?$AAi?$AAn?$AAc?$AAo?$AAm?$AAp?$AAa?$AAt@
    6C7D4 ??_C@_1EO@CEDAEPC@?$AA?$CC?$AAm?$AAa?$AAp?$AA?1?$AAs?$AAe?$AAt?$AA?5?$AAe?$AAr?$AAa?$AAs?$AAe?$AA?5?$AAi?$AAt?$AAe?$AAr?$AAa?$AAt?$AAo?$AAr?$AA?5?$AAo?$AAu?$AAt?$AAs?$AAi?$AAd?$AAe?$AA?5@
    6C7D4 ??_C@_1EO@HCJPCNBE@?$AA?$CC?$AAv?$AAe?$AAc?$AAt?$AAo?$AAr?$AA?5?$AAi?$AAn?$AAs?$AAe?$AAr?$AAt?$AA?5?$AAi?$AAt?$AAe?$AAr?$AAa?$AAt?$AAo?$AAr?$AA?5?$AAo?$AAu?$AAt?$AAs?$AAi?$AAd?$AAe?$AA?5@
    6C7D4 ??_C@_1EO@OJPLLNPF@?$AA?$CC?$AAc?$AAa?$AAn?$AAn?$AAo?$AAt?$AA?5?$AAs?$AAe?$AAe?$AAk?$AA?5?$AAs?$AAt?$AAr?$AAi?$AAn?$AAg?$AA?5?$AAi?$AAt?$AAe?$AAr?$AAa?$AAt?$AAo?$AAr?$AA?5?$AAp?$AAa?$AAs@
    6C7D4 ??_C@_1FA@GAHMJBDC@?$AAv?$AAe?$AAc?$AAt?$AAo?$AAr?$AA?$DM?$AAb?$AAo?$AAo?$AAl?$AA?$DO?$AA?5?$AAi?$AAt?$AAe?$AAr?$AAa?$AAt?$AAo?$AAr?$AA?5?$AAn?$AAo?$AAt?$AA?5?$AAi?$AAn?$AAc?$AAr?$AAe?$AAm@
    6C7D4 ??_C@_1FA@HNFOKDLB@?$AA?$CC?$AAm?$AAa?$AAp?$AA?1?$AAs?$AAe?$AAt?$AA?5?$AAi?$AAn?$AAs?$AAe?$AAr?$AAt?$AA?5?$AAi?$AAt?$AAe?$AAr?$AAa?$AAt?$AAo?$AAr?$AA?5?$AAo?$AAu?$AAt?$AAs?$AAi?$AAd?$AAe@
    6C7D4 ??_C@_1FA@KEJGGFHL@?$AA?$CC?$AAv?$AAe?$AAc?$AAt?$AAo?$AAr?$AA?5?$AAi?$AAt?$AAe?$AAr?$AAa?$AAt?$AAo?$AAr?$AA?5?$AA?$CL?$AA?5?$AAo?$AAf?$AAf?$AAs?$AAe?$AAt?$AA?5?$AAo?$AAu?$AAt?$AA?5?$AAo?$AAf@
    6C7D4 ??_C@_1FA@MNMPLAPH@?$AAv?$AAe?$AAc?$AAt?$AAo?$AAr?$AA?$DM?$AAb?$AAo?$AAo?$AAl?$AA?$DO?$AA?5?$AAi?$AAt?$AAe?$AAr?$AAa?$AAt?$AAo?$AAr?$AA?5?$AAn?$AAo?$AAt?$AA?5?$AAd?$AAe?$AAc?$AAr?$AAe?$AAm@
    6C7D4 ??_C@_1FC@BLNGNFIG@?$AAc?$AAa?$AAn?$AAn?$AAo?$AAt?$AA?5?$AAs?$AAe?$AAe?$AAk?$AA?5?$AAs?$AAt?$AAr?$AAi?$AAn?$AAg?$AA?5?$AAi?$AAt?$AAe?$AAr?$AAa?$AAt?$AAo?$AAr?$AA?5?$AAb?$AAe?$AAf?$AAo@
    6C7D4 ??_C@_1FC@CPKBDNAP@?$AAv?$AAe?$AAc?$AAt?$AAo?$AAr?$AA?$DM?$AAb?$AAo?$AAo?$AAl?$AA?$DO?$AA?5?$AAi?$AAt?$AAe?$AAr?$AAa?$AAt?$AAo?$AAr?$AA?5?$AAn?$AAo?$AAt?$AA?5?$AAd?$AAe?$AAr?$AAe?$AAf?$AAe@
    6C7D4 ??_C@_1FE@GBLCDDEN@?$AA?$CC?$AAv?$AAe?$AAc?$AAt?$AAo?$AAr?$AA?$DM?$AAb?$AAo?$AAo?$AAl?$AA?$DO?$AA?5?$AAi?$AAt?$AAe?$AAr?$AAa?$AAt?$AAo?$AAr?$AA?5?$AAn?$AAo?$AAt?$AA?5?$AAi?$AAn?$AAc?$AAr?$AAe@
    6C7D4 ??_C@_1FE@JLFGKNKL@?$AA?$CC?$AAv?$AAe?$AAc?$AAt?$AAo?$AAr?$AA?$DM?$AAb?$AAo?$AAo?$AAl?$AA?$DO?$AA?5?$AAi?$AAt?$AAe?$AAr?$AAa?$AAt?$AAo?$AAr?$AA?5?$AAn?$AAo?$AAt?$AA?5?$AAd?$AAe?$AAc?$AAr?$AAe@
    6C7D4 ??_C@_1FE@PFCOPOEP@?$AAv?$AAe?$AAc?$AAt?$AAo?$AAr?$AA?$DM?$AAb?$AAo?$AAo?$AAl?$AA?$DO?$AA?5?$AAe?$AAr?$AAa?$AAs?$AAe?$AA?5?$AAi?$AAt?$AAe?$AAr?$AAa?$AAt?$AAo?$AAr?$AA?5?$AAo?$AAu?$AAt?$AAs@
    6C7D4 ??_C@_1FG@EJPDEFGL@?$AA?$CC?$AAc?$AAa?$AAn?$AAn?$AAo?$AAt?$AA?5?$AAs?$AAe?$AAe?$AAk?$AA?5?$AAs?$AAt?$AAr?$AAi?$AAn?$AAg?$AA?5?$AAi?$AAt?$AAe?$AAr?$AAa?$AAt?$AAo?$AAr?$AA?5?$AAb?$AAe?$AAf@
    6C7D4 ??_C@_1FG@MBDMEOE@?$AAv?$AAe?$AAc?$AAt?$AAo?$AAr?$AA?$DM?$AAb?$AAo?$AAo?$AAl?$AA?$DO?$AA?5?$AAi?$AAn?$AAs?$AAe?$AAr?$AAt?$AA?5?$AAi?$AAt?$AAe?$AAr?$AAa?$AAt?$AAo?$AAr?$AA?5?$AAo?$AAu?$AAt@
    6C7D4 ??_C@_1FG@NGDDIFE@?$AA?$CC?$AAv?$AAe?$AAc?$AAt?$AAo?$AAr?$AA?$DM?$AAb?$AAo?$AAo?$AAl?$AA?$DO?$AA?5?$AAi?$AAt?$AAe?$AAr?$AAa?$AAt?$AAo?$AAr?$AA?5?$AAn?$AAo?$AAt?$AA?5?$AAd?$AAe?$AAr?$AAe?$AAf@
    6C7D4 ??_C@_1FI@PDHDEBLO@?$AA?$CC?$AAv?$AAe?$AAc?$AAt?$AAo?$AAr?$AA?$DM?$AAb?$AAo?$AAo?$AAl?$AA?$DO?$AA?5?$AAe?$AAr?$AAa?$AAs?$AAe?$AA?5?$AAi?$AAt?$AAe?$AAr?$AAa?$AAt?$AAo?$AAr?$AA?5?$AAo?$AAu?$AAt@
    6C7D4 ??_C@_1FK@CHCEOHJH@?$AA?$CC?$AAv?$AAe?$AAc?$AAt?$AAo?$AAr?$AA?$DM?$AAb?$AAo?$AAo?$AAl?$AA?$DO?$AA?5?$AAi?$AAn?$AAs?$AAe?$AAr?$AAt?$AA?5?$AAi?$AAt?$AAe?$AAr?$AAa?$AAt?$AAo?$AAr?$AA?5?$AAo?$AAu@
    6C7D4 ??_C@_1FM@PHAGAKPF@?$AAc?$AAa?$AAn?$AAn?$AAo?$AAt?$AA?5?$AAs?$AAe?$AAe?$AAk?$AA?5?$AAv?$AAa?$AAl?$AAu?$AAe?$AA?9?$AAi?$AAn?$AAi?$AAt?$AAi?$AAa?$AAl?$AAi?$AAz?$AAe?$AAd?$AA?5?$AAs?$AAt@
    6C7D4 ??_C@_1GA@DPDCOHLH@?$AA?$CC?$AAc?$AAa?$AAn?$AAn?$AAo?$AAt?$AA?5?$AAs?$AAe?$AAe?$AAk?$AA?5?$AAv?$AAa?$AAl?$AAu?$AAe?$AA?9?$AAi?$AAn?$AAi?$AAt?$AAi?$AAa?$AAl?$AAi?$AAz?$AAe?$AAd?$AA?5?$AAs@
    6C7D4 ??_C@_1GK@BODEJLIN@?$AAs?$AAt?$AAd?$AA?3?$AA?3?$AAv?$AAe?$AAc?$AAt?$AAo?$AAr?$AA?$DM?$AAb?$AAo?$AAo?$AAl?$AA?0?$AAc?$AAl?$AAa?$AAs?$AAs?$AA?5?$AAs?$AAt?$AAd?$AA?3?$AA?3?$AAa?$AAl?$AAl?$AAo@
    6C7D4 ??_C@_1GK@EPFFCEAH@?$AAc?$AAa?$AAn?$AAn?$AAo?$AAt?$AA?5?$AAd?$AAe?$AAr?$AAe?$AAf?$AAe?$AAr?$AAe?$AAn?$AAc?$AAe?$AA?5?$AAv?$AAa?$AAl?$AAu?$AAe?$AA?9?$AAi?$AAn?$AAi?$AAt?$AAi?$AAa?$AAl@
    6C7D4 ??_C@_1GO@PNALIMBD@?$AA?$CC?$AAc?$AAa?$AAn?$AAn?$AAo?$AAt?$AA?5?$AAd?$AAe?$AAr?$AAe?$AAf?$AAe?$AAr?$AAe?$AAn?$AAc?$AAe?$AA?5?$AAv?$AAa?$AAl?$AAu?$AAe?$AA?9?$AAi?$AAn?$AAi?$AAt?$AAi?$AAa@
    6C7D4 ??_C@_1HC@EBMIINGH@?$AAs?$AAt?$AAd?$AA?3?$AA?3?$AAv?$AAe?$AAc?$AAt?$AAo?$AAr?$AA?$DM?$AAb?$AAo?$AAo?$AAl?$AA?0?$AAc?$AAl?$AAa?$AAs?$AAs?$AA?5?$AAs?$AAt?$AAd?$AA?3?$AA?3?$AAa?$AAl?$AAl?$AAo@
    6C7D4 ??_C@_1IK@JDPLIGFN@?$AAs?$AAt?$AAd?$AA?3?$AA?3?$AAv?$AAe?$AAc?$AAt?$AAo?$AAr?$AA?$DM?$AAu?$AAn?$AAs?$AAi?$AAg?$AAn?$AAe?$AAd?$AA?5?$AAi?$AAn?$AAt?$AA?0?$AAc?$AAl?$AAa?$AAs?$AAs?$AA?5?$AAs@
    6C7D4 ??_C@_1JC@EFBCGKIE@?$AAs?$AAt?$AAr?$AAi?$AAn?$AAg?$AA?5?$AAi?$AAt?$AAe?$AAr?$AAa?$AAt?$AAo?$AAr?$AAs?$AA?5?$AAi?$AAn?$AAc?$AAo?$AAm?$AAp?$AAa?$AAt?$AAi?$AAb?$AAl?$AAe?$AA?5?$AA?$CI?$AAe@
    6C7D4 ??_C@_1JG@ILDNFCDK@?$AAs?$AAt?$AAd?$AA?3?$AA?3?$AAv?$AAe?$AAc?$AAt?$AAo?$AAr?$AA?$DM?$AAu?$AAn?$AAs?$AAi?$AAg?$AAn?$AAe?$AAd?$AA?5?$AAi?$AAn?$AAt?$AA?0?$AAc?$AAl?$AAa?$AAs?$AAs?$AA?5?$AAs@
    6C7D4 ??_C@_1JM@EIPCMFMM@?$AA?$CC?$AAs?$AAt?$AAr?$AAi?$AAn?$AAg?$AA?5?$AAi?$AAt?$AAe?$AAr?$AAa?$AAt?$AAo?$AAr?$AAs?$AA?5?$AAi?$AAn?$AAc?$AAo?$AAm?$AAp?$AAa?$AAt?$AAi?$AAb?$AAl?$AAe?$AA?5?$AA?$CI@
    6C7D4 ??_C@_1KK@GJPIMLCF@?$AAc?$AAa?$AAn?$AAn?$AAo?$AAt?$AA?5?$AAd?$AAe?$AAr?$AAe?$AAf?$AAe?$AAr?$AAe?$AAn?$AAc?$AAe?$AA?5?$AAs?$AAt?$AAr?$AAi?$AAn?$AAg?$AA?5?$AAi?$AAt?$AAe?$AAr?$AAa?$AAt@
    6C7D4 ??_C@_1KO@CMPBFHAM@?$AA?$CC?$AAc?$AAa?$AAn?$AAn?$AAo?$AAt?$AA?5?$AAd?$AAe?$AAr?$AAe?$AAf?$AAe?$AAr?$AAe?$AAn?$AAc?$AAe?$AA?5?$AAs?$AAt?$AAr?$AAi?$AAn?$AAg?$AA?5?$AAi?$AAt?$AAe?$AAr?$AAa@
    6C7D4 ??_C@_1LG@CHICOEJ@?$AAs?$AAt?$AAd?$AA?3?$AA?3?$AA_?$AAV?$AAb?$AA_?$AAr?$AAe?$AAf?$AAe?$AAr?$AAe?$AAn?$AAc?$AAe?$AA?$DM?$AAs?$AAt?$AAr?$AAu?$AAc?$AAt?$AA?5?$AAs?$AAt?$AAd?$AA?3?$AA?3?$AA_@
    6C7D4 ??_C@_1LK@CMPKBEP@?$AAs?$AAt?$AAd?$AA?3?$AA?3?$AA_?$AAV?$AAb?$AA_?$AAc?$AAo?$AAn?$AAs?$AAt?$AA_?$AAi?$AAt?$AAe?$AAr?$AAa?$AAt?$AAo?$AAr?$AA?$DM?$AAs?$AAt?$AAr?$AAu?$AAc?$AAt?$AA?5?$AAs@
    6C7D4 ??_C@_1LK@PDANEEFN@?$AAs?$AAt?$AAd?$AA?3?$AA?3?$AA_?$AAV?$AAb?$AA_?$AAc?$AAo?$AAn?$AAs?$AAt?$AA_?$AAi?$AAt?$AAe?$AAr?$AAa?$AAt?$AAo?$AAr?$AA?$DM?$AAs?$AAt?$AAr?$AAu?$AAc?$AAt?$AA?5?$AAs@
    6C7D4 ??_C@_1LO@NPPEKPAI@?$AAs?$AAt?$AAd?$AA?3?$AA?3?$AAb?$AAa?$AAs?$AAi?$AAc?$AA_?$AAs?$AAt?$AAr?$AAi?$AAn?$AAg?$AA?$DM?$AAc?$AAh?$AAa?$AAr?$AA?0?$AAs?$AAt?$AAr?$AAu?$AAc?$AAt?$AA?5?$AAs?$AAt@
    6C7D4 ??_C@_1M@BPFMAOAO@?$AAp?$AAu?$AAn?$AAc?$AAt?$AA?$AA@
    6C7D4 ??_C@_1M@DHGLHBMI@?$AAa?$AAl?$AAp?$AAh?$AAa?$AA?$AA@
    6C7D4 ??_C@_1M@EJAAJBPE@?$AAb?$AAl?$AAa?$AAn?$AAk?$AA?$AA@
    6C7D4 ??_C@_1M@ELNLAPLA@?$AAp?$AAr?$AAi?$AAn?$AAt?$AA?$AA@
    6C7D4 ??_C@_1M@JDAEIBKG@?$AAd?$AAi?$AAg?$AAi?$AAt?$AA?$AA@
    6C7D4 ??_C@_1M@KLMEPMCM@?$AAa?$AAl?$AAn?$AAu?$AAm?$AA?$AA@
    6C7D4 ??_C@_1M@LGAECJJD@?$AAl?$AAo?$AAw?$AAe?$AAr?$AA?$AA@
    6C7D4 ??_C@_1M@LMIMILA@?$AAc?$AAn?$AAt?$AAr?$AAl?$AA?$AA@
    6C7D4 ??_C@_1M@LPGODFOM@?$AAs?$AAp?$AAa?$AAc?$AAe?$AA?$AA@
    6C7D4 ??_C@_1M@MDKNJLLK@?$AAg?$AAr?$AAa?$AAp?$AAh?$AA?$AA@
    6C7D4 ??_C@_1M@PLNFCNIC@?$AAu?$AAp?$AAp?$AAe?$AAr?$AA?$AA@
    6C7D4 ??_C@_1MA@BDELDFHB@?$AAs?$AAt?$AAd?$AA?3?$AA?3?$AA_?$AAS?$AAt?$AAr?$AAi?$AAn?$AAg?$AA_?$AAc?$AAo?$AAn?$AAs?$AAt?$AA_?$AAi?$AAt?$AAe?$AAr?$AAa?$AAt?$AAo?$AAr?$AA?$DM?$AAc?$AAl?$AAa?$AAs@
    6C7D4 ??_C@_1MA@IEHFCMBH@?$AAs?$AAt?$AAd?$AA?3?$AA?3?$AA_?$AAV?$AAb?$AA_?$AAc?$AAo?$AAn?$AAs?$AAt?$AA_?$AAi?$AAt?$AAe?$AAr?$AAa?$AAt?$AAo?$AAr?$AA?$DM?$AAs?$AAt?$AAr?$AAu?$AAc?$AAt?$AA?5?$AAs@
    6C7D4 ??_C@_1MG@GDGHDIKC@?$AAs?$AAt?$AAd?$AA?3?$AA?3?$AA_?$AAS?$AAt?$AAr?$AAi?$AAn?$AAg?$AA_?$AAc?$AAo?$AAn?$AAs?$AAt?$AA_?$AAi?$AAt?$AAe?$AAr?$AAa?$AAt?$AAo?$AAr?$AA?$DM?$AAc?$AAl?$AAa?$AAs@
    6C7D4 ??_C@_1MG@JDAEDHMO@?$AAs?$AAt?$AAd?$AA?3?$AA?3?$AAv?$AAe?$AAc?$AAt?$AAo?$AAr?$AA?$DM?$AAs?$AAt?$AAr?$AAu?$AAc?$AAt?$AA?5?$AAs?$AAt?$AAd?$AA?3?$AA?3?$AA_?$AAL?$AAo?$AAo?$AAp?$AA_?$AAv?$AAa@
    6C7D4 ??_C@_1MI@HNCOPGEL@?$AAs?$AAt?$AAd?$AA?3?$AA?3?$AA_?$AAS?$AAt?$AAr?$AAi?$AAn?$AAg?$AA_?$AAc?$AAo?$AAn?$AAs?$AAt?$AA_?$AAi?$AAt?$AAe?$AAr?$AAa?$AAt?$AAo?$AAr?$AA?$DM?$AAc?$AAl?$AAa?$AAs@
    6C7D4 ??_C@_1MM@CLNCFHGA@?$AAc?$AA?3?$AA?2?$AAp?$AAr?$AAo?$AAg?$AAr?$AAa?$AAm?$AA?5?$AAf?$AAi?$AAl?$AAe?$AAs?$AA?5?$AA?$CI?$AAx?$AA8?$AA6?$AA?$CJ?$AA?2?$AAm?$AAi?$AAc?$AAr?$AAo?$AAs?$AAo?$AAf?$AAt@
    6C7D4 ??_C@_1MM@JPKBOFNK@?$AAc?$AA?3?$AA?2?$AAp?$AAr?$AAo?$AAg?$AAr?$AAa?$AAm?$AA?5?$AAf?$AAi?$AAl?$AAe?$AAs?$AA?5?$AA?$CI?$AAx?$AA8?$AA6?$AA?$CJ?$AA?2?$AAm?$AAi?$AAc?$AAr?$AAo?$AAs?$AAo?$AAf?$AAt@
    6C7D4 ??_C@_1MO@MOPCOMJD@?$AAc?$AA?3?$AA?2?$AAp?$AAr?$AAo?$AAg?$AAr?$AAa?$AAm?$AA?5?$AAf?$AAi?$AAl?$AAe?$AAs?$AA?5?$AA?$CI?$AAx?$AA8?$AA6?$AA?$CJ?$AA?2?$AAm?$AAi?$AAc?$AAr?$AAo?$AAs?$AAo?$AAf?$AAt@
    6C7D4 ??_C@_1MO@OPEBMAMC@?$AAc?$AA?3?$AA?2?$AAp?$AAr?$AAo?$AAg?$AAr?$AAa?$AAm?$AA?5?$AAf?$AAi?$AAl?$AAe?$AAs?$AA?5?$AA?$CI?$AAx?$AA8?$AA6?$AA?$CJ?$AA?2?$AAm?$AAi?$AAc?$AAr?$AAo?$AAs?$AAo?$AAf?$AAt@
    6C7D4 ??_C@_1NA@LNEOGJKF@?$AAc?$AA?3?$AA?2?$AAp?$AAr?$AAo?$AAg?$AAr?$AAa?$AAm?$AA?5?$AAf?$AAi?$AAl?$AAe?$AAs?$AA?5?$AA?$CI?$AAx?$AA8?$AA6?$AA?$CJ?$AA?2?$AAm?$AAi?$AAc?$AAr?$AAo?$AAs?$AAo?$AAf?$AAt@
    6C7D4 ??_C@_1NC@ELHHIENF@?$AAc?$AA?3?$AA?2?$AAp?$AAr?$AAo?$AAg?$AAr?$AAa?$AAm?$AA?5?$AAf?$AAi?$AAl?$AAe?$AAs?$AA?5?$AA?$CI?$AAx?$AA8?$AA6?$AA?$CJ?$AA?2?$AAm?$AAi?$AAc?$AAr?$AAo?$AAs?$AAo?$AAf?$AAt@
    6C7D4 ??_C@_1NC@LGJMFBHG@?$AAc?$AA?3?$AA?2?$AAp?$AAr?$AAo?$AAg?$AAr?$AAa?$AAm?$AA?5?$AAf?$AAi?$AAl?$AAe?$AAs?$AA?5?$AA?$CI?$AAx?$AA8?$AA6?$AA?$CJ?$AA?2?$AAm?$AAi?$AAc?$AAr?$AAo?$AAs?$AAo?$AAf?$AAt@
    6C7D4 ??_C@_1NE@HIBBAKHC@?$AAc?$AA?3?$AA?2?$AAp?$AAr?$AAo?$AAg?$AAr?$AAa?$AAm?$AA?5?$AAf?$AAi?$AAl?$AAe?$AAs?$AA?5?$AA?$CI?$AAx?$AA8?$AA6?$AA?$CJ?$AA?2?$AAm?$AAi?$AAc?$AAr?$AAo?$AAs?$AAo?$AAf?$AAt@
    6C7D4 ??_C@_1NI@FGKEJBDM@?$AAs?$AAt?$AAd?$AA?3?$AA?3?$AA_?$AAV?$AAe?$AAc?$AAt?$AAo?$AAr?$AA_?$AAc?$AAo?$AAn?$AAs?$AAt?$AA_?$AAi?$AAt?$AAe?$AAr?$AAa?$AAt?$AAo?$AAr?$AA?$DM?$AAc?$AAl?$AAa?$AAs@
    6C7D4 ??_C@_1O@OAFMJDHN@?$AAx?$AAd?$AAi?$AAg?$AAi?$AAt?$AA?$AA@
    6C7D4 ??_C@_1PA@LODBIMGG@?$AAs?$AAt?$AAd?$AA?3?$AA?3?$AAv?$AAe?$AAc?$AAt?$AAo?$AAr?$AA?$DM?$AAc?$AAl?$AAa?$AAs?$AAs?$AA?5?$AAs?$AAt?$AAd?$AA?3?$AA?3?$AAs?$AAu?$AAb?$AA_?$AAm?$AAa?$AAt?$AAc?$AAh@
    6C7D4 ??_C@_1PG@GALDDHKE@?$AAc?$AAa?$AAn?$AAn?$AAo?$AAt?$AA?5?$AAs?$AAe?$AAe?$AAk?$AA?5?$AAs?$AAt?$AAr?$AAi?$AAn?$AAg?$AA?5?$AAi?$AAt?$AAe?$AAr?$AAa?$AAt?$AAo?$AAr?$AA?5?$AAb?$AAe?$AAc?$AAa@
    6C7D4 ??_D?$basic_ifstream@DU?$char_traits@D@std@@@std@@QEAAXXZ
    6C7D4 ??_D?$basic_ostringstream@DU?$char_traits@D@std@@V?$allocator@D@2@@std@@QEAAXXZ
    6C7D4 ??_E?$basic_ifstream@DU?$char_traits@D@std@@@std@@$4PPPPPPPM@A@EAAPEAXI@Z
    6C7D4 ??_E?$basic_ostringstream@DU?$char_traits@D@std@@V?$allocator@D@2@@std@@$4PPPPPPPM@A@EAAPEAXI@Z
    6C7D4 ??_G?$Tree@V?$basic_string@DU?$char_traits@D@std@@V?$allocator@D@2@@std@@V12@@@QEAAPEAXI@Z
    6C7D4 ??_G?$_Buf@D@std@@QEAAPEAXI@Z
    6C7D4 ??_G?$_Node_class@DV?$regex_traits@D@std@@@std@@UEAAPEAXI@Z
    6C7D4 ??_G?$_Node_str@D@std@@UEAAPEAXI@Z
    6C7D4 ??_G?$_Sequence@D@std@@QEAAPEAXI@Z
    6C7D4 ??_G?$basic_filebuf@DU?$char_traits@D@std@@@std@@UEAAPEAXI@Z
    6C7D4 ??_G?$basic_ifstream@DU?$char_traits@D@std@@@std@@UEAAPEAXI@Z
    6C7D4 ??_G?$basic_ostringstream@DU?$char_traits@D@std@@V?$allocator@D@2@@std@@UEAAPEAXI@Z
    6C7D4 ??_G?$basic_string@DU?$char_traits@D@std@@V?$allocator@D@2@@std@@QEAAPEAXI@Z
    6C7D4 ??_G?$basic_stringbuf@DU?$char_traits@D@std@@V?$allocator@D@2@@std@@UEAAPEAXI@Z
    6C7D4 ??_G?$collate@D@std@@MEAAPEAXI@Z
    6C7D4 ??_G?$pair@$$CBV?$basic_string@DU?$char_traits@D@std@@V?$allocator@D@2@@std@@V12@@std@@QEAAPEAXI@Z
    6C7D4 ??_G_Node_assert@std@@UEAAPEAXI@Z
    6C7D4 ??_G_Node_back@std@@UEAAPEAXI@Z
    6C7D4 ??_G_Node_base@std@@UEAAPEAXI@Z
    6C7D4 ??_G_Node_capture@std@@UEAAPEAXI@Z
    6C7D4 ??_G_Node_end_group@std@@UEAAPEAXI@Z
    6C7D4 ??_G_Node_end_rep@std@@UEAAPEAXI@Z
    6C7D4 ??_G_Node_endif@std@@UEAAPEAXI@Z
    6C7D4 ??_G_Node_if@std@@UEAAPEAXI@Z
    6C7D4 ??_G_Node_rep@std@@UEAAPEAXI@Z
    6C7D4 ??_G_Root_node@std@@UEAAPEAXI@Z
    6C7D4 ??_Gbad_cast@std@@UEAAPEAXI@Z
    6C7D4 ??_Gexception@std@@UEAAPEAXI@Z
    6C7D4 ??_R0?AU_Crt_new_delete@std@@@8
    6C7D4 ??_R0?AV?$_Iosb@H@std@@@8
    6C7D4 ??_R0?AV?$_Node_class@DV?$regex_traits@D@std@@@std@@@8
    6C7D4 ??_R0?AV?$_Node_str@D@std@@@8
    6C7D4 ??_R0?AV?$basic_filebuf@DU?$char_traits@D@std@@@std@@@8
    6C7D4 ??_R0?AV?$basic_ifstream@DU?$char_traits@D@std@@@std@@@8
    6C7D4 ??_R0?AV?$basic_ios@DU?$char_traits@D@std@@@std@@@8
    6C7D4 ??_R0?AV?$basic_istream@DU?$char_traits@D@std@@@std@@@8
    6C7D4 ??_R0?AV?$basic_ostream@DU?$char_traits@D@std@@@std@@@8
    6C7D4 ??_R0?AV?$basic_ostringstream@DU?$char_traits@D@std@@V?$allocator@D@2@@std@@@8
    6C7D4 ??_R0?AV?$basic_streambuf@DU?$char_traits@D@std@@@std@@@8
    6C7D4 ??_R0?AV?$basic_stringbuf@DU?$char_traits@D@std@@V?$allocator@D@2@@std@@@8
    6C7D4 ??_R0?AV?$collate@D@std@@@8
    6C7D4 ??_R0?AV_Facet_base@std@@@8
    6C7D4 ??_R0?AV_Node_assert@std@@@8
    6C7D4 ??_R0?AV_Node_back@std@@@8
    6C7D4 ??_R0?AV_Node_base@std@@@8
    6C7D4 ??_R0?AV_Node_capture@std@@@8
    6C7D4 ??_R0?AV_Node_end_group@std@@@8
    6C7D4 ??_R0?AV_Node_end_rep@std@@@8
    6C7D4 ??_R0?AV_Node_endif@std@@@8
    6C7D4 ??_R0?AV_Node_if@std@@@8
    6C7D4 ??_R0?AV_Node_rep@std@@@8
    6C7D4 ??_R0?AV_Root_node@std@@@8
    6C7D4 ??_R0?AVbad_cast@std@@@8
    6C7D4 ??_R0?AVexception@std@@@8
    6C7D4 ??_R0?AVfacet@locale@std@@@8
    6C7D4 ??_R0?AVios_base@std@@@8
    6C7D4 ??_R17?0A@EA@?$_Iosb@H@std@@8
    6C7D4 ??_R17?0A@EA@_Crt_new_delete@std@@8
    6C7D4 ??_R17A@3EA@?$_Iosb@H@std@@8
    6C7D4 ??_R1A@?0A@EA@?$_Iosb@H@std@@8
    6C7D4 ??_R1A@?0A@EA@?$_Node_class@DV?$regex_traits@D@std@@@std@@8
    6C7D4 ??_R1A@?0A@EA@?$_Node_str@D@std@@8
    6C7D4 ??_R1A@?0A@EA@?$basic_filebuf@DU?$char_traits@D@std@@@std@@8
    6C7D4 ??_R1A@?0A@EA@?$basic_ifstream@DU?$char_traits@D@std@@@std@@8
    6C7D4 ??_R1A@?0A@EA@?$basic_ios@DU?$char_traits@D@std@@@std@@8
    6C7D4 ??_R1A@?0A@EA@?$basic_istream@DU?$char_traits@D@std@@@std@@8
    6C7D4 ??_R1A@?0A@EA@?$basic_ostream@DU?$char_traits@D@std@@@std@@8
    6C7D4 ??_R1A@?0A@EA@?$basic_ostringstream@DU?$char_traits@D@std@@V?$allocator@D@2@@std@@8
    6C7D4 ??_R1A@?0A@EA@?$basic_streambuf@DU?$char_traits@D@std@@@std@@8
    6C7D4 ??_R1A@?0A@EA@?$basic_stringbuf@DU?$char_traits@D@std@@V?$allocator@D@2@@std@@8
    6C7D4 ??_R1A@?0A@EA@?$collate@D@std@@8
    6C7D4 ??_R1A@?0A@EA@_Crt_new_delete@std@@8
    6C7D4 ??_R1A@?0A@EA@_Facet_base@std@@8
    6C7D4 ??_R1A@?0A@EA@_Node_assert@std@@8
    6C7D4 ??_R1A@?0A@EA@_Node_back@std@@8
    6C7D4 ??_R1A@?0A@EA@_Node_base@std@@8
    6C7D4 ??_R1A@?0A@EA@_Node_capture@std@@8
    6C7D4 ??_R1A@?0A@EA@_Node_end_group@std@@8
    6C7D4 ??_R1A@?0A@EA@_Node_end_rep@std@@8
    6C7D4 ??_R1A@?0A@EA@_Node_endif@std@@8
    6C7D4 ??_R1A@?0A@EA@_Node_if@std@@8
    6C7D4 ??_R1A@?0A@EA@_Node_rep@std@@8
    6C7D4 ??_R1A@?0A@EA@_Root_node@std@@8
    6C7D4 ??_R1A@?0A@EA@bad_cast@std@@8
    6C7D4 ??_R1A@?0A@EA@exception@std@@8
    6C7D4 ??_R1A@?0A@EA@facet@locale@std@@8
    6C7D4 ??_R1A@?0A@EA@ios_base@std@@8
    6C7D4 ??_R1A@A@3EA@ios_base@std@@8
    6C7D4 ??_R1A@A@3FA@?$basic_ios@DU?$char_traits@D@std@@@std@@8
    6C7D4 ??_R2?$_Iosb@H@std@@8
    6C7D4 ??_R2?$_Node_class@DV?$regex_traits@D@std@@@std@@8
    6C7D4 ??_R2?$_Node_str@D@std@@8
    6C7D4 ??_R2?$basic_filebuf@DU?$char_traits@D@std@@@std@@8
    6C7D4 ??_R2?$basic_ifstream@DU?$char_traits@D@std@@@std@@8
    6C7D4 ??_R2?$basic_ios@DU?$char_traits@D@std@@@std@@8
    6C7D4 ??_R2?$basic_istream@DU?$char_traits@D@std@@@std@@8
    6C7D4 ??_R2?$basic_ostream@DU?$char_traits@D@std@@@std@@8
    6C7D4 ??_R2?$basic_ostringstream@DU?$char_traits@D@std@@V?$allocator@D@2@@std@@8
    6C7D4 ??_R2?$basic_streambuf@DU?$char_traits@D@std@@@std@@8
    6C7D4 ??_R2?$basic_stringbuf@DU?$char_traits@D@std@@V?$allocator@D@2@@std@@8
    6C7D4 ??_R2?$collate@D@std@@8
    6C7D4 ??_R2_Crt_new_delete@std@@8
    6C7D4 ??_R2_Facet_base@std@@8
    6C7D4 ??_R2_Node_assert@std@@8
    6C7D4 ??_R2_Node_back@std@@8
    6C7D4 ??_R2_Node_base@std@@8
    6C7D4 ??_R2_Node_capture@std@@8
    6C7D4 ??_R2_Node_end_group@std@@8
    6C7D4 ??_R2_Node_end_rep@std@@8
    6C7D4 ??_R2_Node_endif@std@@8
    6C7D4 ??_R2_Node_if@std@@8
    6C7D4 ??_R2_Node_rep@std@@8
    6C7D4 ??_R2_Root_node@std@@8
    6C7D4 ??_R2bad_cast@std@@8
    6C7D4 ??_R2exception@std@@8
    6C7D4 ??_R2facet@locale@std@@8
    6C7D4 ??_R2ios_base@std@@8
    6C7D4 ??_R3?$_Iosb@H@std@@8
    6C7D4 ??_R3?$_Node_class@DV?$regex_traits@D@std@@@std@@8
    6C7D4 ??_R3?$_Node_str@D@std@@8
    6C7D4 ??_R3?$basic_filebuf@DU?$char_traits@D@std@@@std@@8
    6C7D4 ??_R3?$basic_ifstream@DU?$char_traits@D@std@@@std@@8
    6C7D4 ??_R3?$basic_ios@DU?$char_traits@D@std@@@std@@8
    6C7D4 ??_R3?$basic_istream@DU?$char_traits@D@std@@@std@@8
    6C7D4 ??_R3?$basic_ostream@DU?$char_traits@D@std@@@std@@8
    6C7D4 ??_R3?$basic_ostringstream@DU?$char_traits@D@std@@V?$allocator@D@2@@std@@8
    6C7D4 ??_R3?$basic_streambuf@DU?$char_traits@D@std@@@std@@8
    6C7D4 ??_R3?$basic_stringbuf@DU?$char_traits@D@std@@V?$allocator@D@2@@std@@8
    6C7D4 ??_R3?$collate@D@std@@8
    6C7D4 ??_R3_Crt_new_delete@std@@8
    6C7D4 ??_R3_Facet_base@std@@8
    6C7D4 ??_R3_Node_assert@std@@8
    6C7D4 ??_R3_Node_back@std@@8
    6C7D4 ??_R3_Node_base@std@@8
    6C7D4 ??_R3_Node_capture@std@@8
    6C7D4 ??_R3_Node_end_group@std@@8
    6C7D4 ??_R3_Node_end_rep@std@@8
    6C7D4 ??_R3_Node_endif@std@@8
    6C7D4 ??_R3_Node_if@std@@8
    6C7D4 ??_R3_Node_rep@std@@8
    6C7D4 ??_R3_Root_node@std@@8
    6C7D4 ??_R3bad_cast@std@@8
    6C7D4 ??_R3exception@std@@8
    6C7D4 ??_R3facet@locale@std@@8
    6C7D4 ??_R3ios_base@std@@8
    6C7D4 ??_R4?$_Node_class@DV?$regex_traits@D@std@@@std@@6B@
    6C7D4 ??_R4?$_Node_str@D@std@@6B@
    6C7D4 ??_R4?$basic_filebuf@DU?$char_traits@D@std@@@std@@6B@
    6C7D4 ??_R4?$basic_ifstream@DU?$char_traits@D@std@@@std@@6B@
    6C7D4 ??_R4?$basic_ostringstream@DU?$char_traits@D@std@@V?$allocator@D@2@@std@@6B@
    6C7D4 ??_R4?$basic_stringbuf@DU?$char_traits@D@std@@V?$allocator@D@2@@std@@6B@
    6C7D4 ??_R4?$collate@D@std@@6B@
    6C7D4 ??_R4_Node_assert@std@@6B@
    6C7D4 ??_R4_Node_back@std@@6B@
    6C7D4 ??_R4_Node_base@std@@6B@
    6C7D4 ??_R4_Node_capture@std@@6B@
    6C7D4 ??_R4_Node_end_group@std@@6B@
    6C7D4 ??_R4_Node_end_rep@std@@6B@
    6C7D4 ??_R4_Node_endif@std@@6B@
    6C7D4 ??_R4_Node_if@std@@6B@
    6C7D4 ??_R4_Node_rep@std@@6B@
    6C7D4 ??_R4_Root_node@std@@6B@
    6C7D4 ??_R4bad_cast@std@@6B@
    6C7D4 ??_R4exception@std@@6B@
    6C7D4 ?XMLParser@Tools@@SAPEAV?$Tree@V?$basic_string@DU?$char_traits@D@std@@V?$allocator@D@2@@std@@V12@@@V?$basic_string@DU?$char_traits@D@std@@V?$allocator@D@2@@std@@0AEAV?$vector@V?$basic_string@DU?$char_traits@D@std@@V?$allocator@D@2@@std@@V?$allocator@V?$basic_string@DU?$char_traits@D@std@@V?$allocator@D@2@@std@@@2@@4@@Z
    6C7D4 ?_Add_backreference@?$_Builder@PEBDDV?$regex_traits@D@std@@@std@@QEAAXI@Z
    6C7D4 ?_Add_bol@?$_Builder@PEBDDV?$regex_traits@D@std@@@std@@QEAAXXZ
    6C7D4 ?_Add_char@?$_Builder@PEBDDV?$regex_traits@D@std@@@std@@QEAAXD@Z
    6C7D4 ?_Add_char_to_array@?$_Builder@PEBDDV?$regex_traits@D@std@@@std@@AEAAXD@Z
    6C7D4 ?_Add_char_to_bitmap@?$_Builder@PEBDDV?$regex_traits@D@std@@@std@@AEAAXD@Z
    6C7D4 ?_Add_char_to_class@?$_Builder@PEBDDV?$regex_traits@D@std@@@std@@QEAAXD@Z
    6C7D4 ?_Add_class@?$_Builder@PEBDDV?$regex_traits@D@std@@@std@@QEAAXXZ
    6C7D4 ?_Add_coll@?$_Builder@PEBDDV?$regex_traits@D@std@@@std@@QEAAXPEBD0_J@Z
    6C7D4 ?_Add_dot@?$_Builder@PEBDDV?$regex_traits@D@std@@@std@@QEAAXXZ
    6C7D4 ?_Add_elts@?$_Builder@PEBDDV?$regex_traits@D@std@@@std@@AEAAXPEAV?$_Node_class@DV?$regex_traits@D@std@@@2@F_N@Z
    6C7D4 ?_Add_eol@?$_Builder@PEBDDV?$regex_traits@D@std@@@std@@QEAAXXZ
    6C7D4 ?_Add_equiv@?$_Builder@PEBDDV?$regex_traits@D@std@@@std@@QEAAXPEBD0_J@Z
    6C7D4 ?_Add_named_class@?$_Builder@PEBDDV?$regex_traits@D@std@@@std@@QEAAXF_N@Z
    6C7D4 ?_Add_range@?$_Builder@PEBDDV?$regex_traits@D@std@@@std@@QEAAXDD@Z
    6C7D4 ?_Add_rep@?$_Builder@PEBDDV?$regex_traits@D@std@@@std@@QEAAXHH_N@Z
    6C7D4 ?_Add_str_node@?$_Builder@PEBDDV?$regex_traits@D@std@@@std@@AEAAXXZ
    6C7D4 ?_Add_wbound@?$_Builder@PEBDDV?$regex_traits@D@std@@@std@@QEAAXXZ
    6C7D4 ?_Adopt@_Iterator_base12@std@@QEAAXPEBU_Container_base12@2@@Z
    6C7D4 ?_Advance@?$_Vb_iter_base@U?$_Wrap_alloc@V?$allocator@I@std@@@std@@@std@@QEAAX_K@Z
    6C7D4 ?_Alloc_proxy@?$_String_alloc@U?$_String_base_types@DV?$allocator@D@std@@@std@@@std@@QEAAXXZ
    6C7D4 ?_Alloc_proxy@?$_Tree_comp_alloc@V?$_Tmap_traits@V?$basic_string@DU?$char_traits@D@std@@V?$allocator@D@2@@std@@V12@U?$less@V?$basic_string@DU?$char_traits@D@std@@V?$allocator@D@2@@std@@@2@V?$allocator@U?$pair@$$CBV?$basic_string@DU?$char_traits@D@std@@V?$allocator@D@2@@std@@V12@@std@@@2@$0A@@std@@@std@@QEAAXXZ
    6C7D4 ?_Alloc_proxy@?$_Vb_val@V?$allocator@_N@std@@@std@@QEAAXXZ
    6C7D4 ?_Alloc_proxy@?$_Vector_alloc@U?$_Vec_base_types@DV?$allocator@D@std@@@std@@@std@@QEAAXXZ
    6C7D4 ?_Alloc_proxy@?$_Vector_alloc@U?$_Vec_base_types@IV?$allocator@I@std@@@std@@@std@@QEAAXXZ
    6C7D4 ?_Alloc_proxy@?$_Vector_alloc@U?$_Vec_base_types@U_Grp_t@?$_Tgt_state_t@PEBD@std@@V?$allocator@U_Grp_t@?$_Tgt_state_t@PEBD@std@@@3@@std@@@std@@QEAAXXZ
    6C7D4 ?_Alloc_proxy@?$_Vector_alloc@U?$_Vec_base_types@U_Loop_vals_t@std@@V?$allocator@U_Loop_vals_t@std@@@2@@std@@@std@@QEAAXXZ
    6C7D4 ?_Alloc_proxy@?$_Vector_alloc@U?$_Vec_base_types@V?$basic_string@DU?$char_traits@D@std@@V?$allocator@D@2@@std@@V?$allocator@V?$basic_string@DU?$char_traits@D@std@@V?$allocator@D@2@@std@@@2@@std@@@std@@QEAAXXZ
    6C7D4 ?_Allocate@std@@YAPEAX_K0_N@Z
    6C7D4 ?_Alternative@?$_Parser@PEBDDV?$regex_traits@D@std@@@std@@AEAA_NXZ
    6C7D4 ?_Assign_rv_contents@?$basic_string@DU?$char_traits@D@std@@V?$allocator@D@2@@std@@QEAAX$$QEAV12@U?$integral_constant@_N$00@2@@Z
    6C7D4 ?_Assign_rv_contents_with_alloc_always_equal@?$basic_string@DU?$char_traits@D@std@@V?$allocator@D@2@@std@@QEAAX$$QEAV12@U?$integral_constant@_N$00@2@@Z
    6C7D4 ?_At@?$_Buf@D@std@@QEBADI@Z
    6C7D4 ?_At@?$match_results@PEBDV?$allocator@V?$sub_match@PEBD@std@@@std@@@std@@QEAAAEAV?$sub_match@PEBD@2@I@Z
    6C7D4 ?_AtomEscape@?$_Parser@PEBDDV?$regex_traits@D@std@@@std@@AEAAXXZ
    6C7D4 ?_Become_small@?$basic_string@DU?$char_traits@D@std@@V?$allocator@D@2@@std@@QEAAXXZ
    6C7D4 ?_Beg_expr@?$_Builder@PEBDDV?$regex_traits@D@std@@@std@@AEBA_NPEAV_Node_base@2@@Z
    6C7D4 ?_Beg_expr@?$_Builder@PEBDDV?$regex_traits@D@std@@@std@@QEBA_NXZ
    6C7D4 ?_Begin_assert_group@?$_Builder@PEBDDV?$regex_traits@D@std@@@std@@QEAAPEAV_Node_base@2@_N@Z
    6C7D4 ?_Begin_capture_group@?$_Builder@PEBDDV?$regex_traits@D@std@@@std@@QEAAPEAV_Node_base@2@I@Z
    6C7D4 ?_Begin_group@?$_Builder@PEBDDV?$regex_traits@D@std@@@std@@QEAAPEAV_Node_base@2@XZ
    6C7D4 ?_Begin_if@?$_Builder@PEBDDV?$regex_traits@D@std@@@std@@QEAAPEAV_Node_base@2@PEAV32@@Z
    6C7D4 ?_Better_match@?$_Matcher@PEBDDV?$regex_traits@D@std@@PEBD@std@@AEAA_NXZ
    6C7D4 ?_Buy@?$vector@DV?$allocator@D@std@@@std@@AEAA_N_K@Z
    6C7D4 ?_Buy@?$vector@IV?$allocator@I@std@@@std@@AEAA_N_K@Z
    6C7D4 ?_Buy@?$vector@U_Grp_t@?$_Tgt_state_t@PEBD@std@@V?$allocator@U_Grp_t@?$_Tgt_state_t@PEBD@std@@@3@@std@@AEAA_N_K@Z
    6C7D4 ?_Buyheadnode@?$_Tree_comp_alloc@V?$_Tmap_traits@V?$basic_string@DU?$char_traits@D@std@@V?$allocator@D@2@@std@@V12@U?$less@V?$basic_string@DU?$char_traits@D@std@@V?$allocator@D@2@@std@@@2@V?$allocator@U?$pair@$$CBV?$basic_string@DU?$char_traits@D@std@@V?$allocator@D@2@@std@@V12@@std@@@2@$0A@@std@@@std@@QEAAPEAU?$_Tree_node@U?$pair@$$CBV?$basic_string@DU?$char_traits@D@std@@V?$allocator@D@2@@std@@V12@@std@@PEAX@2@XZ
    6C7D4 ?_Buynode0@?$_Tree_comp_alloc@V?$_Tmap_traits@V?$basic_string@DU?$char_traits@D@std@@V?$allocator@D@2@@std@@V12@U?$less@V?$basic_string@DU?$char_traits@D@std@@V?$allocator@D@2@@std@@@2@V?$allocator@U?$pair@$$CBV?$basic_string@DU?$char_traits@D@std@@V?$allocator@D@2@@std@@V12@@std@@@2@$0A@@std@@@std@@QEAAPEAU?$_Tree_node@U?$pair@$$CBV?$basic_string@DU?$char_traits@D@std@@V?$allocator@D@2@@std@@V12@@std@@PEAX@2@XZ
    6C7D4 ?_Cache_locale@?$_Regex_traits@D@std@@AEAAXXZ
    6C7D4 ?_Calculate_growth@?$basic_string@DU?$char_traits@D@std@@V?$allocator@D@2@@std@@QEBA_K_K@Z
    6C7D4 ?_Calculate_growth@?$vector@IV?$allocator@I@std@@@std@@AEBA_K_K@Z
    6C7D4 ?_Calculate_growth@?$vector@U_Grp_t@?$_Tgt_state_t@PEBD@std@@V?$allocator@U_Grp_t@?$_Tgt_state_t@PEBD@std@@@3@@std@@AEBA_K_K@Z
    6C7D4 ?_Calculate_growth@?$vector@U_Loop_vals_t@std@@V?$allocator@U_Loop_vals_t@std@@@2@@std@@AEBA_K_K@Z
    6C7D4 ?_Calculate_growth@?$vector@V?$basic_string@DU?$char_traits@D@std@@V?$allocator@D@2@@std@@V?$allocator@V?$basic_string@DU?$char_traits@D@std@@V?$allocator@D@2@@std@@@2@@std@@AEBA_K_K@Z
    6C7D4 ?_Calculate_growth@?$vector@V?$sub_match@PEBD@std@@V?$allocator@V?$sub_match@PEBD@std@@@2@@std@@AEBA_K_K@Z
    6C7D4 ?_Calculate_loop_simplicity@std@@YAXPEAV_Node_base@1@0PEAV_Node_rep@1@@Z
    6C7D4 ?_Change_array@?$vector@IV?$allocator@I@std@@@std@@AEAAXQEAI_K1@Z
    6C7D4 ?_Change_array@?$vector@U_Grp_t@?$_Tgt_state_t@PEBD@std@@V?$allocator@U_Grp_t@?$_Tgt_state_t@PEBD@std@@@3@@std@@AEAAXQEAU_Grp_t@?$_Tgt_state_t@PEBD@2@_K1@Z
    6C7D4 ?_Change_array@?$vector@U_Loop_vals_t@std@@V?$allocator@U_Loop_vals_t@std@@@2@@std@@AEAAXQEAU_Loop_vals_t@2@_K1@Z
    6C7D4 ?_Change_array@?$vector@V?$basic_string@DU?$char_traits@D@std@@V?$allocator@D@2@@std@@V?$allocator@V?$basic_string@DU?$char_traits@D@std@@V?$allocator@D@2@@std@@@2@@std@@AEAAXQEAV?$basic_string@DU?$char_traits@D@std@@V?$allocator@D@2@@2@_K1@Z
    6C7D4 ?_Change_array@?$vector@V?$sub_match@PEBD@std@@V?$allocator@V?$sub_match@PEBD@std@@@2@@std@@AEAAXQEAV?$sub_match@PEBD@2@_K1@Z
    6C7D4 ?_Char_to_elts@?$_Builder@PEBDDV?$regex_traits@D@std@@@std@@AEAAXPEBD0_JPEAPEAU?$_Sequence@D@2@@Z
    6C7D4 ?_CharacterClass@?$_Parser@PEBDDV?$regex_traits@D@std@@@std@@AEAAXXZ
    6C7D4 ?_CharacterClassEscape@?$_Parser@PEBDDV?$regex_traits@D@std@@@std@@AEAA_N_N@Z
    6C7D4 ?_CharacterEscape@?$_Parser@PEBDDV?$regex_traits@D@std@@@std@@AEAA_NXZ
    6C7D4 ?_Check_offset@?$_String_val@U?$_Simple_types@D@std@@@std@@QEBAX_K@Z
    6C7D4 ?_Check_offset_exclusive@?$_String_val@U?$_Simple_types@D@std@@@std@@QEBAX_K@Z
    6C7D4 ?_Clamp_suffix_size@?$_String_val@U?$_Simple_types@D@std@@@std@@QEBA_K_K0@Z
    6C7D4 ?_ClassAtom@?$_Parser@PEBDDV?$regex_traits@D@std@@@std@@AEAA?AW4_Prs_ret@2@XZ
    6C7D4 ?_ClassEscape@?$_Parser@PEBDDV?$regex_traits@D@std@@@std@@AEAA?AW4_Prs_ret@2@_N@Z
    6C7D4 ?_ClassRanges@?$_Parser@PEBDDV?$regex_traits@D@std@@@std@@AEAAXXZ
    6C7D4 ?_Clrcont@_Iterator_base12@std@@QEAAXXZ
    6C7D4 ?_Compat@?$_String_const_iterator@V?$_String_val@U?$_Simple_types@D@std@@@std@@@std@@QEBAXAEBV12@@Z
    6C7D4 ?_Compat@?$_Vb_const_iterator@U?$_Wrap_alloc@V?$allocator@I@std@@@std@@@std@@QEBAXAEBV12@@Z
    6C7D4 ?_Compat@?$_Vector_const_iterator@V?$_Vector_val@U?$_Simple_types@V?$basic_string@DU?$char_traits@D@std@@V?$allocator@D@2@@std@@@std@@@std@@@std@@QEBAXAEBV12@@Z
    6C7D4 ?_Compile@?$_Parser@PEBDDV?$regex_traits@D@std@@@std@@QEAAPEAV_Root_node@2@XZ
    6C7D4 ?_Construct@?$_Tree_comp_alloc@V?$_Tmap_traits@V?$basic_string@DU?$char_traits@D@std@@V?$allocator@D@2@@std@@V12@U?$less@V?$basic_string@DU?$char_traits@D@std@@V?$allocator@D@2@@std@@@2@V?$allocator@U?$pair@$$CBV?$basic_string@DU?$char_traits@D@std@@V?$allocator@D@2@@std@@V12@@std@@@2@$0A@@std@@@std@@QEAAXXZ
    6C7D4 ?_Construct_lv_contents@?$basic_string@DU?$char_traits@D@std@@V?$allocator@D@2@@std@@QEAAXAEBV12@@Z
    6C7D4 ?_Copy_alloc@?$_String_alloc@U?$_String_base_types@DV?$allocator@D@std@@@std@@@std@@QEAAXAEBV?$allocator@D@2@@Z
    6C7D4 ?_Copy_alloc@?$_Vector_alloc@U?$_Vec_base_types@IV?$allocator@I@std@@@std@@@std@@QEAAXAEBV?$allocator@I@2@@Z
    6C7D4 ?_Copy_alloc@?$_Vector_alloc@U?$_Vec_base_types@U_Grp_t@?$_Tgt_state_t@PEBD@std@@V?$allocator@U_Grp_t@?$_Tgt_state_t@PEBD@std@@@3@@std@@@std@@QEAAXAEBV?$allocator@U_Grp_t@?$_Tgt_state_t@PEBD@std@@@2@@Z
    6C7D4 ?_Deallocate@std@@YAXPEAX_K1@Z
    6C7D4 ?_Dec@?$_Vb_const_iterator@U?$_Wrap_alloc@V?$allocator@I@std@@@std@@@std@@QEAAXXZ
    6C7D4 ?_DecimalDigits@?$_Parser@PEBDDV?$regex_traits@D@std@@@std@@AEAA_NXZ
    6C7D4 ?_Del@?$_Buf@D@std@@QEAADXZ
    6C7D4 ?_Destroy@?$vector@DV?$allocator@D@std@@@std@@AEAAXPEAD0@Z
    6C7D4 ?_Destroy@?$vector@IV?$allocator@I@std@@@std@@AEAAXPEAI0@Z
    6C7D4 ?_Destroy@?$vector@U_Grp_t@?$_Tgt_state_t@PEBD@std@@V?$allocator@U_Grp_t@?$_Tgt_state_t@PEBD@std@@@3@@std@@AEAAXPEAU_Grp_t@?$_Tgt_state_t@PEBD@2@0@Z
    6C7D4 ?_Destroy@?$vector@U_Loop_vals_t@std@@V?$allocator@U_Loop_vals_t@std@@@2@@std@@AEAAXPEAU_Loop_vals_t@2@0@Z
    6C7D4 ?_Destroy@?$vector@V?$basic_string@DU?$char_traits@D@std@@V?$allocator@D@2@@std@@V?$allocator@V?$basic_string@DU?$char_traits@D@std@@V?$allocator@D@2@@std@@@2@@std@@AEAAXPEAV?$basic_string@DU?$char_traits@D@std@@V?$allocator@D@2@@2@0@Z
    6C7D4 ?_Destroy@?$vector@V?$sub_match@PEBD@std@@V?$allocator@V?$sub_match@PEBD@std@@@2@@std@@AEAAXPEAV?$sub_match@PEBD@2@0@Z
    6C7D4 ?_Destroy_if_not_nil@?$_Tree@V?$_Tmap_traits@V?$basic_string@DU?$char_traits@D@std@@V?$allocator@D@2@@std@@V12@U?$less@V?$basic_string@DU?$char_traits@D@std@@V?$allocator@D@2@@std@@@2@V?$allocator@U?$pair@$$CBV?$basic_string@DU?$char_traits@D@std@@V?$allocator@D@2@@std@@V12@@std@@@2@$0A@@std@@@std@@IEAAXPEAU?$_Tree_node@U?$pair@$$CBV?$basic_string@DU?$char_traits@D@std@@V?$allocator@D@2@@std@@V12@@std@@PEAX@2@@Z
    6C7D4 ?_Destroy_node@std@@YAXPEAV_Node_base@1@0@Z
    6C7D4 ?_Discard_pattern@?$_Builder@PEBDDV?$regex_traits@D@std@@@std@@QEAAXXZ
    6C7D4 ?_Disjunction@?$_Parser@PEBDDV?$regex_traits@D@std@@@std@@AEAAXXZ
    6C7D4 ?_Do_assert_group@?$_Parser@PEBDDV?$regex_traits@D@std@@@std@@AEAAX_N@Z
    6C7D4 ?_Do_capture_group@?$_Parser@PEBDDV?$regex_traits@D@std@@@std@@AEAAXXZ
    6C7D4 ?_Do_class@?$_Matcher@PEBDDV?$regex_traits@D@std@@PEBD@std@@AEAA_NPEAV_Node_base@2@@Z
    6C7D4 ?_Do_digits@?$_Parser@PEBDDV?$regex_traits@D@std@@@std@@AEAAHHH@Z
    6C7D4 ?_Do_ex_class@?$_Parser@PEBDDV?$regex_traits@D@std@@@std@@AEAAXW4_Meta_type@2@@Z
    6C7D4 ?_Do_ffn@?$_Parser@PEBDDV?$regex_traits@D@std@@@std@@AEAA_ND@Z
    6C7D4 ?_Do_ffnx@?$_Parser@PEBDDV?$regex_traits@D@std@@@std@@AEAA_ND@Z
    6C7D4 ?_Do_if@?$_Matcher@PEBDDV?$regex_traits@D@std@@PEBD@std@@AEAA_NPEAV_Node_if@2@@Z
    6C7D4 ?_Do_noncapture_group@?$_Parser@PEBDDV?$regex_traits@D@std@@@std@@AEAAXXZ
    6C7D4 ?_Do_rep0@?$_Matcher@PEBDDV?$regex_traits@D@std@@PEBD@std@@AEAA_NPEAV_Node_rep@2@_N@Z
    6C7D4 ?_Do_rep@?$_Matcher@PEBDDV?$regex_traits@D@std@@PEBD@std@@AEAA_NPEAV_Node_rep@2@_NH@Z
    6C7D4 ?_Else_if@?$_Builder@PEBDDV?$regex_traits@D@std@@@std@@QEAAXPEAV_Node_base@2@0@Z
    6C7D4 ?_Empty@?$basic_regex@DV?$regex_traits@D@std@@@std@@QEBA_NXZ
    6C7D4 ?_End_assert_group@?$_Builder@PEBDDV?$regex_traits@D@std@@@std@@QEAAXPEAV_Node_base@2@@Z
    6C7D4 ?_End_group@?$_Builder@PEBDDV?$regex_traits@D@std@@@std@@QEAAXPEAV_Node_base@2@@Z
    6C7D4 ?_End_pattern@?$_Builder@PEBDDV?$regex_traits@D@std@@@std@@QEAAPEAV_Root_node@2@XZ
    6C7D4 ?_Endwrite@?$basic_filebuf@DU?$char_traits@D@std@@@std@@IEAA_NXZ
    6C7D4 ?_Eos@?$basic_string@DU?$char_traits@D@std@@V?$allocator@D@2@@std@@QEAAX_K@Z
    6C7D4 ?_Equal@?$basic_string@DU?$char_traits@D@std@@V?$allocator@D@2@@std@@QEBA_NAEBV12@@Z
    6C7D4 ?_Equal@?$basic_string@DU?$char_traits@D@std@@V?$allocator@D@2@@std@@QEBA_NQEBD@Z
    6C7D4 ?_Erase@?$_Tree@V?$_Tmap_traits@V?$basic_string@DU?$char_traits@D@std@@V?$allocator@D@2@@std@@V12@U?$less@V?$basic_string@DU?$char_traits@D@std@@V?$allocator@D@2@@std@@@2@V?$allocator@U?$pair@$$CBV?$basic_string@DU?$char_traits@D@std@@V?$allocator@D@2@@std@@V12@@std@@@2@$0A@@std@@@std@@IEAAXPEAU?$_Tree_node@U?$pair@$$CBV?$basic_string@DU?$char_traits@D@std@@V?$allocator@D@2@@std@@V12@@std@@PEAX@2@@Z
    6C7D4 ?_Error@?$_Parser@PEBDDV?$regex_traits@D@std@@@std@@AEAAXW4error_type@regex_constants@2@@Z
    6C7D4 ?_Expand@?$_Buf@D@std@@AEAAXI@Z
    6C7D4 ?_Expect@?$_Parser@PEBDDV?$regex_traits@D@std@@@std@@AEAAXW4_Meta_type@2@W4error_type@regex_constants@2@@Z
    6C7D4 ?_Free_proxy@?$_String_alloc@U?$_String_base_types@DV?$allocator@D@std@@@std@@@std@@QEAAXXZ
    6C7D4 ?_Free_proxy@?$_Tree_comp_alloc@V?$_Tmap_traits@V?$basic_string@DU?$char_traits@D@std@@V?$allocator@D@2@@std@@V12@U?$less@V?$basic_string@DU?$char_traits@D@std@@V?$allocator@D@2@@std@@@2@V?$allocator@U?$pair@$$CBV?$basic_string@DU?$char_traits@D@std@@V?$allocator@D@2@@std@@V12@@std@@@2@$0A@@std@@@std@@QEAAXXZ
    6C7D4 ?_Free_proxy@?$_Vb_val@V?$allocator@_N@std@@@std@@QEAAXXZ
    6C7D4 ?_Free_proxy@?$_Vector_alloc@U?$_Vec_base_types@DV?$allocator@D@std@@@std@@@std@@QEAAXXZ
    6C7D4 ?_Free_proxy@?$_Vector_alloc@U?$_Vec_base_types@IV?$allocator@I@std@@@std@@@std@@QEAAXXZ
    6C7D4 ?_Free_proxy@?$_Vector_alloc@U?$_Vec_base_types@U_Grp_t@?$_Tgt_state_t@PEBD@std@@V?$allocator@U_Grp_t@?$_Tgt_state_t@PEBD@std@@@3@@std@@@std@@QEAAXXZ
    6C7D4 ?_Free_proxy@?$_Vector_alloc@U?$_Vec_base_types@U_Loop_vals_t@std@@V?$allocator@U_Loop_vals_t@std@@@2@@std@@@std@@QEAAXXZ
    6C7D4 ?_Free_proxy@?$_Vector_alloc@U?$_Vec_base_types@V?$basic_string@DU?$char_traits@D@std@@V?$allocator@D@2@@std@@V?$allocator@V?$basic_string@DU?$char_traits@D@std@@V?$allocator@D@2@@std@@@2@@std@@@std@@QEAAXXZ
    6C7D4 ?_Freeheadnode@?$_Tree_comp_alloc@V?$_Tmap_traits@V?$basic_string@DU?$char_traits@D@std@@V?$allocator@D@2@@std@@V12@U?$less@V?$basic_string@DU?$char_traits@D@std@@V?$allocator@D@2@@std@@@2@V?$allocator@U?$pair@$$CBV?$basic_string@DU?$char_traits@D@std@@V?$allocator@D@2@@std@@V12@@std@@@2@$0A@@std@@@std@@QEAAXPEAU?$_Tree_node@U?$pair@$$CBV?$basic_string@DU?$char_traits@D@std@@V?$allocator@D@2@@std@@V12@@std@@PEAX@2@@Z
    6C7D4 ?_Freenode0@?$_Tree_comp_alloc@V?$_Tmap_traits@V?$basic_string@DU?$char_traits@D@std@@V?$allocator@D@2@@std@@V12@U?$less@V?$basic_string@DU?$char_traits@D@std@@V?$allocator@D@2@@std@@@2@V?$allocator@U?$pair@$$CBV?$basic_string@DU?$char_traits@D@std@@V?$allocator@D@2@@std@@V12@@std@@@2@$0A@@std@@@std@@QEAAXPEAU?$_Tree_node@U?$pair@$$CBV?$basic_string@DU?$char_traits@D@std@@V?$allocator@D@2@@std@@V12@@std@@PEAX@2@@Z
    6C7D4 ?_Get@?$basic_regex@DV?$regex_traits@D@std@@@std@@QEBAPEAV_Root_node@2@XZ
    6C7D4 ?_Get_bmax@?$_Builder@PEBDDV?$regex_traits@D@std@@@std@@AEBAIXZ
    6C7D4 ?_Get_data@?$_String_alloc@U?$_String_base_types@DV?$allocator@D@std@@@std@@@std@@QEAAAEAV?$_String_val@U?$_Simple_types@D@std@@@2@XZ
    6C7D4 ?_Get_data@?$_String_alloc@U?$_String_base_types@DV?$allocator@D@std@@@std@@@std@@QEBAAEBV?$_String_val@U?$_Simple_types@D@std@@@2@XZ
    6C7D4 ?_Get_data@?$_Tree_comp_alloc@V?$_Tmap_traits@V?$basic_string@DU?$char_traits@D@std@@V?$allocator@D@2@@std@@V12@U?$less@V?$basic_string@DU?$char_traits@D@std@@V?$allocator@D@2@@std@@@2@V?$allocator@U?$pair@$$CBV?$basic_string@DU?$char_traits@D@std@@V?$allocator@D@2@@std@@V12@@std@@@2@$0A@@std@@@std@@QEAAAEAV?$_Tree_val@U?$_Tree_simple_types@U?$pair@$$CBV?$basic_string@DU?$char_traits@D@std@@V?$allocator@D@2@@std@@V12@@std@@@std@@@2@XZ
    6C7D4 ?_Get_data@?$_Tree_comp_alloc@V?$_Tmap_traits@V?$basic_string@DU?$char_traits@D@std@@V?$allocator@D@2@@std@@V12@U?$less@V?$basic_string@DU?$char_traits@D@std@@V?$allocator@D@2@@std@@@2@V?$allocator@U?$pair@$$CBV?$basic_string@DU?$char_traits@D@std@@V?$allocator@D@2@@std@@V12@@std@@@2@$0A@@std@@@std@@QEBAAEBV?$_Tree_val@U?$_Tree_simple_types@U?$pair@$$CBV?$basic_string@DU?$char_traits@D@std@@V?$allocator@D@2@@std@@V12@@std@@@std@@@2@XZ
    6C7D4 ?_Get_data@?$_Vector_alloc@U?$_Vec_base_types@DV?$allocator@D@std@@@std@@@std@@QEAAAEAV?$_Vector_val@U?$_Simple_types@D@std@@@2@XZ
    6C7D4 ?_Get_data@?$_Vector_alloc@U?$_Vec_base_types@DV?$allocator@D@std@@@std@@@std@@QEBAAEBV?$_Vector_val@U?$_Simple_types@D@std@@@2@XZ
    6C7D4 ?_Get_data@?$_Vector_alloc@U?$_Vec_base_types@IV?$allocator@I@std@@@std@@@std@@QEAAAEAV?$_Vector_val@U?$_Simple_types@I@std@@@2@XZ
    6C7D4 ?_Get_data@?$_Vector_alloc@U?$_Vec_base_types@IV?$allocator@I@std@@@std@@@std@@QEBAAEBV?$_Vector_val@U?$_Simple_types@I@std@@@2@XZ
    6C7D4 ?_Get_data@?$_Vector_alloc@U?$_Vec_base_types@U_Grp_t@?$_Tgt_state_t@PEBD@std@@V?$allocator@U_Grp_t@?$_Tgt_state_t@PEBD@std@@@3@@std@@@std@@QEAAAEAV?$_Vector_val@U?$_Simple_types@U_Grp_t@?$_Tgt_state_t@PEBD@std@@@std@@@2@XZ
    6C7D4 ?_Get_data@?$_Vector_alloc@U?$_Vec_base_types@U_Grp_t@?$_Tgt_state_t@PEBD@std@@V?$allocator@U_Grp_t@?$_Tgt_state_t@PEBD@std@@@3@@std@@@std@@QEBAAEBV?$_Vector_val@U?$_Simple_types@U_Grp_t@?$_Tgt_state_t@PEBD@std@@@std@@@2@XZ
    6C7D4 ?_Get_data@?$_Vector_alloc@U?$_Vec_base_types@U_Loop_vals_t@std@@V?$allocator@U_Loop_vals_t@std@@@2@@std@@@std@@QEAAAEAV?$_Vector_val@U?$_Simple_types@U_Loop_vals_t@std@@@std@@@2@XZ
    6C7D4 ?_Get_data@?$_Vector_alloc@U?$_Vec_base_types@U_Loop_vals_t@std@@V?$allocator@U_Loop_vals_t@std@@@2@@std@@@std@@QEBAAEBV?$_Vector_val@U?$_Simple_types@U_Loop_vals_t@std@@@std@@@2@XZ
    6C7D4 ?_Get_data@?$_Vector_alloc@U?$_Vec_base_types@V?$basic_string@DU?$char_traits@D@std@@V?$allocator@D@2@@std@@V?$allocator@V?$basic_string@DU?$char_traits@D@std@@V?$allocator@D@2@@std@@@2@@std@@@std@@QEAAAEAV?$_Vector_val@U?$_Simple_types@V?$basic_string@DU?$char_traits@D@std@@V?$allocator@D@2@@std@@@std@@@2@XZ
    6C7D4 ?_Get_data@?$_Vector_alloc@U?$_Vec_base_types@V?$basic_string@DU?$char_traits@D@std@@V?$allocator@D@2@@std@@V?$allocator@V?$basic_string@DU?$char_traits@D@std@@V?$allocator@D@2@@std@@@2@@std@@@std@@QEBAAEBV?$_Vector_val@U?$_Simple_types@V?$basic_string@DU?$char_traits@D@std@@V?$allocator@D@2@@std@@@std@@@2@XZ
    6C7D4 ?_Get_data@?$_Vector_alloc@U?$_Vec_base_types@V?$sub_match@PEBD@std@@V?$allocator@V?$sub_match@PEBD@std@@@2@@std@@@std@@QEAAAEAV?$_Vector_val@U?$_Simple_types@V?$sub_match@PEBD@std@@@std@@@2@XZ
    6C7D4 ?_Get_data@?$_Vector_alloc@U?$_Vec_base_types@V?$sub_match@PEBD@std@@V?$allocator@V?$sub_match@PEBD@std@@@2@@std@@@std@@QEBAAEBV?$_Vector_val@U?$_Simple_types@V?$sub_match@PEBD@std@@@std@@@2@XZ
    6C7D4 ?_Get_first@?$_Compressed_pair@U?$less@V?$basic_string@DU?$char_traits@D@std@@V?$allocator@D@2@@std@@@std@@V?$_Compressed_pair@V?$allocator@U?$_Tree_node@U?$pair@$$CBV?$basic_string@DU?$char_traits@D@std@@V?$allocator@D@2@@std@@V12@@std@@PEAX@std@@@std@@V?$_Tree_val@U?$_Tree_simple_types@U?$pair@$$CBV?$basic_string@DU?$char_traits@D@std@@V?$allocator@D@2@@std@@V12@@std@@@std@@@2@$00@2@$00@std@@QEAAAEAU?$less@V?$basic_string@DU?$char_traits@D@std@@V?$allocator@D@2@@std@@@2@XZ
    6C7D4 ?_Get_first@?$_Compressed_pair@V?$allocator@D@std@@V?$_String_val@U?$_Simple_types@D@std@@@2@$00@std@@QEAAAEAV?$allocator@D@2@XZ
    6C7D4 ?_Get_first@?$_Compressed_pair@V?$allocator@D@std@@V?$_String_val@U?$_Simple_types@D@std@@@2@$00@std@@QEBAAEBV?$allocator@D@2@XZ
    6C7D4 ?_Get_first@?$_Compressed_pair@V?$allocator@D@std@@V?$_Vector_val@U?$_Simple_types@D@std@@@2@$00@std@@QEAAAEAV?$allocator@D@2@XZ
    6C7D4 ?_Get_first@?$_Compressed_pair@V?$allocator@D@std@@V?$_Vector_val@U?$_Simple_types@D@std@@@2@$00@std@@QEBAAEBV?$allocator@D@2@XZ
    6C7D4 ?_Get_first@?$_Compressed_pair@V?$allocator@I@std@@V?$_Vector_val@U?$_Simple_types@I@std@@@2@$00@std@@QEAAAEAV?$allocator@I@2@XZ
    6C7D4 ?_Get_first@?$_Compressed_pair@V?$allocator@I@std@@V?$_Vector_val@U?$_Simple_types@I@std@@@2@$00@std@@QEBAAEBV?$allocator@I@2@XZ
    6C7D4 ?_Get_first@?$_Compressed_pair@V?$allocator@U?$_Tree_node@U?$pair@$$CBV?$basic_string@DU?$char_traits@D@std@@V?$allocator@D@2@@std@@V12@@std@@PEAX@std@@@std@@V?$_Tree_val@U?$_Tree_simple_types@U?$pair@$$CBV?$basic_string@DU?$char_traits@D@std@@V?$allocator@D@2@@std@@V12@@std@@@std@@@2@$00@std@@QEAAAEAV?$allocator@U?$_Tree_node@U?$pair@$$CBV?$basic_string@DU?$char_traits@D@std@@V?$allocator@D@2@@std@@V12@@std@@PEAX@std@@@2@XZ
    6C7D4 ?_Get_first@?$_Compressed_pair@V?$allocator@U?$_Tree_node@U?$pair@$$CBV?$basic_string@DU?$char_traits@D@std@@V?$allocator@D@2@@std@@V12@@std@@PEAX@std@@@std@@V?$_Tree_val@U?$_Tree_simple_types@U?$pair@$$CBV?$basic_string@DU?$char_traits@D@std@@V?$allocator@D@2@@std@@V12@@std@@@std@@@2@$00@std@@QEBAAEBV?$allocator@U?$_Tree_node@U?$pair@$$CBV?$basic_string@DU?$char_traits@D@std@@V?$allocator@D@2@@std@@V12@@std@@PEAX@std@@@2@XZ
    6C7D4 ?_Get_first@?$_Compressed_pair@V?$allocator@U_Grp_t@?$_Tgt_state_t@PEBD@std@@@std@@V?$_Vector_val@U?$_Simple_types@U_Grp_t@?$_Tgt_state_t@PEBD@std@@@std@@@2@$00@std@@QEAAAEAV?$allocator@U_Grp_t@?$_Tgt_state_t@PEBD@std@@@2@XZ
    6C7D4 ?_Get_first@?$_Compressed_pair@V?$allocator@U_Grp_t@?$_Tgt_state_t@PEBD@std@@@std@@V?$_Vector_val@U?$_Simple_types@U_Grp_t@?$_Tgt_state_t@PEBD@std@@@std@@@2@$00@std@@QEBAAEBV?$allocator@U_Grp_t@?$_Tgt_state_t@PEBD@std@@@2@XZ
    6C7D4 ?_Get_first@?$_Compressed_pair@V?$allocator@U_Loop_vals_t@std@@@std@@V?$_Vector_val@U?$_Simple_types@U_Loop_vals_t@std@@@std@@@2@$00@std@@QEAAAEAV?$allocator@U_Loop_vals_t@std@@@2@XZ
    6C7D4 ?_Get_first@?$_Compressed_pair@V?$allocator@U_Loop_vals_t@std@@@std@@V?$_Vector_val@U?$_Simple_types@U_Loop_vals_t@std@@@std@@@2@$00@std@@QEBAAEBV?$allocator@U_Loop_vals_t@std@@@2@XZ
    6C7D4 ?_Get_first@?$_Compressed_pair@V?$allocator@V?$basic_string@DU?$char_traits@D@std@@V?$allocator@D@2@@std@@@std@@V?$_Vector_val@U?$_Simple_types@V?$basic_string@DU?$char_traits@D@std@@V?$allocator@D@2@@std@@@std@@@2@$00@std@@QEAAAEAV?$allocator@V?$basic_string@DU?$char_traits@D@std@@V?$allocator@D@2@@std@@@2@XZ
    6C7D4 ?_Get_first@?$_Compressed_pair@V?$allocator@V?$basic_string@DU?$char_traits@D@std@@V?$allocator@D@2@@std@@@std@@V?$_Vector_val@U?$_Simple_types@V?$basic_string@DU?$char_traits@D@std@@V?$allocator@D@2@@std@@@std@@@2@$00@std@@QEBAAEBV?$allocator@V?$basic_string@DU?$char_traits@D@std@@V?$allocator@D@2@@std@@@2@XZ
    6C7D4 ?_Get_first@?$_Compressed_pair@V?$allocator@V?$sub_match@PEBD@std@@@std@@V?$_Vector_val@U?$_Simple_types@V?$sub_match@PEBD@std@@@std@@@2@$00@std@@QEAAAEAV?$allocator@V?$sub_match@PEBD@std@@@2@XZ
    6C7D4 ?_Get_first@?$_Compressed_pair@V?$allocator@V?$sub_match@PEBD@std@@@std@@V?$_Vector_val@U?$_Simple_types@V?$sub_match@PEBD@std@@@std@@@2@$00@std@@QEBAAEBV?$allocator@V?$sub_match@PEBD@std@@@2@XZ
    6C7D4 ?_Get_ncap@?$_Matcher@PEBDDV?$regex_traits@D@std@@PEBD@std@@AEBAIXZ
    6C7D4 ?_Get_second@?$_Compressed_pair@U?$less@V?$basic_string@DU?$char_traits@D@std@@V?$allocator@D@2@@std@@@std@@V?$_Compressed_pair@V?$allocator@U?$_Tree_node@U?$pair@$$CBV?$basic_string@DU?$char_traits@D@std@@V?$allocator@D@2@@std@@V12@@std@@PEAX@std@@@std@@V?$_Tree_val@U?$_Tree_simple_types@U?$pair@$$CBV?$basic_string@DU?$char_traits@D@std@@V?$allocator@D@2@@std@@V12@@std@@@std@@@2@$00@2@$00@std@@QEAAAEAV?$_Compressed_pair@V?$allocator@U?$_Tree_node@U?$pair@$$CBV?$basic_string@DU?$char_traits@D@std@@V?$allocator@D@2@@std@@V12@@std@@PEAX@std@@@std@@V?$_Tree_val@U?$_Tree_simple_types@U?$pair@$$CBV?$basic_string@DU?$char_traits@D@std@@V?$allocator@D@2@@std@@V12@@std@@@std@@@2@$00@2@XZ
    6C7D4 ?_Get_second@?$_Compressed_pair@U?$less@V?$basic_string@DU?$char_traits@D@std@@V?$allocator@D@2@@std@@@std@@V?$_Compressed_pair@V?$allocator@U?$_Tree_node@U?$pair@$$CBV?$basic_string@DU?$char_traits@D@std@@V?$allocator@D@2@@std@@V12@@std@@PEAX@std@@@std@@V?$_Tree_val@U?$_Tree_simple_types@U?$pair@$$CBV?$basic_string@DU?$char_traits@D@std@@V?$allocator@D@2@@std@@V12@@std@@@std@@@2@$00@2@$00@std@@QEBAAEBV?$_Compressed_pair@V?$allocator@U?$_Tree_node@U?$pair@$$CBV?$basic_string@DU?$char_traits@D@std@@V?$allocator@D@2@@std@@V12@@std@@PEAX@std@@@std@@V?$_Tree_val@U?$_Tree_simple_types@U?$pair@$$CBV?$basic_string@DU?$char_traits@D@std@@V?$allocator@D@2@@std@@V12@@std@@@std@@@2@$00@2@XZ
    6C7D4 ?_Get_second@?$_Compressed_pair@V?$allocator@D@std@@V?$_String_val@U?$_Simple_types@D@std@@@2@$00@std@@QEAAAEAV?$_String_val@U?$_Simple_types@D@std@@@2@XZ
    6C7D4 ?_Get_second@?$_Compressed_pair@V?$allocator@D@std@@V?$_String_val@U?$_Simple_types@D@std@@@2@$00@std@@QEBAAEBV?$_String_val@U?$_Simple_types@D@std@@@2@XZ
    6C7D4 ?_Get_second@?$_Compressed_pair@V?$allocator@D@std@@V?$_Vector_val@U?$_Simple_types@D@std@@@2@$00@std@@QEAAAEAV?$_Vector_val@U?$_Simple_types@D@std@@@2@XZ
    6C7D4 ?_Get_second@?$_Compressed_pair@V?$allocator@D@std@@V?$_Vector_val@U?$_Simple_types@D@std@@@2@$00@std@@QEBAAEBV?$_Vector_val@U?$_Simple_types@D@std@@@2@XZ
    6C7D4 ?_Get_second@?$_Compressed_pair@V?$allocator@I@std@@V?$_Vector_val@U?$_Simple_types@I@std@@@2@$00@std@@QEAAAEAV?$_Vector_val@U?$_Simple_types@I@std@@@2@XZ
    6C7D4 ?_Get_second@?$_Compressed_pair@V?$allocator@I@std@@V?$_Vector_val@U?$_Simple_types@I@std@@@2@$00@std@@QEBAAEBV?$_Vector_val@U?$_Simple_types@I@std@@@2@XZ
    6C7D4 ?_Get_second@?$_Compressed_pair@V?$allocator@U?$_Tree_node@U?$pair@$$CBV?$basic_string@DU?$char_traits@D@std@@V?$allocator@D@2@@std@@V12@@std@@PEAX@std@@@std@@V?$_Tree_val@U?$_Tree_simple_types@U?$pair@$$CBV?$basic_string@DU?$char_traits@D@std@@V?$allocator@D@2@@std@@V12@@std@@@std@@@2@$00@std@@QEAAAEAV?$_Tree_val@U?$_Tree_simple_types@U?$pair@$$CBV?$basic_string@DU?$char_traits@D@std@@V?$allocator@D@2@@std@@V12@@std@@@std@@@2@XZ
    6C7D4 ?_Get_second@?$_Compressed_pair@V?$allocator@U?$_Tree_node@U?$pair@$$CBV?$basic_string@DU?$char_traits@D@std@@V?$allocator@D@2@@std@@V12@@std@@PEAX@std@@@std@@V?$_Tree_val@U?$_Tree_simple_types@U?$pair@$$CBV?$basic_string@DU?$char_traits@D@std@@V?$allocator@D@2@@std@@V12@@std@@@std@@@2@$00@std@@QEBAAEBV?$_Tree_val@U?$_Tree_simple_types@U?$pair@$$CBV?$basic_string@DU?$char_traits@D@std@@V?$allocator@D@2@@std@@V12@@std@@@std@@@2@XZ
    6C7D4 ?_Get_second@?$_Compressed_pair@V?$allocator@U_Grp_t@?$_Tgt_state_t@PEBD@std@@@std@@V?$_Vector_val@U?$_Simple_types@U_Grp_t@?$_Tgt_state_t@PEBD@std@@@std@@@2@$00@std@@QEAAAEAV?$_Vector_val@U?$_Simple_types@U_Grp_t@?$_Tgt_state_t@PEBD@std@@@std@@@2@XZ
    6C7D4 ?_Get_second@?$_Compressed_pair@V?$allocator@U_Grp_t@?$_Tgt_state_t@PEBD@std@@@std@@V?$_Vector_val@U?$_Simple_types@U_Grp_t@?$_Tgt_state_t@PEBD@std@@@std@@@2@$00@std@@QEBAAEBV?$_Vector_val@U?$_Simple_types@U_Grp_t@?$_Tgt_state_t@PEBD@std@@@std@@@2@XZ
    6C7D4 ?_Get_second@?$_Compressed_pair@V?$allocator@U_Loop_vals_t@std@@@std@@V?$_Vector_val@U?$_Simple_types@U_Loop_vals_t@std@@@std@@@2@$00@std@@QEAAAEAV?$_Vector_val@U?$_Simple_types@U_Loop_vals_t@std@@@std@@@2@XZ
    6C7D4 ?_Get_second@?$_Compressed_pair@V?$allocator@U_Loop_vals_t@std@@@std@@V?$_Vector_val@U?$_Simple_types@U_Loop_vals_t@std@@@std@@@2@$00@std@@QEBAAEBV?$_Vector_val@U?$_Simple_types@U_Loop_vals_t@std@@@std@@@2@XZ
    6C7D4 ?_Get_second@?$_Compressed_pair@V?$allocator@V?$basic_string@DU?$char_traits@D@std@@V?$allocator@D@2@@std@@@std@@V?$_Vector_val@U?$_Simple_types@V?$basic_string@DU?$char_traits@D@std@@V?$allocator@D@2@@std@@@std@@@2@$00@std@@QEAAAEAV?$_Vector_val@U?$_Simple_types@V?$basic_string@DU?$char_traits@D@std@@V?$allocator@D@2@@std@@@std@@@2@XZ
    6C7D4 ?_Get_second@?$_Compressed_pair@V?$allocator@V?$basic_string@DU?$char_traits@D@std@@V?$allocator@D@2@@std@@@std@@V?$_Vector_val@U?$_Simple_types@V?$basic_string@DU?$char_traits@D@std@@V?$allocator@D@2@@std@@@std@@@2@$00@std@@QEBAAEBV?$_Vector_val@U?$_Simple_types@V?$basic_string@DU?$char_traits@D@std@@V?$allocator@D@2@@std@@@std@@@2@XZ
    6C7D4 ?_Get_second@?$_Compressed_pair@V?$allocator@V?$sub_match@PEBD@std@@@std@@V?$_Vector_val@U?$_Simple_types@V?$sub_match@PEBD@std@@@std@@@2@$00@std@@QEAAAEAV?$_Vector_val@U?$_Simple_types@V?$sub_match@PEBD@std@@@std@@@2@XZ
    6C7D4 ?_Get_second@?$_Compressed_pair@V?$allocator@V?$sub_match@PEBD@std@@@std@@V?$_Vector_val@U?$_Simple_types@V?$sub_match@PEBD@std@@@std@@@2@$00@std@@QEBAAEBV?$_Vector_val@U?$_Simple_types@V?$sub_match@PEBD@std@@@std@@@2@XZ
    6C7D4 ?_Get_tmax@?$_Builder@PEBDDV?$regex_traits@D@std@@@std@@AEBAIXZ
    6C7D4 ?_Get_traits@?$basic_regex@DV?$regex_traits@D@std@@@std@@QEBAAEBV?$regex_traits@D@2@XZ
    6C7D4 ?_Getal@?$_String_alloc@U?$_String_base_types@DV?$allocator@D@std@@@std@@@std@@QEAAAEAV?$allocator@D@2@XZ
    6C7D4 ?_Getal@?$_String_alloc@U?$_String_base_types@DV?$allocator@D@std@@@std@@@std@@QEBAAEBV?$allocator@D@2@XZ
    6C7D4 ?_Getal@?$_Tree_comp_alloc@V?$_Tmap_traits@V?$basic_string@DU?$char_traits@D@std@@V?$allocator@D@2@@std@@V12@U?$less@V?$basic_string@DU?$char_traits@D@std@@V?$allocator@D@2@@std@@@2@V?$allocator@U?$pair@$$CBV?$basic_string@DU?$char_traits@D@std@@V?$allocator@D@2@@std@@V12@@std@@@2@$0A@@std@@@std@@QEAAAEAV?$allocator@U?$_Tree_node@U?$pair@$$CBV?$basic_string@DU?$char_traits@D@std@@V?$allocator@D@2@@std@@V12@@std@@PEAX@std@@@2@XZ
    6C7D4 ?_Getal@?$_Tree_comp_alloc@V?$_Tmap_traits@V?$basic_string@DU?$char_traits@D@std@@V?$allocator@D@2@@std@@V12@U?$less@V?$basic_string@DU?$char_traits@D@std@@V?$allocator@D@2@@std@@@2@V?$allocator@U?$pair@$$CBV?$basic_string@DU?$char_traits@D@std@@V?$allocator@D@2@@std@@V12@@std@@@2@$0A@@std@@@std@@QEBAAEBV?$allocator@U?$_Tree_node@U?$pair@$$CBV?$basic_string@DU?$char_traits@D@std@@V?$allocator@D@2@@std@@V12@@std@@PEAX@std@@@2@XZ
    6C7D4 ?_Getal@?$_Vector_alloc@U?$_Vec_base_types@DV?$allocator@D@std@@@std@@@std@@QEAAAEAV?$allocator@D@2@XZ
    6C7D4 ?_Getal@?$_Vector_alloc@U?$_Vec_base_types@DV?$allocator@D@std@@@std@@@std@@QEBAAEBV?$allocator@D@2@XZ
    6C7D4 ?_Getal@?$_Vector_alloc@U?$_Vec_base_types@IV?$allocator@I@std@@@std@@@std@@QEAAAEAV?$allocator@I@2@XZ
    6C7D4 ?_Getal@?$_Vector_alloc@U?$_Vec_base_types@IV?$allocator@I@std@@@std@@@std@@QEBAAEBV?$allocator@I@2@XZ
    6C7D4 ?_Getal@?$_Vector_alloc@U?$_Vec_base_types@U_Grp_t@?$_Tgt_state_t@PEBD@std@@V?$allocator@U_Grp_t@?$_Tgt_state_t@PEBD@std@@@3@@std@@@std@@QEAAAEAV?$allocator@U_Grp_t@?$_Tgt_state_t@PEBD@std@@@2@XZ
    6C7D4 ?_Getal@?$_Vector_alloc@U?$_Vec_base_types@U_Grp_t@?$_Tgt_state_t@PEBD@std@@V?$allocator@U_Grp_t@?$_Tgt_state_t@PEBD@std@@@3@@std@@@std@@QEBAAEBV?$allocator@U_Grp_t@?$_Tgt_state_t@PEBD@std@@@2@XZ
    6C7D4 ?_Getal@?$_Vector_alloc@U?$_Vec_base_types@U_Loop_vals_t@std@@V?$allocator@U_Loop_vals_t@std@@@2@@std@@@std@@QEAAAEAV?$allocator@U_Loop_vals_t@std@@@2@XZ
    6C7D4 ?_Getal@?$_Vector_alloc@U?$_Vec_base_types@U_Loop_vals_t@std@@V?$allocator@U_Loop_vals_t@std@@@2@@std@@@std@@QEBAAEBV?$allocator@U_Loop_vals_t@std@@@2@XZ
    6C7D4 ?_Getal@?$_Vector_alloc@U?$_Vec_base_types@V?$basic_string@DU?$char_traits@D@std@@V?$allocator@D@2@@std@@V?$allocator@V?$basic_string@DU?$char_traits@D@std@@V?$allocator@D@2@@std@@@2@@std@@@std@@QEAAAEAV?$allocator@V?$basic_string@DU?$char_traits@D@std@@V?$allocator@D@2@@std@@@2@XZ
    6C7D4 ?_Getal@?$_Vector_alloc@U?$_Vec_base_types@V?$basic_string@DU?$char_traits@D@std@@V?$allocator@D@2@@std@@V?$allocator@V?$basic_string@DU?$char_traits@D@std@@V?$allocator@D@2@@std@@@2@@std@@@std@@QEBAAEBV?$allocator@V?$basic_string@DU?$char_traits@D@std@@V?$allocator@D@2@@std@@@2@XZ
    6C7D4 ?_Getal@?$_Vector_alloc@U?$_Vec_base_types@V?$sub_match@PEBD@std@@V?$allocator@V?$sub_match@PEBD@std@@@2@@std@@@std@@QEAAAEAV?$allocator@V?$sub_match@PEBD@std@@@2@XZ
    6C7D4 ?_Getal@?$_Vector_alloc@U?$_Vec_base_types@V?$sub_match@PEBD@std@@V?$allocator@V?$sub_match@PEBD@std@@@2@@std@@@std@@QEBAAEBV?$allocator@V?$sub_match@PEBD@std@@@2@XZ
    6C7D4 ?_Getcat@?$collate@D@std@@SA_KPEAPEBVfacet@locale@2@PEBV42@@Z
    6C7D4 ?_Getcoll@?$_Regex_traits@D@std@@QEBAPEBV?$collate@D@2@XZ
    6C7D4 ?_Getcomp@?$_Tree_comp_alloc@V?$_Tmap_traits@V?$basic_string@DU?$char_traits@D@std@@V?$allocator@D@2@@std@@V12@U?$less@V?$basic_string@DU?$char_traits@D@std@@V?$allocator@D@2@@std@@@2@V?$allocator@U?$pair@$$CBV?$basic_string@DU?$char_traits@D@std@@V?$allocator@D@2@@std@@V12@@std@@@2@$0A@@std@@@std@@QEAAAEAU?$less@V?$basic_string@DU?$char_traits@D@std@@V?$allocator@D@2@@std@@@2@XZ
    6C7D4 ?_Getcont@_Iterator_base12@std@@QEBAPEBU_Container_base12@2@XZ
    6C7D4 ?_Getctype@?$_Regex_traits@D@std@@QEBAPEBV?$ctype@D@2@XZ
    6C7D4 ?_Getfacet@locale@std@@QEBAPEBVfacet@12@_K@Z
    6C7D4 ?_Getmark@?$_Builder@PEBDDV?$regex_traits@D@std@@@std@@QEBAPEAV_Node_base@2@XZ
    6C7D4 ?_Getpfirst@?$_Tree_comp_alloc@V?$_Tmap_traits@V?$basic_string@DU?$char_traits@D@std@@V?$allocator@D@2@@std@@V12@U?$less@V?$basic_string@DU?$char_traits@D@std@@V?$allocator@D@2@@std@@@2@V?$allocator@U?$pair@$$CBV?$basic_string@DU?$char_traits@D@std@@V?$allocator@D@2@@std@@V12@@std@@@2@$0A@@std@@@std@@QEBAPEAPEAU_Iterator_base12@2@XZ
    6C7D4 ?_Getpfirst@?$_Vector_alloc@U?$_Vec_base_types@IV?$allocator@I@std@@@std@@@std@@QEBAPEAPEAU_Iterator_base12@2@XZ
    6C7D4 ?_Getpfirst@?$_Vector_alloc@U?$_Vec_base_types@U_Grp_t@?$_Tgt_state_t@PEBD@std@@V?$allocator@U_Grp_t@?$_Tgt_state_t@PEBD@std@@@3@@std@@@std@@QEBAPEAPEAU_Iterator_base12@2@XZ
    6C7D4 ?_Getpfirst@?$_Vector_alloc@U?$_Vec_base_types@U_Loop_vals_t@std@@V?$allocator@U_Loop_vals_t@std@@@2@@std@@@std@@QEBAPEAPEAU_Iterator_base12@2@XZ
    6C7D4 ?_Getpfirst@?$_Vector_alloc@U?$_Vec_base_types@V?$basic_string@DU?$char_traits@D@std@@V?$allocator@D@2@@std@@V?$allocator@V?$basic_string@DU?$char_traits@D@std@@V?$allocator@D@2@@std@@@2@@std@@@std@@QEBAPEAPEAU_Iterator_base12@2@XZ
    6C7D4 ?_Getpfirst@?$_Vector_alloc@U?$_Vec_base_types@V?$sub_match@PEBD@std@@V?$allocator@V?$sub_match@PEBD@std@@@2@@std@@@std@@QEBAPEAPEAU_Iterator_base12@2@XZ
    6C7D4 ?_Getpfirst@_Container_base12@std@@QEBAPEAPEAU_Iterator_base12@2@XZ
    6C7D4 ?_Getpnext@_Iterator_base12@std@@QEAAPEAPEAU12@XZ
    6C7D4 ?_Getptr@?$_Vb_reference@U?$_Wrap_alloc@V?$allocator@I@std@@@std@@@std@@QEBAPEBIXZ
    6C7D4 ?_Getstate@?$basic_stringbuf@DU?$char_traits@D@std@@V?$allocator@D@2@@std@@AEAAHH@Z
    6C7D4 ?_Has_unused_capacity@?$vector@V?$basic_string@DU?$char_traits@D@std@@V?$allocator@D@2@@std@@V?$allocator@V?$basic_string@DU?$char_traits@D@std@@V?$allocator@D@2@@std@@@2@@std@@AEBA_NXZ
    6C7D4 ?_Hash_bytes@std@@YA_KPEBE_K@Z
    6C7D4 ?_HexDigits@?$_Parser@PEBDDV?$regex_traits@D@std@@@std@@AEAAXH@Z
    6C7D4 ?_IdentityEscape@?$_Parser@PEBDDV?$regex_traits@D@std@@@std@@AEAA_NXZ
    6C7D4 ?_Inc@?$_Vb_const_iterator@U?$_Wrap_alloc@V?$allocator@I@std@@@std@@@std@@QEAAXXZ
    6C7D4 ?_Init@?$basic_filebuf@DU?$char_traits@D@std@@@std@@IEAAXPEAU_iobuf@@W4_Initfl@12@@Z
    6C7D4 ?_Init@?$basic_stringbuf@DU?$char_traits@D@std@@V?$allocator@D@2@@std@@IEAAXPEBD_KH@Z
    6C7D4 ?_Init@?$collate@D@std@@IEAAXAEBV_Locinfo@2@@Z
    6C7D4 ?_Initcvt@?$basic_filebuf@DU?$char_traits@D@std@@@std@@IEAAXPEBV?$codecvt@DDU_Mbstatet@@@2@@Z
    6C7D4 ?_Insert@?$_Buf@D@std@@QEAAXD@Z
    6C7D4 ?_Insert_n@?$vector@_NV?$allocator@_N@std@@@std@@QEAA?AV?$_Vb_iterator@U?$_Wrap_alloc@V?$allocator@I@std@@@std@@@2@V?$_Vb_const_iterator@U?$_Wrap_alloc@V?$allocator@I@std@@@std@@@2@_KAEB_N@Z
    6C7D4 ?_Insert_node@?$_Builder@PEBDDV?$regex_traits@D@std@@@std@@CAXPEAV_Node_base@2@0@Z
    6C7D4 ?_Insert_x@?$vector@_NV?$allocator@_N@std@@@std@@QEAA_KV?$_Vb_const_iterator@U?$_Wrap_alloc@V?$allocator@I@std@@@std@@@2@_K@Z
    6C7D4 ?_IsIdentityEscape@?$_Parser@PEBDDV?$regex_traits@D@std@@@std@@AEBA_NXZ
    6C7D4 ?_Is_esc@?$_Parser@PEBDDV?$regex_traits@D@std@@@std@@AEBA_NXZ
    6C7D4 ?_Is_wbound@?$_Matcher@PEBDDV?$regex_traits@D@std@@PEBD@std@@AEBA_NXZ
    6C7D4 ?_Is_word@std@@YA_ND@Z
    6C7D4 ?_Is_word@std@@YA_NE@Z
    6C7D4 ?_Is_word_table@?1??_Is_word@std@@YA_NE@Z@4QB_NB
    6C7D4 ?_Key@?$_Tree@V?$_Tmap_traits@V?$basic_string@DU?$char_traits@D@std@@V?$allocator@D@2@@std@@V12@U?$less@V?$basic_string@DU?$char_traits@D@std@@V?$allocator@D@2@@std@@@2@V?$allocator@U?$pair@$$CBV?$basic_string@DU?$char_traits@D@std@@V?$allocator@D@2@@std@@V12@@std@@@2@$0A@@std@@@std@@IEBAAEBV?$basic_string@DU?$char_traits@D@std@@V?$allocator@D@2@@2@PEAU?$_Tree_node@U?$pair@$$CBV?$basic_string@DU?$char_traits@D@std@@V?$allocator@D@2@@std@@V12@@std@@PEAX@2@@Z
    6C7D4 ?_Kfn@?$_Tree@V?$_Tmap_traits@V?$basic_string@DU?$char_traits@D@std@@V?$allocator@D@2@@std@@V12@U?$less@V?$basic_string@DU?$char_traits@D@std@@V?$allocator@D@2@@std@@@2@V?$allocator@U?$pair@$$CBV?$basic_string@DU?$char_traits@D@std@@V?$allocator@D@2@@std@@V12@@std@@@2@$0A@@std@@@std@@IEBAAEBV?$basic_string@DU?$char_traits@D@std@@V?$allocator@D@2@@2@AEBU?$pair@$$CBV?$basic_string@DU?$char_traits@D@std@@V?$allocator@D@2@@std@@V12@@2@@Z
    6C7D4 ?_Large_string_engaged@?$_String_val@U?$_Simple_types@D@std@@@std@@QEBA_NXZ
    6C7D4 ?_Link_node@?$_Builder@PEBDDV?$regex_traits@D@std@@@std@@AEAAPEAV_Node_base@2@PEAV32@@Z
    6C7D4 ?_Lmost@?$_Tree@V?$_Tmap_traits@V?$basic_string@DU?$char_traits@D@std@@V?$allocator@D@2@@std@@V12@U?$less@V?$basic_string@DU?$char_traits@D@std@@V?$allocator@D@2@@std@@@2@V?$allocator@U?$pair@$$CBV?$basic_string@DU?$char_traits@D@std@@V?$allocator@D@2@@std@@V12@@std@@@2@$0A@@std@@@std@@IEBAAEAPEAU?$_Tree_node@U?$pair@$$CBV?$basic_string@DU?$char_traits@D@std@@V?$allocator@D@2@@std@@V12@@std@@PEAX@2@XZ
    6C7D4 ?_Lock@?$basic_filebuf@DU?$char_traits@D@std@@@std@@UEAAXXZ
    6C7D4 ?_Lrotate@?$_Tree@V?$_Tmap_traits@V?$basic_string@DU?$char_traits@D@std@@V?$allocator@D@2@@std@@V12@U?$less@V?$basic_string@DU?$char_traits@D@std@@V?$allocator@D@2@@std@@@2@V?$allocator@U?$pair@$$CBV?$basic_string@DU?$char_traits@D@std@@V?$allocator@D@2@@std@@V12@@std@@@2@$0A@@std@@@std@@IEAAXPEAU?$_Tree_node@U?$pair@$$CBV?$basic_string@DU?$char_traits@D@std@@V?$allocator@D@2@@std@@V12@@std@@PEAX@2@@Z
    6C7D4 ?_Make_iter@?$vector@_NV?$allocator@_N@std@@@std@@QEAA?AV?$_Vb_iterator@U?$_Wrap_alloc@V?$allocator@I@std@@@std@@@2@V?$_Vb_const_iterator@U?$_Wrap_alloc@V?$allocator@I@std@@@std@@@2@@Z
    6C7D4 ?_Mark_count@?$_Parser@PEBDDV?$regex_traits@D@std@@@std@@QEBAIXZ
    6C7D4 ?_Mark_final@?$_Builder@PEBDDV?$regex_traits@D@std@@@std@@QEAAXXZ
    6C7D4 ?_Mask@?$_Vb_reference@U?$_Wrap_alloc@V?$allocator@I@std@@@std@@@std@@IEBAIXZ
    6C7D4 ?_Match_pat@?$_Matcher@PEBDDV?$regex_traits@D@std@@PEBD@std@@AEAA_NPEAV_Node_base@2@@Z
    6C7D4 ?_Max@?$_Tree_comp_alloc@V?$_Tmap_traits@V?$basic_string@DU?$char_traits@D@std@@V?$allocator@D@2@@std@@V12@U?$less@V?$basic_string@DU?$char_traits@D@std@@V?$allocator@D@2@@std@@@2@V?$allocator@U?$pair@$$CBV?$basic_string@DU?$char_traits@D@std@@V?$allocator@D@2@@std@@V12@@std@@@2@$0A@@std@@@std@@SAPEAU?$_Tree_node@U?$pair@$$CBV?$basic_string@DU?$char_traits@D@std@@V?$allocator@D@2@@std@@V12@@std@@PEAX@2@PEAU32@@Z
    6C7D4 ?_Max@?$_Tree_val@U?$_Tree_simple_types@U?$pair@$$CBV?$basic_string@DU?$char_traits@D@std@@V?$allocator@D@2@@std@@V12@@std@@@std@@@std@@SAPEAU?$_Tree_node@U?$pair@$$CBV?$basic_string@DU?$char_traits@D@std@@V?$allocator@D@2@@std@@V12@@std@@PEAX@2@PEAU32@@Z
    6C7D4 ?_Meta_map@?1??_Trans@?$_Parser@PEBDDV?$regex_traits@D@std@@@std@@AEAAXXZ@4QBDB
    6C7D4 ?_Min@?$_Tree_comp_alloc@V?$_Tmap_traits@V?$basic_string@DU?$char_traits@D@std@@V?$allocator@D@2@@std@@V12@U?$less@V?$basic_string@DU?$char_traits@D@std@@V?$allocator@D@2@@std@@@2@V?$allocator@U?$pair@$$CBV?$basic_string@DU?$char_traits@D@std@@V?$allocator@D@2@@std@@V12@@std@@@2@$0A@@std@@@std@@SAPEAU?$_Tree_node@U?$pair@$$CBV?$basic_string@DU?$char_traits@D@std@@V?$allocator@D@2@@std@@V12@@std@@PEAX@2@PEAU32@@Z
    6C7D4 ?_Min@?$_Tree_val@U?$_Tree_simple_types@U?$pair@$$CBV?$basic_string@DU?$char_traits@D@std@@V?$allocator@D@2@@std@@V12@@std@@@std@@@std@@SAPEAU?$_Tree_node@U?$pair@$$CBV?$basic_string@DU?$char_traits@D@std@@V?$allocator@D@2@@std@@V12@@std@@PEAX@2@PEAU32@@Z
    6C7D4 ?_Move_alloc@?$_String_alloc@U?$_String_base_types@DV?$allocator@D@std@@@std@@@std@@QEAAXAEAV?$allocator@D@2@@Z
    6C7D4 ?_Move_from@?$vector@V?$basic_string@DU?$char_traits@D@std@@V?$allocator@D@2@@std@@V?$allocator@V?$basic_string@DU?$char_traits@D@std@@V?$allocator@D@2@@std@@@2@@std@@AEAAX$$QEAV12@U?$integral_constant@_N$00@2@@Z
    6C7D4 ?_Myend@?$_Vector_alloc@U?$_Vec_base_types@DV?$allocator@D@std@@@std@@@std@@QEAAAEAPEADXZ
    6C7D4 ?_Myend@?$_Vector_alloc@U?$_Vec_base_types@DV?$allocator@D@std@@@std@@@std@@QEBAAEBQEADXZ
    6C7D4 ?_Myend@?$_Vector_alloc@U?$_Vec_base_types@IV?$allocator@I@std@@@std@@@std@@QEAAAEAPEAIXZ
    6C7D4 ?_Myend@?$_Vector_alloc@U?$_Vec_base_types@IV?$allocator@I@std@@@std@@@std@@QEBAAEBQEAIXZ
    6C7D4 ?_Myend@?$_Vector_alloc@U?$_Vec_base_types@U_Grp_t@?$_Tgt_state_t@PEBD@std@@V?$allocator@U_Grp_t@?$_Tgt_state_t@PEBD@std@@@3@@std@@@std@@QEAAAEAPEAU_Grp_t@?$_Tgt_state_t@PEBD@2@XZ
    6C7D4 ?_Myend@?$_Vector_alloc@U?$_Vec_base_types@U_Grp_t@?$_Tgt_state_t@PEBD@std@@V?$allocator@U_Grp_t@?$_Tgt_state_t@PEBD@std@@@3@@std@@@std@@QEBAAEBQEAU_Grp_t@?$_Tgt_state_t@PEBD@2@XZ
    6C7D4 ?_Myend@?$_Vector_alloc@U?$_Vec_base_types@U_Loop_vals_t@std@@V?$allocator@U_Loop_vals_t@std@@@2@@std@@@std@@QEAAAEAPEAU_Loop_vals_t@2@XZ
    6C7D4 ?_Myend@?$_Vector_alloc@U?$_Vec_base_types@U_Loop_vals_t@std@@V?$allocator@U_Loop_vals_t@std@@@2@@std@@@std@@QEBAAEBQEAU_Loop_vals_t@2@XZ
    6C7D4 ?_Myend@?$_Vector_alloc@U?$_Vec_base_types@V?$basic_string@DU?$char_traits@D@std@@V?$allocator@D@2@@std@@V?$allocator@V?$basic_string@DU?$char_traits@D@std@@V?$allocator@D@2@@std@@@2@@std@@@std@@QEAAAEAPEAV?$basic_string@DU?$char_traits@D@std@@V?$allocator@D@2@@2@XZ
    6C7D4 ?_Myend@?$_Vector_alloc@U?$_Vec_base_types@V?$basic_string@DU?$char_traits@D@std@@V?$allocator@D@2@@std@@V?$allocator@V?$basic_string@DU?$char_traits@D@std@@V?$allocator@D@2@@std@@@2@@std@@@std@@QEBAAEBQEAV?$basic_string@DU?$char_traits@D@std@@V?$allocator@D@2@@2@XZ
    6C7D4 ?_Myend@?$_Vector_alloc@U?$_Vec_base_types@V?$sub_match@PEBD@std@@V?$allocator@V?$sub_match@PEBD@std@@@2@@std@@@std@@QEAAAEAPEAV?$sub_match@PEBD@2@XZ
    6C7D4 ?_Myend@?$_Vector_alloc@U?$_Vec_base_types@V?$sub_match@PEBD@std@@V?$allocator@V?$sub_match@PEBD@std@@@2@@std@@@std@@QEBAAEBQEAV?$sub_match@PEBD@2@XZ
    6C7D4 ?_Myfirst@?$_Vector_alloc@U?$_Vec_base_types@DV?$allocator@D@std@@@std@@@std@@QEAAAEAPEADXZ
    6C7D4 ?_Myfirst@?$_Vector_alloc@U?$_Vec_base_types@DV?$allocator@D@std@@@std@@@std@@QEBAAEBQEADXZ
    6C7D4 ?_Myfirst@?$_Vector_alloc@U?$_Vec_base_types@IV?$allocator@I@std@@@std@@@std@@QEAAAEAPEAIXZ
    6C7D4 ?_Myfirst@?$_Vector_alloc@U?$_Vec_base_types@IV?$allocator@I@std@@@std@@@std@@QEBAAEBQEAIXZ
    6C7D4 ?_Myfirst@?$_Vector_alloc@U?$_Vec_base_types@U_Grp_t@?$_Tgt_state_t@PEBD@std@@V?$allocator@U_Grp_t@?$_Tgt_state_t@PEBD@std@@@3@@std@@@std@@QEAAAEAPEAU_Grp_t@?$_Tgt_state_t@PEBD@2@XZ
    6C7D4 ?_Myfirst@?$_Vector_alloc@U?$_Vec_base_types@U_Grp_t@?$_Tgt_state_t@PEBD@std@@V?$allocator@U_Grp_t@?$_Tgt_state_t@PEBD@std@@@3@@std@@@std@@QEBAAEBQEAU_Grp_t@?$_Tgt_state_t@PEBD@2@XZ
    6C7D4 ?_Myfirst@?$_Vector_alloc@U?$_Vec_base_types@U_Loop_vals_t@std@@V?$allocator@U_Loop_vals_t@std@@@2@@std@@@std@@QEAAAEAPEAU_Loop_vals_t@2@XZ
    6C7D4 ?_Myfirst@?$_Vector_alloc@U?$_Vec_base_types@U_Loop_vals_t@std@@V?$allocator@U_Loop_vals_t@std@@@2@@std@@@std@@QEBAAEBQEAU_Loop_vals_t@2@XZ
    6C7D4 ?_Myfirst@?$_Vector_alloc@U?$_Vec_base_types@V?$basic_string@DU?$char_traits@D@std@@V?$allocator@D@2@@std@@V?$allocator@V?$basic_string@DU?$char_traits@D@std@@V?$allocator@D@2@@std@@@2@@std@@@std@@QEAAAEAPEAV?$basic_string@DU?$char_traits@D@std@@V?$allocator@D@2@@2@XZ
    6C7D4 ?_Myfirst@?$_Vector_alloc@U?$_Vec_base_types@V?$basic_string@DU?$char_traits@D@std@@V?$allocator@D@2@@std@@V?$allocator@V?$basic_string@DU?$char_traits@D@std@@V?$allocator@D@2@@std@@@2@@std@@@std@@QEBAAEBQEAV?$basic_string@DU?$char_traits@D@std@@V?$allocator@D@2@@2@XZ
    6C7D4 ?_Myfirst@?$_Vector_alloc@U?$_Vec_base_types@V?$sub_match@PEBD@std@@V?$allocator@V?$sub_match@PEBD@std@@@2@@std@@@std@@QEAAAEAPEAV?$sub_match@PEBD@2@XZ
    6C7D4 ?_Myfirst@?$_Vector_alloc@U?$_Vec_base_types@V?$sub_match@PEBD@std@@V?$allocator@V?$sub_match@PEBD@std@@@2@@std@@@std@@QEBAAEBQEAV?$sub_match@PEBD@2@XZ
    6C7D4 ?_Myhead@?$_Tree_comp_alloc@V?$_Tmap_traits@V?$basic_string@DU?$char_traits@D@std@@V?$allocator@D@2@@std@@V12@U?$less@V?$basic_string@DU?$char_traits@D@std@@V?$allocator@D@2@@std@@@2@V?$allocator@U?$pair@$$CBV?$basic_string@DU?$char_traits@D@std@@V?$allocator@D@2@@std@@V12@@std@@@2@$0A@@std@@@std@@QEAAAEAPEAU?$_Tree_node@U?$pair@$$CBV?$basic_string@DU?$char_traits@D@std@@V?$allocator@D@2@@std@@V12@@std@@PEAX@2@XZ
    6C7D4 ?_Myhead@?$_Tree_comp_alloc@V?$_Tmap_traits@V?$basic_string@DU?$char_traits@D@std@@V?$allocator@D@2@@std@@V12@U?$less@V?$basic_string@DU?$char_traits@D@std@@V?$allocator@D@2@@std@@@2@V?$allocator@U?$pair@$$CBV?$basic_string@DU?$char_traits@D@std@@V?$allocator@D@2@@std@@V12@@std@@@2@$0A@@std@@@std@@QEBAAEBQEAU?$_Tree_node@U?$pair@$$CBV?$basic_string@DU?$char_traits@D@std@@V?$allocator@D@2@@std@@V12@@std@@PEAX@2@XZ
    6C7D4 ?_Mylast@?$_Vector_alloc@U?$_Vec_base_types@DV?$allocator@D@std@@@std@@@std@@QEAAAEAPEADXZ
    6C7D4 ?_Mylast@?$_Vector_alloc@U?$_Vec_base_types@DV?$allocator@D@std@@@std@@@std@@QEBAAEBQEADXZ
    6C7D4 ?_Mylast@?$_Vector_alloc@U?$_Vec_base_types@IV?$allocator@I@std@@@std@@@std@@QEAAAEAPEAIXZ
    6C7D4 ?_Mylast@?$_Vector_alloc@U?$_Vec_base_types@IV?$allocator@I@std@@@std@@@std@@QEBAAEBQEAIXZ
    6C7D4 ?_Mylast@?$_Vector_alloc@U?$_Vec_base_types@U_Grp_t@?$_Tgt_state_t@PEBD@std@@V?$allocator@U_Grp_t@?$_Tgt_state_t@PEBD@std@@@3@@std@@@std@@QEAAAEAPEAU_Grp_t@?$_Tgt_state_t@PEBD@2@XZ
    6C7D4 ?_Mylast@?$_Vector_alloc@U?$_Vec_base_types@U_Grp_t@?$_Tgt_state_t@PEBD@std@@V?$allocator@U_Grp_t@?$_Tgt_state_t@PEBD@std@@@3@@std@@@std@@QEBAAEBQEAU_Grp_t@?$_Tgt_state_t@PEBD@2@XZ
    6C7D4 ?_Mylast@?$_Vector_alloc@U?$_Vec_base_types@U_Loop_vals_t@std@@V?$allocator@U_Loop_vals_t@std@@@2@@std@@@std@@QEAAAEAPEAU_Loop_vals_t@2@XZ
    6C7D4 ?_Mylast@?$_Vector_alloc@U?$_Vec_base_types@U_Loop_vals_t@std@@V?$allocator@U_Loop_vals_t@std@@@2@@std@@@std@@QEBAAEBQEAU_Loop_vals_t@2@XZ
    6C7D4 ?_Mylast@?$_Vector_alloc@U?$_Vec_base_types@V?$basic_string@DU?$char_traits@D@std@@V?$allocator@D@2@@std@@V?$allocator@V?$basic_string@DU?$char_traits@D@std@@V?$allocator@D@2@@std@@@2@@std@@@std@@QEAAAEAPEAV?$basic_string@DU?$char_traits@D@std@@V?$allocator@D@2@@2@XZ
    6C7D4 ?_Mylast@?$_Vector_alloc@U?$_Vec_base_types@V?$basic_string@DU?$char_traits@D@std@@V?$allocator@D@2@@std@@V?$allocator@V?$basic_string@DU?$char_traits@D@std@@V?$allocator@D@2@@std@@@2@@std@@@std@@QEBAAEBQEAV?$basic_string@DU?$char_traits@D@std@@V?$allocator@D@2@@2@XZ
    6C7D4 ?_Mylast@?$_Vector_alloc@U?$_Vec_base_types@V?$sub_match@PEBD@std@@V?$allocator@V?$sub_match@PEBD@std@@@2@@std@@@std@@QEAAAEAPEAV?$sub_match@PEBD@2@XZ
    6C7D4 ?_Mylast@?$_Vector_alloc@U?$_Vec_base_types@V?$sub_match@PEBD@std@@V?$allocator@V?$sub_match@PEBD@std@@@2@@std@@@std@@QEBAAEBQEAV?$sub_match@PEBD@2@XZ
    6C7D4 ?_Mynode@?$_Tree_unchecked_const_iterator@V?$_Tree_val@U?$_Tree_simple_types@U?$pair@$$CBV?$basic_string@DU?$char_traits@D@std@@V?$allocator@D@2@@std@@V12@@std@@@std@@@std@@U_Iterator_base12@2@@std@@QEBAPEAU?$_Tree_node@U?$pair@$$CBV?$basic_string@DU?$char_traits@D@std@@V?$allocator@D@2@@std@@V12@@std@@PEAX@2@XZ
    6C7D4 ?_Myproxy@?$_String_alloc@U?$_String_base_types@DV?$allocator@D@std@@@std@@@std@@QEAAAEAPEAU_Container_proxy@2@XZ
    6C7D4 ?_Myproxy@?$_Tree_comp_alloc@V?$_Tmap_traits@V?$basic_string@DU?$char_traits@D@std@@V?$allocator@D@2@@std@@V12@U?$less@V?$basic_string@DU?$char_traits@D@std@@V?$allocator@D@2@@std@@@2@V?$allocator@U?$pair@$$CBV?$basic_string@DU?$char_traits@D@std@@V?$allocator@D@2@@std@@V12@@std@@@2@$0A@@std@@@std@@QEAAAEAPEAU_Container_proxy@2@XZ
    6C7D4 ?_Myproxy@?$_Vector_alloc@U?$_Vec_base_types@DV?$allocator@D@std@@@std@@@std@@QEAAAEAPEAU_Container_proxy@2@XZ
    6C7D4 ?_Myproxy@?$_Vector_alloc@U?$_Vec_base_types@IV?$allocator@I@std@@@std@@@std@@QEAAAEAPEAU_Container_proxy@2@XZ
    6C7D4 ?_Myproxy@?$_Vector_alloc@U?$_Vec_base_types@U_Grp_t@?$_Tgt_state_t@PEBD@std@@V?$allocator@U_Grp_t@?$_Tgt_state_t@PEBD@std@@@3@@std@@@std@@QEAAAEAPEAU_Container_proxy@2@XZ
    6C7D4 ?_Myproxy@?$_Vector_alloc@U?$_Vec_base_types@U_Loop_vals_t@std@@V?$allocator@U_Loop_vals_t@std@@@2@@std@@@std@@QEAAAEAPEAU_Container_proxy@2@XZ
    6C7D4 ?_Myproxy@?$_Vector_alloc@U?$_Vec_base_types@V?$basic_string@DU?$char_traits@D@std@@V?$allocator@D@2@@std@@V?$allocator@V?$basic_string@DU?$char_traits@D@std@@V?$allocator@D@2@@std@@@2@@std@@@std@@QEAAAEAPEAU_Container_proxy@2@XZ
    6C7D4 ?_Myptr@?$_String_val@U?$_Simple_types@D@std@@@std@@QEAAPEADXZ
    6C7D4 ?_Myptr@?$_String_val@U?$_Simple_types@D@std@@@std@@QEBAPEBDXZ
    6C7D4 ?_Mysize@?$_Tree_comp_alloc@V?$_Tmap_traits@V?$basic_string@DU?$char_traits@D@std@@V?$allocator@D@2@@std@@V12@U?$less@V?$basic_string@DU?$char_traits@D@std@@V?$allocator@D@2@@std@@@2@V?$allocator@U?$pair@$$CBV?$basic_string@DU?$char_traits@D@std@@V?$allocator@D@2@@std@@V12@@std@@@2@$0A@@std@@@std@@QEAAAEA_KXZ
    6C7D4 ?_Mysize@?$_Tree_comp_alloc@V?$_Tmap_traits@V?$basic_string@DU?$char_traits@D@std@@V?$allocator@D@2@@std@@V12@U?$less@V?$basic_string@DU?$char_traits@D@std@@V?$allocator@D@2@@std@@@2@V?$allocator@U?$pair@$$CBV?$basic_string@DU?$char_traits@D@std@@V?$allocator@D@2@@std@@V12@@std@@@2@$0A@@std@@@std@@QEBAAEB_KXZ
    6C7D4 ?_Names@?1???$lookup_classname@PEBD@?$_Regex_traits@D@std@@QEBAFPEBD0_N@Z@4QBU_Cl_names@2@B
    6C7D4 ?_Negate@?$_Builder@PEBDDV?$regex_traits@D@std@@@std@@QEAAXXZ
    6C7D4 ?_New_node@?$_Builder@PEBDDV?$regex_traits@D@std@@@std@@AEAAPEAV_Node_base@2@W4_Node_type@2@@Z
    6C7D4 ?_Next@?$_Parser@PEBDDV?$regex_traits@D@std@@@std@@AEAAXXZ
    6C7D4 ?_Null@?$match_results@PEBDV?$allocator@V?$sub_match@PEBD@std@@@std@@@std@@QEAAAEAV?$sub_match@PEBD@2@XZ
    6C7D4 ?_Nw@?$_Vb_val@V?$allocator@_N@std@@@std@@SA_K_K@Z
    6C7D4 ?_OctalDigits@?$_Parser@PEBDDV?$regex_traits@D@std@@@std@@AEAA_NXZ
    6C7D4 ?_Orphan_all@?$_String_alloc@U?$_String_base_types@DV?$allocator@D@std@@@std@@@std@@QEAAXXZ
    6C7D4 ?_Orphan_all@?$_Tree_comp_alloc@V?$_Tmap_traits@V?$basic_string@DU?$char_traits@D@std@@V?$allocator@D@2@@std@@V12@U?$less@V?$basic_string@DU?$char_traits@D@std@@V?$allocator@D@2@@std@@@2@V?$allocator@U?$pair@$$CBV?$basic_string@DU?$char_traits@D@std@@V?$allocator@D@2@@std@@V12@@std@@@2@$0A@@std@@@std@@QEAAXXZ
    6C7D4 ?_Orphan_all@?$_Vector_alloc@U?$_Vec_base_types@DV?$allocator@D@std@@@std@@@std@@QEAAXXZ
    6C7D4 ?_Orphan_all@?$_Vector_alloc@U?$_Vec_base_types@IV?$allocator@I@std@@@std@@@std@@QEAAXXZ
    6C7D4 ?_Orphan_all@?$_Vector_alloc@U?$_Vec_base_types@U_Grp_t@?$_Tgt_state_t@PEBD@std@@V?$allocator@U_Grp_t@?$_Tgt_state_t@PEBD@std@@@3@@std@@@std@@QEAAXXZ
    6C7D4 ?_Orphan_all@?$_Vector_alloc@U?$_Vec_base_types@U_Loop_vals_t@std@@V?$allocator@U_Loop_vals_t@std@@@2@@std@@@std@@QEAAXXZ
    6C7D4 ?_Orphan_all@?$_Vector_alloc@U?$_Vec_base_types@V?$basic_string@DU?$char_traits@D@std@@V?$allocator@D@2@@std@@V?$allocator@V?$basic_string@DU?$char_traits@D@std@@V?$allocator@D@2@@std@@@2@@std@@@std@@QEAAXXZ
    6C7D4 ?_Orphan_all@?$_Vector_alloc@U?$_Vec_base_types@V?$sub_match@PEBD@std@@V?$allocator@V?$sub_match@PEBD@std@@@2@@std@@@std@@QEAAXXZ
    6C7D4 ?_Orphan_all@_Container_base12@std@@QEAAXXZ
    6C7D4 ?_Orphan_me@_Iterator_base12@std@@QEAAXXZ
    6C7D4 ?_Orphan_ptr@?$_Tree@V?$_Tmap_traits@V?$basic_string@DU?$char_traits@D@std@@V?$allocator@D@2@@std@@V12@U?$less@V?$basic_string@DU?$char_traits@D@std@@V?$allocator@D@2@@std@@@2@V?$allocator@U?$pair@$$CBV?$basic_string@DU?$char_traits@D@std@@V?$allocator@D@2@@std@@V12@@std@@@2@$0A@@std@@@std@@IEAAXPEAU?$_Tree_node@U?$pair@$$CBV?$basic_string@DU?$char_traits@D@std@@V?$allocator@D@2@@std@@V12@@std@@PEAX@2@@Z
    6C7D4 ?_Orphan_range@?$vector@IV?$allocator@I@std@@@std@@AEBAXPEAI0@Z
    6C7D4 ?_Orphan_range@?$vector@U_Grp_t@?$_Tgt_state_t@PEBD@std@@V?$allocator@U_Grp_t@?$_Tgt_state_t@PEBD@std@@@3@@std@@AEBAXPEAU_Grp_t@?$_Tgt_state_t@PEBD@2@0@Z
    6C7D4 ?_Orphan_range@?$vector@U_Loop_vals_t@std@@V?$allocator@U_Loop_vals_t@std@@@2@@std@@AEBAXPEAU_Loop_vals_t@2@0@Z
    6C7D4 ?_Orphan_range@?$vector@V?$basic_string@DU?$char_traits@D@std@@V?$allocator@D@2@@std@@V?$allocator@V?$basic_string@DU?$char_traits@D@std@@V?$allocator@D@2@@std@@@2@@std@@AEBAXPEAV?$basic_string@DU?$char_traits@D@std@@V?$allocator@D@2@@2@0@Z
    6C7D4 ?_Orphan_range@?$vector@V?$sub_match@PEBD@std@@V?$allocator@V?$sub_match@PEBD@std@@@2@@std@@AEBAXPEAV?$sub_match@PEBD@2@0@Z
    6C7D4 ?_Orphan_range@?$vector@_NV?$allocator@_N@std@@@std@@QEBAX_K0@Z
    6C7D4 ?_Pfx@?$match_results@PEBDV?$allocator@V?$sub_match@PEBD@std@@@std@@@std@@QEAAAEAV?$sub_match@PEBD@2@XZ
    6C7D4 ?_Psave@?$_Facetptr@V?$codecvt@DDU_Mbstatet@@@std@@@std@@2PEBVfacet@locale@2@EB
    6C7D4 ?_Psave@?$_Facetptr@V?$collate@D@std@@@std@@2PEBVfacet@locale@2@EB
    6C7D4 ?_Psave@?$_Facetptr@V?$ctype@D@std@@@std@@2PEBVfacet@locale@2@EB
    6C7D4 ?_Psave@?$_Facetptr@V?$time_put@DV?$ostreambuf_iterator@DU?$char_traits@D@std@@@std@@@std@@@std@@2PEBVfacet@locale@2@EB
    6C7D4 ?_Quantifier@?$_Parser@PEBDDV?$regex_traits@D@std@@@std@@AEAAXXZ
    6C7D4 ?_Reset@?$basic_regex@DV?$regex_traits@D@std@@@std@@AEAAXPEAV_Root_node@2@@Z
    6C7D4 ?_Reset_back@?$basic_filebuf@DU?$char_traits@D@std@@@std@@AEAAXXZ
    6C7D4 ?_Resize@?$match_results@PEBDV?$allocator@V?$sub_match@PEBD@std@@@std@@@std@@QEAAXI@Z
    6C7D4 ?_Rmost@?$_Tree@V?$_Tmap_traits@V?$basic_string@DU?$char_traits@D@std@@V?$allocator@D@2@@std@@V12@U?$less@V?$basic_string@DU?$char_traits@D@std@@V?$allocator@D@2@@std@@@2@V?$allocator@U?$pair@$$CBV?$basic_string@DU?$char_traits@D@std@@V?$allocator@D@2@@std@@V12@@std@@@2@$0A@@std@@@std@@IEBAAEAPEAU?$_Tree_node@U?$pair@$$CBV?$basic_string@DU?$char_traits@D@std@@V?$allocator@D@2@@std@@V12@@std@@PEAX@2@XZ
    6C7D4 ?_Root@?$_Tree@V?$_Tmap_traits@V?$basic_string@DU?$char_traits@D@std@@V?$allocator@D@2@@std@@V12@U?$less@V?$basic_string@DU?$char_traits@D@std@@V?$allocator@D@2@@std@@@2@V?$allocator@U?$pair@$$CBV?$basic_string@DU?$char_traits@D@std@@V?$allocator@D@2@@std@@V12@@std@@@2@$0A@@std@@@std@@IEBAAEAPEAU?$_Tree_node@U?$pair@$$CBV?$basic_string@DU?$char_traits@D@std@@V?$allocator@D@2@@std@@V12@@std@@PEAX@2@XZ
    6C7D4 ?_Rrotate@?$_Tree@V?$_Tmap_traits@V?$basic_string@DU?$char_traits@D@std@@V?$allocator@D@2@@std@@V12@U?$less@V?$basic_string@DU?$char_traits@D@std@@V?$allocator@D@2@@std@@@2@V?$allocator@U?$pair@$$CBV?$basic_string@DU?$char_traits@D@std@@V?$allocator@D@2@@std@@V12@@std@@@2@$0A@@std@@@std@@IEAAXPEAU?$_Tree_node@U?$pair@$$CBV?$basic_string@DU?$char_traits@D@std@@V?$allocator@D@2@@std@@V12@@std@@PEAX@2@@Z
    6C7D4 ?_Set_back@?$basic_filebuf@DU?$char_traits@D@std@@@std@@AEAAXXZ
    6C7D4 ?_Setlong@?$_Builder@PEBDDV?$regex_traits@D@std@@@std@@QEAAXXZ
    6C7D4 ?_Sfx@?$match_results@PEBDV?$allocator@V?$sub_match@PEBD@std@@@std@@@std@@QEAAAEAV?$sub_match@PEBD@2@XZ
    6C7D4 ?_Size@?$_Buf@D@std@@QEBAIXZ
    6C7D4 ?_Stinit@?1??_Init@?$basic_filebuf@DU?$char_traits@D@std@@@std@@IEAAXPEAU_iobuf@@W4_Initfl@23@@Z@4U_Mbstatet@@A
    6C7D4 ?_Str@?$_Buf@D@std@@QEBAPEBDXZ
    6C7D4 ?_Swap_all@?$_String_alloc@U?$_String_base_types@DV?$allocator@D@std@@@std@@@std@@QEAAXAEAV12@@Z
    6C7D4 ?_Swap_all@?$_Vector_alloc@U?$_Vec_base_types@V?$basic_string@DU?$char_traits@D@std@@V?$allocator@D@2@@std@@V?$allocator@V?$basic_string@DU?$char_traits@D@std@@V?$allocator@D@2@@std@@@2@@std@@@std@@QEAAXAEAV12@@Z
    6C7D4 ?_Swap_all@_Container_base12@std@@QEAAXAEAU12@@Z
    6C7D4 ?_Tidy@?$_Node_class@DV?$regex_traits@D@std@@@std@@QEAAXPEAU?$_Sequence@D@2@@Z
    6C7D4 ?_Tidy@?$_Tree@V?$_Tmap_traits@V?$basic_string@DU?$char_traits@D@std@@V?$allocator@D@2@@std@@V12@U?$less@V?$basic_string@DU?$char_traits@D@std@@V?$allocator@D@2@@std@@@2@V?$allocator@U?$pair@$$CBV?$basic_string@DU?$char_traits@D@std@@V?$allocator@D@2@@std@@V12@@std@@@2@$0A@@std@@@std@@IEAAXXZ
    6C7D4 ?_Tidy@?$basic_regex@DV?$regex_traits@D@std@@@std@@AEAAXXZ
    6C7D4 ?_Tidy@?$basic_stringbuf@DU?$char_traits@D@std@@V?$allocator@D@2@@std@@IEAAXXZ
    6C7D4 ?_Tidy@?$vector@DV?$allocator@D@std@@@std@@AEAAXXZ
    6C7D4 ?_Tidy@?$vector@IV?$allocator@I@std@@@std@@AEAAXXZ
    6C7D4 ?_Tidy@?$vector@U_Grp_t@?$_Tgt_state_t@PEBD@std@@V?$allocator@U_Grp_t@?$_Tgt_state_t@PEBD@std@@@3@@std@@AEAAXXZ
    6C7D4 ?_Tidy@?$vector@U_Loop_vals_t@std@@V?$allocator@U_Loop_vals_t@std@@@2@@std@@AEAAXXZ
    6C7D4 ?_Tidy@?$vector@V?$basic_string@DU?$char_traits@D@std@@V?$allocator@D@2@@std@@V?$allocator@V?$basic_string@DU?$char_traits@D@std@@V?$allocator@D@2@@std@@@2@@std@@AEAAXXZ
    6C7D4 ?_Tidy_deallocate@?$basic_string@DU?$char_traits@D@std@@V?$allocator@D@2@@std@@QEAAXXZ
    6C7D4 ?_Tidy_init@?$basic_string@DU?$char_traits@D@std@@V?$allocator@D@2@@std@@QEAAXXZ
    6C7D4 ?_Trans@?$_Parser@PEBDDV?$regex_traits@D@std@@@std@@AEAAXXZ
    6C7D4 ?_Trim@?$vector@_NV?$allocator@_N@std@@@std@@QEAAX_K@Z
    6C7D4 ?_Udefault@?$vector@U_Grp_t@?$_Tgt_state_t@PEBD@std@@V?$allocator@U_Grp_t@?$_Tgt_state_t@PEBD@std@@@3@@std@@AEAAPEAU_Grp_t@?$_Tgt_state_t@PEBD@2@PEAU342@_K@Z
    6C7D4 ?_Udefault@?$vector@U_Loop_vals_t@std@@V?$allocator@U_Loop_vals_t@std@@@2@@std@@AEAAPEAU_Loop_vals_t@2@PEAU32@_K@Z
    6C7D4 ?_Udefault@?$vector@V?$sub_match@PEBD@std@@V?$allocator@V?$sub_match@PEBD@std@@@2@@std@@AEAAPEAV?$sub_match@PEBD@2@PEAV32@_K@Z
    6C7D4 ?_Ufill@?$vector@IV?$allocator@I@std@@@std@@AEAAPEAIPEAI_KAEBI@Z
    6C7D4 ?_Umove@?$vector@V?$basic_string@DU?$char_traits@D@std@@V?$allocator@D@2@@std@@V?$allocator@V?$basic_string@DU?$char_traits@D@std@@V?$allocator@D@2@@std@@@2@@std@@AEAAPEAV?$basic_string@DU?$char_traits@D@std@@V?$allocator@D@2@@2@PEAV32@00@Z
    6C7D4 ?_Umove_if_noexcept1@?$vector@IV?$allocator@I@std@@@std@@AEAAXPEAI00U?$integral_constant@_N$00@2@@Z
    6C7D4 ?_Umove_if_noexcept1@?$vector@U_Grp_t@?$_Tgt_state_t@PEBD@std@@V?$allocator@U_Grp_t@?$_Tgt_state_t@PEBD@std@@@3@@std@@AEAAXPEAU_Grp_t@?$_Tgt_state_t@PEBD@2@00U?$integral_constant@_N$00@2@@Z
    6C7D4 ?_Umove_if_noexcept1@?$vector@U_Loop_vals_t@std@@V?$allocator@U_Loop_vals_t@std@@@2@@std@@AEAAXPEAU_Loop_vals_t@2@00U?$integral_constant@_N$00@2@@Z
    6C7D4 ?_Umove_if_noexcept1@?$vector@V?$basic_string@DU?$char_traits@D@std@@V?$allocator@D@2@@std@@V?$allocator@V?$basic_string@DU?$char_traits@D@std@@V?$allocator@D@2@@std@@@2@@std@@AEAAXPEAV?$basic_string@DU?$char_traits@D@std@@V?$allocator@D@2@@2@00U?$integral_constant@_N$00@2@@Z
    6C7D4 ?_Umove_if_noexcept1@?$vector@V?$sub_match@PEBD@std@@V?$allocator@V?$sub_match@PEBD@std@@@2@@std@@AEAAXPEAV?$sub_match@PEBD@2@00U?$integral_constant@_N$00@2@@Z
    6C7D4 ?_Umove_if_noexcept@?$vector@IV?$allocator@I@std@@@std@@AEAAXPEAI00@Z
    6C7D4 ?_Umove_if_noexcept@?$vector@U_Grp_t@?$_Tgt_state_t@PEBD@std@@V?$allocator@U_Grp_t@?$_Tgt_state_t@PEBD@std@@@3@@std@@AEAAXPEAU_Grp_t@?$_Tgt_state_t@PEBD@2@00@Z
    6C7D4 ?_Umove_if_noexcept@?$vector@U_Loop_vals_t@std@@V?$allocator@U_Loop_vals_t@std@@@2@@std@@AEAAXPEAU_Loop_vals_t@2@00@Z
    6C7D4 ?_Umove_if_noexcept@?$vector@V?$basic_string@DU?$char_traits@D@std@@V?$allocator@D@2@@std@@V?$allocator@V?$basic_string@DU?$char_traits@D@std@@V?$allocator@D@2@@std@@@2@@std@@AEAAXPEAV?$basic_string@DU?$char_traits@D@std@@V?$allocator@D@2@@2@00@Z
    6C7D4 ?_Umove_if_noexcept@?$vector@V?$sub_match@PEBD@std@@V?$allocator@V?$sub_match@PEBD@std@@@2@@std@@AEAAXPEAV?$sub_match@PEBD@2@00@Z
    6C7D4 ?_Unlock@?$basic_filebuf@DU?$char_traits@D@std@@@std@@UEAAXXZ
    6C7D4 ?_Unused_capacity@?$vector@V?$basic_string@DU?$char_traits@D@std@@V?$allocator@D@2@@std@@V?$allocator@V?$basic_string@DU?$char_traits@D@std@@V?$allocator@D@2@@std@@@2@@std@@AEBA_KXZ
    6C7D4 ?_Valid@?$_Vb_iter_base@U?$_Wrap_alloc@V?$allocator@I@std@@@std@@@std@@QEBAH_K@Z
    6C7D4 ?_Wrapped_disjunction@?$_Parser@PEBDDV?$regex_traits@D@std@@@std@@AEAA_NXZ
    6C7D4 ?_Xlen@?$basic_string@DU?$char_traits@D@std@@V?$allocator@D@2@@std@@SAXXZ
    6C7D4 ?_Xlen@?$vector@_NV?$allocator@_N@std@@@std@@QEBAXXZ
    6C7D4 ?_Xlength@?$vector@DV?$allocator@D@std@@@std@@CAXXZ
    6C7D4 ?_Xlength@?$vector@IV?$allocator@I@std@@@std@@CAXXZ
    6C7D4 ?_Xlength@?$vector@U_Grp_t@?$_Tgt_state_t@PEBD@std@@V?$allocator@U_Grp_t@?$_Tgt_state_t@PEBD@std@@@3@@std@@CAXXZ
    6C7D4 ?_Xlength@?$vector@U_Loop_vals_t@std@@V?$allocator@U_Loop_vals_t@std@@@2@@std@@CAXXZ
    6C7D4 ?_Xlength@?$vector@V?$basic_string@DU?$char_traits@D@std@@V?$allocator@D@2@@std@@V?$allocator@V?$basic_string@DU?$char_traits@D@std@@V?$allocator@D@2@@std@@@2@@std@@CAXXZ
    6C7D4 ?_Xlength@?$vector@V?$sub_match@PEBD@std@@V?$allocator@V?$sub_match@PEBD@std@@@2@@std@@CAXXZ
    6C7D4 ?_Xran@?$_String_val@U?$_Simple_types@D@std@@@std@@SAXXZ
    6C7D4 ?__LINE__Var@?0??_Allocate@std@@YAPEAX_K0_N@Z@4JA
    6C7D4 ?__LINE__Var@?0??_Deallocate@std@@YAXPEAX_K1@Z@4JA
    6C7D4 ?__empty_global_delete@@YAXPEAX@Z
    6C7D4 ?__empty_global_delete@@YAXPEAX_K@Z
    6C7D4 ?addNodes@Tools@@CAXAEAV?$vector@V?$basic_string@DU?$char_traits@D@std@@V?$allocator@D@2@@std@@V?$allocator@V?$basic_string@DU?$char_traits@D@std@@V?$allocator@D@2@@std@@@2@@std@@AEAV?$_Vector_iterator@V?$_Vector_val@U?$_Simple_types@V?$basic_string@DU?$char_traits@D@std@@V?$allocator@D@2@@std@@@std@@@std@@@3@1PEAV?$Tree@V?$basic_string@DU?$char_traits@D@std@@V?$allocator@D@2@@std@@V12@@@H00@Z
    6C7D4 ?addNodesRecursive@Tools@@CAXAEAV?$vector@V?$basic_string@DU?$char_traits@D@std@@V?$allocator@D@2@@std@@V?$allocator@V?$basic_string@DU?$char_traits@D@std@@V?$allocator@D@2@@std@@@2@@std@@AEAV?$_Vector_iterator@V?$_Vector_val@U?$_Simple_types@V?$basic_string@DU?$char_traits@D@std@@V?$allocator@D@2@@std@@@std@@@std@@@3@1PEAV?$Tree@V?$basic_string@DU?$char_traits@D@std@@V?$allocator@D@2@@std@@V12@@@H00@Z
    6C7D4 ?allocate@?$allocator@D@std@@QEAAPEAD_K@Z
    6C7D4 ?allocate@?$allocator@I@std@@QEAAPEAI_K@Z
    6C7D4 ?allocate@?$allocator@U?$_Tree_node@U?$pair@$$CBV?$basic_string@DU?$char_traits@D@std@@V?$allocator@D@2@@std@@V12@@std@@PEAX@std@@@std@@QEAAPEAU?$_Tree_node@U?$pair@$$CBV?$basic_string@DU?$char_traits@D@std@@V?$allocator@D@2@@std@@V12@@std@@PEAX@2@_K@Z
    6C7D4 ?allocate@?$allocator@U_Container_proxy@std@@@std@@QEAAPEAU_Container_proxy@2@_K@Z
    6C7D4 ?allocate@?$allocator@U_Grp_t@?$_Tgt_state_t@PEBD@std@@@std@@QEAAPEAU_Grp_t@?$_Tgt_state_t@PEBD@2@_K@Z
    6C7D4 ?allocate@?$allocator@U_Loop_vals_t@std@@@std@@QEAAPEAU_Loop_vals_t@2@_K@Z
    6C7D4 ?allocate@?$allocator@V?$basic_string@DU?$char_traits@D@std@@V?$allocator@D@2@@std@@@std@@QEAAPEAV?$basic_string@DU?$char_traits@D@std@@V?$allocator@D@2@@2@_K@Z
    6C7D4 ?allocate@?$allocator@V?$sub_match@PEBD@std@@@std@@QEAAPEAV?$sub_match@PEBD@2@_K@Z
    6C7D4 ?append@?$basic_string@DU?$char_traits@D@std@@V?$allocator@D@2@@std@@QEAAAEAV12@AEBV12@@Z
    6C7D4 ?append@?$basic_string@DU?$char_traits@D@std@@V?$allocator@D@2@@std@@QEAAAEAV12@QEBD@Z
    6C7D4 ?append@?$basic_string@DU?$char_traits@D@std@@V?$allocator@D@2@@std@@QEAAAEAV12@QEBD_K@Z
    6C7D4 ?append@?$basic_string@DU?$char_traits@D@std@@V?$allocator@D@2@@std@@QEAAAEAV12@_KD@Z
    6C7D4 ?assign@?$basic_string@DU?$char_traits@D@std@@V?$allocator@D@2@@std@@QEAAAEAV12@AEBV12@_K_K@Z
    6C7D4 ?assign@?$basic_string@DU?$char_traits@D@std@@V?$allocator@D@2@@std@@QEAAAEAV12@QEBD@Z
    6C7D4 ?assign@?$basic_string@DU?$char_traits@D@std@@V?$allocator@D@2@@std@@QEAAAEAV12@QEBD_K@Z
    6C7D4 ?assign@?$basic_string@DU?$char_traits@D@std@@V?$allocator@D@2@@std@@QEAAAEAV12@_KD@Z
    6C7D4 ?assign@?$char_traits@D@std@@SAPEADQEAD_KD@Z
    6C7D4 ?assign@?$char_traits@D@std@@SAXAEADAEBD@Z
    6C7D4 ?at@?$basic_string@DU?$char_traits@D@std@@V?$allocator@D@2@@std@@QEAAAEAD_K@Z
    6C7D4 ?begin@?$_Tree@V?$_Tmap_traits@V?$basic_string@DU?$char_traits@D@std@@V?$allocator@D@2@@std@@V12@U?$less@V?$basic_string@DU?$char_traits@D@std@@V?$allocator@D@2@@std@@@2@V?$allocator@U?$pair@$$CBV?$basic_string@DU?$char_traits@D@std@@V?$allocator@D@2@@std@@V12@@std@@@2@$0A@@std@@@std@@QEAA?AV?$_Tree_iterator@V?$_Tree_val@U?$_Tree_simple_types@U?$pair@$$CBV?$basic_string@DU?$char_traits@D@std@@V?$allocator@D@2@@std@@V12@@std@@@std@@@std@@@2@XZ
    6C7D4 ?begin@?$basic_string@DU?$char_traits@D@std@@V?$allocator@D@2@@std@@QEAA?AV?$_String_iterator@V?$_String_val@U?$_Simple_types@D@std@@@std@@@2@XZ
    6C7D4 ?begin@?$basic_string@DU?$char_traits@D@std@@V?$allocator@D@2@@std@@QEBA?AV?$_String_const_iterator@V?$_String_val@U?$_Simple_types@D@std@@@std@@@2@XZ
    6C7D4 ?begin@?$initializer_list@U?$pair@$$CBV?$basic_string@DU?$char_traits@D@std@@V?$allocator@D@2@@std@@V12@@std@@@std@@QEBAPEBU?$pair@$$CBV?$basic_string@DU?$char_traits@D@std@@V?$allocator@D@2@@std@@V12@@2@XZ
    6C7D4 ?begin@?$vector@IV?$allocator@I@std@@@std@@QEAA?AV?$_Vector_iterator@V?$_Vector_val@U?$_Simple_types@I@std@@@std@@@2@XZ
    6C7D4 ?begin@?$vector@V?$basic_string@DU?$char_traits@D@std@@V?$allocator@D@2@@std@@V?$allocator@V?$basic_string@DU?$char_traits@D@std@@V?$allocator@D@2@@std@@@2@@std@@QEAA?AV?$_Vector_iterator@V?$_Vector_val@U?$_Simple_types@V?$basic_string@DU?$char_traits@D@std@@V?$allocator@D@2@@std@@@std@@@std@@@2@XZ
    6C7D4 ?begin@?$vector@_NV?$allocator@_N@std@@@std@@QEAA?AV?$_Vb_iterator@U?$_Wrap_alloc@V?$allocator@I@std@@@std@@@2@XZ
    6C7D4 ?c_str@?$basic_string@DU?$char_traits@D@std@@V?$allocator@D@2@@std@@QEBAPEBDXZ
    6C7D4 ?capacity@?$vector@DV?$allocator@D@std@@@std@@QEBA_KXZ
    6C7D4 ?capacity@?$vector@IV?$allocator@I@std@@@std@@QEBA_KXZ
    6C7D4 ?capacity@?$vector@U_Grp_t@?$_Tgt_state_t@PEBD@std@@V?$allocator@U_Grp_t@?$_Tgt_state_t@PEBD@std@@@3@@std@@QEBA_KXZ
    6C7D4 ?capacity@?$vector@U_Loop_vals_t@std@@V?$allocator@U_Loop_vals_t@std@@@2@@std@@QEBA_KXZ
    6C7D4 ?capacity@?$vector@V?$basic_string@DU?$char_traits@D@std@@V?$allocator@D@2@@std@@V?$allocator@V?$basic_string@DU?$char_traits@D@std@@V?$allocator@D@2@@std@@@2@@std@@QEBA_KXZ
    6C7D4 ?capacity@?$vector@V?$sub_match@PEBD@std@@V?$allocator@V?$sub_match@PEBD@std@@@2@@std@@QEBA_KXZ
    6C7D4 ?capacity@?$vector@_NV?$allocator@_N@std@@@std@@QEBA_KXZ
    6C7D4 ?cbegin@?$basic_string@DU?$char_traits@D@std@@V?$allocator@D@2@@std@@QEBA?AV?$_String_const_iterator@V?$_String_val@U?$_Simple_types@D@std@@@std@@@2@XZ
    6C7D4 ?clear@?$_Tree@V?$_Tmap_traits@V?$basic_string@DU?$char_traits@D@std@@V?$allocator@D@2@@std@@V12@U?$less@V?$basic_string@DU?$char_traits@D@std@@V?$allocator@D@2@@std@@@2@V?$allocator@U?$pair@$$CBV?$basic_string@DU?$char_traits@D@std@@V?$allocator@D@2@@std@@V12@@std@@@2@$0A@@std@@@std@@QEAAXXZ
    6C7D4 ?clearScreen@Tools@@SAXV?$basic_string@DU?$char_traits@D@std@@V?$allocator@D@2@@std@@@Z
    6C7D4 ?close@?$basic_filebuf@DU?$char_traits@D@std@@@std@@QEAAPEAV12@XZ
    6C7D4 ?close@?$basic_ifstream@DU?$char_traits@D@std@@@std@@QEAAXXZ
    6C7D4 ?compare@?$basic_string@DU?$char_traits@D@std@@V?$allocator@D@2@@std@@QEBAHAEBV12@@Z
    6C7D4 ?compare@?$char_traits@D@std@@SAHQEBD0_K@Z
    6C7D4 ?copy@?$char_traits@D@std@@SAPEADQEADQEBD_K@Z
    6C7D4 ?data@?$basic_string@DU?$char_traits@D@std@@V?$allocator@D@2@@std@@QEBAPEBDXZ
    6C7D4 ?data@?$vector@DV?$allocator@D@std@@@std@@QEAAPEADXZ
    6C7D4 ?data@?$vector@IV?$allocator@I@std@@@std@@QEAAPEAIXZ
    6C7D4 ?data@?$vector@IV?$allocator@I@std@@@std@@QEBAPEBIXZ
    6C7D4 ?dateTimeToString@Tools@@SA?AV?$basic_string@DU?$char_traits@D@std@@V?$allocator@D@2@@std@@XZ
    6C7D4 ?dateToString@Tools@@SA?AV?$basic_string@DU?$char_traits@D@std@@V?$allocator@D@2@@std@@XZ
    6C7D4 ?dateToString@Tools@@SA?AV?$basic_string@DU?$char_traits@D@std@@V?$allocator@D@2@@std@@_J@Z
    6C7D4 ?deallocate@?$_Default_allocator_traits@V?$allocator@U_Container_proxy@std@@@std@@@std@@SAXAEAV?$allocator@U_Container_proxy@std@@@2@QEAU_Container_proxy@2@_K@Z
    6C7D4 ?deallocate@?$allocator@D@std@@QEAAXQEAD_K@Z
    6C7D4 ?deallocate@?$allocator@I@std@@QEAAXQEAI_K@Z
    6C7D4 ?deallocate@?$allocator@U?$_Tree_node@U?$pair@$$CBV?$basic_string@DU?$char_traits@D@std@@V?$allocator@D@2@@std@@V12@@std@@PEAX@std@@@std@@QEAAXQEAU?$_Tree_node@U?$pair@$$CBV?$basic_string@DU?$char_traits@D@std@@V?$allocator@D@2@@std@@V12@@std@@PEAX@2@_K@Z
    6C7D4 ?deallocate@?$allocator@U_Grp_t@?$_Tgt_state_t@PEBD@std@@@std@@QEAAXQEAU_Grp_t@?$_Tgt_state_t@PEBD@2@_K@Z
    6C7D4 ?deallocate@?$allocator@U_Loop_vals_t@std@@@std@@QEAAXQEAU_Loop_vals_t@2@_K@Z
    6C7D4 ?deallocate@?$allocator@V?$basic_string@DU?$char_traits@D@std@@V?$allocator@D@2@@std@@@std@@QEAAXQEAV?$basic_string@DU?$char_traits@D@std@@V?$allocator@D@2@@2@_K@Z
    6C7D4 ?deallocate@?$allocator@V?$sub_match@PEBD@std@@@std@@QEAAXQEAV?$sub_match@PEBD@2@_K@Z
    6C7D4 ?do_compare@?$collate@D@std@@MEBAHPEBD000@Z
    6C7D4 ?do_hash@?$collate@D@std@@MEBAJPEBD0@Z
    6C7D4 ?do_transform@?$collate@D@std@@MEBA?AV?$basic_string@DU?$char_traits@D@std@@V?$allocator@D@2@@2@PEBD0@Z
    6C7D4 ?empty@?$vector@_NV?$allocator@_N@std@@@std@@QEBA_NXZ
    6C7D4 ?end@?$_Tree@V?$_Tmap_traits@V?$basic_string@DU?$char_traits@D@std@@V?$allocator@D@2@@std@@V12@U?$less@V?$basic_string@DU?$char_traits@D@std@@V?$allocator@D@2@@std@@@2@V?$allocator@U?$pair@$$CBV?$basic_string@DU?$char_traits@D@std@@V?$allocator@D@2@@std@@V12@@std@@@2@$0A@@std@@@std@@QEAA?AV?$_Tree_iterator@V?$_Tree_val@U?$_Tree_simple_types@U?$pair@$$CBV?$basic_string@DU?$char_traits@D@std@@V?$allocator@D@2@@std@@V12@@std@@@std@@@std@@@2@XZ
    6C7D4 ?end@?$basic_string@DU?$char_traits@D@std@@V?$allocator@D@2@@std@@QEAA?AV?$_String_iterator@V?$_String_val@U?$_Simple_types@D@std@@@std@@@2@XZ
    6C7D4 ?end@?$basic_string@DU?$char_traits@D@std@@V?$allocator@D@2@@std@@QEBA?AV?$_String_const_iterator@V?$_String_val@U?$_Simple_types@D@std@@@std@@@2@XZ
    6C7D4 ?end@?$initializer_list@U?$pair@$$CBV?$basic_string@DU?$char_traits@D@std@@V?$allocator@D@2@@std@@V12@@std@@@std@@QEBAPEBU?$pair@$$CBV?$basic_string@DU?$char_traits@D@std@@V?$allocator@D@2@@std@@V12@@2@XZ
    6C7D4 ?end@?$vector@IV?$allocator@I@std@@@std@@QEAA?AV?$_Vector_iterator@V?$_Vector_val@U?$_Simple_types@I@std@@@std@@@2@XZ
    6C7D4 ?end@?$vector@V?$basic_string@DU?$char_traits@D@std@@V?$allocator@D@2@@std@@V?$allocator@V?$basic_string@DU?$char_traits@D@std@@V?$allocator@D@2@@std@@@2@@std@@QEAA?AV?$_Vector_iterator@V?$_Vector_val@U?$_Simple_types@V?$basic_string@DU?$char_traits@D@std@@V?$allocator@D@2@@std@@@std@@@std@@@2@XZ
    6C7D4 ?end@?$vector@_NV?$allocator@_N@std@@@std@@QEAA?AV?$_Vb_iterator@U?$_Wrap_alloc@V?$allocator@I@std@@@std@@@2@XZ
    6C7D4 ?eof@?$char_traits@D@std@@SAHXZ
    6C7D4 ?eq@?$char_traits@D@std@@SA_NAEBD0@Z
    6C7D4 ?eq_int_type@?$char_traits@D@std@@SA_NAEBH0@Z
    6C7D4 ?erase@?$_Tree@V?$_Tmap_traits@V?$basic_string@DU?$char_traits@D@std@@V?$allocator@D@2@@std@@V12@U?$less@V?$basic_string@DU?$char_traits@D@std@@V?$allocator@D@2@@std@@@2@V?$allocator@U?$pair@$$CBV?$basic_string@DU?$char_traits@D@std@@V?$allocator@D@2@@std@@V12@@std@@@2@$0A@@std@@@std@@QEAA?AV?$_Tree_iterator@V?$_Tree_val@U?$_Tree_simple_types@U?$pair@$$CBV?$basic_string@DU?$char_traits@D@std@@V?$allocator@D@2@@std@@V12@@std@@@std@@@std@@@2@V?$_Tree_const_iterator@V?$_Tree_val@U?$_Tree_simple_types@U?$pair@$$CBV?$basic_string@DU?$char_traits@D@std@@V?$allocator@D@2@@std@@V12@@std@@@std@@@std@@@2@0@Z
    6C7D4 ?erase@?$_Tree@V?$_Tmap_traits@V?$basic_string@DU?$char_traits@D@std@@V?$allocator@D@2@@std@@V12@U?$less@V?$basic_string@DU?$char_traits@D@std@@V?$allocator@D@2@@std@@@2@V?$allocator@U?$pair@$$CBV?$basic_string@DU?$char_traits@D@std@@V?$allocator@D@2@@std@@V12@@std@@@2@$0A@@std@@@std@@QEAA?AV?$_Tree_iterator@V?$_Tree_val@U?$_Tree_simple_types@U?$pair@$$CBV?$basic_string@DU?$char_traits@D@std@@V?$allocator@D@2@@std@@V12@@std@@@std@@@std@@@2@V?$_Tree_const_iterator@V?$_Tree_val@U?$_Tree_simple_types@U?$pair@$$CBV?$basic_string@DU?$char_traits@D@std@@V?$allocator@D@2@@std@@V12@@std@@@std@@@std@@@2@@Z
    6C7D4 ?erase@?$basic_string@DU?$char_traits@D@std@@V?$allocator@D@2@@std@@QEAA?AV?$_String_iterator@V?$_String_val@U?$_Simple_types@D@std@@@std@@@2@V?$_String_const_iterator@V?$_String_val@U?$_Simple_types@D@std@@@std@@@2@0@Z
    6C7D4 ?erase@?$basic_string@DU?$char_traits@D@std@@V?$allocator@D@2@@std@@QEAAAEAV12@_K@Z
    6C7D4 ?erase@?$basic_string@DU?$char_traits@D@std@@V?$allocator@D@2@@std@@QEAAAEAV12@_K_K@Z
    6C7D4 ?erase@?$vector@IV?$allocator@I@std@@@std@@QEAA?AV?$_Vector_iterator@V?$_Vector_val@U?$_Simple_types@I@std@@@std@@@2@V?$_Vector_const_iterator@V?$_Vector_val@U?$_Simple_types@I@std@@@std@@@2@0@Z
    6C7D4 ?erase@?$vector@_NV?$allocator@_N@std@@@std@@QEAA?AV?$_Vb_iterator@U?$_Wrap_alloc@V?$allocator@I@std@@@std@@@2@V?$_Vb_const_iterator@U?$_Wrap_alloc@V?$allocator@I@std@@@std@@@2@0@Z
    6C7D4 ?failed@?$ostreambuf_iterator@DU?$char_traits@D@std@@@std@@QEBA_NXZ
    6C7D4 ?fileExists@Tools@@SA_NV?$basic_string@DU?$char_traits@D@std@@V?$allocator@D@2@@std@@0@Z
    6C7D4 ?find@?$basic_string@DU?$char_traits@D@std@@V?$allocator@D@2@@std@@QEBA_KQEBD_K@Z
    6C7D4 ?find@?$char_traits@D@std@@SAPEBDQEBD_KAEBD@Z
    6C7D4 ?findCloseRecursive@Tools@@CA?AV?$_Vector_iterator@V?$_Vector_val@U?$_Simple_types@V?$basic_string@DU?$char_traits@D@std@@V?$allocator@D@2@@std@@@std@@@std@@@std@@AEAV?$vector@V?$basic_string@DU?$char_traits@D@std@@V?$allocator@D@2@@std@@V?$allocator@V?$basic_string@DU?$char_traits@D@std@@V?$allocator@D@2@@std@@@2@@3@V23@V?$basic_string@DU?$char_traits@D@std@@V?$allocator@D@2@@3@@Z
    6C7D4 ?findXMLClose@Tools@@CA?AV?$_Vector_iterator@V?$_Vector_val@U?$_Simple_types@V?$basic_string@DU?$char_traits@D@std@@V?$allocator@D@2@@std@@@std@@@std@@@std@@AEAV?$vector@V?$basic_string@DU?$char_traits@D@std@@V?$allocator@D@2@@std@@V?$allocator@V?$basic_string@DU?$char_traits@D@std@@V?$allocator@D@2@@std@@@2@@3@V23@V?$basic_string@DU?$char_traits@D@std@@V?$allocator@D@2@@3@@Z
    6C7D4 ?find_first_not_of@?$basic_string@DU?$char_traits@D@std@@V?$allocator@D@2@@std@@QEBA_KQEBD_K@Z
    6C7D4 ?find_first_of@?$basic_string@DU?$char_traits@D@std@@V?$allocator@D@2@@std@@QEBA_KD_K@Z
    6C7D4 ?find_first_of@?$basic_string@DU?$char_traits@D@std@@V?$allocator@D@2@@std@@QEBA_KQEBD_K@Z
    6C7D4 ?find_last_not_of@?$basic_string@DU?$char_traits@D@std@@V?$allocator@D@2@@std@@QEBA_KQEBD_K@Z
    6C7D4 ?flags@?$basic_regex@DV?$regex_traits@D@std@@@std@@QEBA?AW4syntax_option_type@regex_constants@2@XZ
    6C7D4 ?get_allocator@?$basic_string@DU?$char_traits@D@std@@V?$allocator@D@2@@std@@QEBA?AV?$allocator@D@2@XZ
    6C7D4 ?imbue@?$basic_filebuf@DU?$char_traits@D@std@@@std@@MEAAXAEBVlocale@2@@Z
    6C7D4 ?insert@?$_Tree@V?$_Tmap_traits@V?$basic_string@DU?$char_traits@D@std@@V?$allocator@D@2@@std@@V12@U?$less@V?$basic_string@DU?$char_traits@D@std@@V?$allocator@D@2@@std@@@2@V?$allocator@U?$pair@$$CBV?$basic_string@DU?$char_traits@D@std@@V?$allocator@D@2@@std@@V12@@std@@@2@$0A@@std@@@std@@QEAAXV?$initializer_list@U?$pair@$$CBV?$basic_string@DU?$char_traits@D@std@@V?$allocator@D@2@@std@@V12@@std@@@2@@Z
    6C7D4 ?insert@?$basic_string@DU?$char_traits@D@std@@V?$allocator@D@2@@std@@QEAAAEAV12@_KAEBV12@@Z
    6C7D4 ?insert@?$basic_string@DU?$char_traits@D@std@@V?$allocator@D@2@@std@@QEAAAEAV12@_KQEBD0@Z
    6C7D4 ?isATree@Tools@@CA_NAEAV?$vector@V?$basic_string@DU?$char_traits@D@std@@V?$allocator@D@2@@std@@V?$allocator@V?$basic_string@DU?$char_traits@D@std@@V?$allocator@D@2@@std@@@2@@std@@V?$_Vector_iterator@V?$_Vector_val@U?$_Simple_types@V?$basic_string@DU?$char_traits@D@std@@V?$allocator@D@2@@std@@@std@@@std@@@3@AEAV43@AEAV?$basic_string@DU?$char_traits@D@std@@V?$allocator@D@2@@3@00@Z
    6C7D4 ?isNumeric@Tools@@SA_NV?$basic_string@DU?$char_traits@D@std@@V?$allocator@D@2@@std@@@Z
    6C7D4 ?is_open@?$basic_filebuf@DU?$char_traits@D@std@@@std@@QEBA_NXZ
    6C7D4 ?is_open@?$basic_ifstream@DU?$char_traits@D@std@@@std@@QEBA_NXZ
    6C7D4 ?isctype@?$_Regex_traits@D@std@@QEBA_NDF@Z
    6C7D4 ?length@?$_Regex_traits@D@std@@SA_KPEBD@Z
    6C7D4 ?length@?$basic_string@DU?$char_traits@D@std@@V?$allocator@D@2@@std@@QEBA_KXZ
    6C7D4 ?length@?$char_traits@D@std@@SA_KQEBD@Z
    6C7D4 ?mark_count@?$basic_regex@DV?$regex_traits@D@std@@@std@@QEBAIXZ
    6C7D4 ?max@?$numeric_limits@D@std@@SADXZ
    6C7D4 ?max@?$numeric_limits@E@std@@SAEXZ
    6C7D4 ?max@?$numeric_limits@_J@std@@SA_JXZ
    6C7D4 ?max_size@?$_Default_allocator_traits@V?$allocator@D@std@@@std@@SA_KAEBV?$allocator@D@2@@Z
    6C7D4 ?max_size@?$_Default_allocator_traits@V?$allocator@I@std@@@std@@SA_KAEBV?$allocator@I@2@@Z
    6C7D4 ?max_size@?$_Default_allocator_traits@V?$allocator@U?$_Tree_node@U?$pair@$$CBV?$basic_string@DU?$char_traits@D@std@@V?$allocator@D@2@@std@@V12@@std@@PEAX@std@@@std@@@std@@SA_KAEBV?$allocator@U?$_Tree_node@U?$pair@$$CBV?$basic_string@DU?$char_traits@D@std@@V?$allocator@D@2@@std@@V12@@std@@PEAX@std@@@2@@Z
    6C7D4 ?max_size@?$_Default_allocator_traits@V?$allocator@U_Grp_t@?$_Tgt_state_t@PEBD@std@@@std@@@std@@SA_KAEBV?$allocator@U_Grp_t@?$_Tgt_state_t@PEBD@std@@@2@@Z
    6C7D4 ?max_size@?$_Default_allocator_traits@V?$allocator@U_Loop_vals_t@std@@@std@@@std@@SA_KAEBV?$allocator@U_Loop_vals_t@std@@@2@@Z
    6C7D4 ?max_size@?$_Default_allocator_traits@V?$allocator@V?$basic_string@DU?$char_traits@D@std@@V?$allocator@D@2@@std@@@std@@@std@@SA_KAEBV?$allocator@V?$basic_string@DU?$char_traits@D@std@@V?$allocator@D@2@@std@@@2@@Z
    6C7D4 ?max_size@?$_Default_allocator_traits@V?$allocator@V?$sub_match@PEBD@std@@@std@@@std@@SA_KAEBV?$allocator@V?$sub_match@PEBD@std@@@2@@Z
    6C7D4 ?max_size@?$_Tree@V?$_Tmap_traits@V?$basic_string@DU?$char_traits@D@std@@V?$allocator@D@2@@std@@V12@U?$less@V?$basic_string@DU?$char_traits@D@std@@V?$allocator@D@2@@std@@@2@V?$allocator@U?$pair@$$CBV?$basic_string@DU?$char_traits@D@std@@V?$allocator@D@2@@std@@V12@@std@@@2@$0A@@std@@@std@@QEBA_KXZ
    6C7D4 ?max_size@?$basic_string@DU?$char_traits@D@std@@V?$allocator@D@2@@std@@QEBA_KXZ
    6C7D4 ?max_size@?$vector@DV?$allocator@D@std@@@std@@QEBA_KXZ
    6C7D4 ?max_size@?$vector@IV?$allocator@I@std@@@std@@QEBA_KXZ
    6C7D4 ?max_size@?$vector@U_Grp_t@?$_Tgt_state_t@PEBD@std@@V?$allocator@U_Grp_t@?$_Tgt_state_t@PEBD@std@@@3@@std@@QEBA_KXZ
    6C7D4 ?max_size@?$vector@U_Loop_vals_t@std@@V?$allocator@U_Loop_vals_t@std@@@2@@std@@QEBA_KXZ
    6C7D4 ?max_size@?$vector@V?$basic_string@DU?$char_traits@D@std@@V?$allocator@D@2@@std@@V?$allocator@V?$basic_string@DU?$char_traits@D@std@@V?$allocator@D@2@@std@@@2@@std@@QEBA_KXZ
    6C7D4 ?max_size@?$vector@V?$sub_match@PEBD@std@@V?$allocator@V?$sub_match@PEBD@std@@@2@@std@@QEBA_KXZ
    6C7D4 ?max_size@?$vector@_NV?$allocator@_N@std@@@std@@QEBA_KXZ
    6C7D4 ?memchr@@YAPEAXPEAXH_K@Z
    6C7D4 ?move@?$char_traits@D@std@@SAPEADQEADQEBD_K@Z
    6C7D4 ?name@locale@std@@QEBA?AV?$basic_string@DU?$char_traits@D@std@@V?$allocator@D@2@@2@XZ
    6C7D4 ?not_eof@?$char_traits@D@std@@SAHAEBH@Z
    6C7D4 ?npos@?$basic_string@DU?$char_traits@D@std@@V?$allocator@D@2@@std@@2_KB
    6C7D4 ?open@?$basic_filebuf@DU?$char_traits@D@std@@@std@@QEAAPEAV12@PEBDHH@Z
    6C7D4 ?overflow@?$basic_filebuf@DU?$char_traits@D@std@@@std@@MEAAHH@Z
    6C7D4 ?overflow@?$basic_stringbuf@DU?$char_traits@D@std@@V?$allocator@D@2@@std@@MEAAHH@Z
    6C7D4 ?pbackfail@?$basic_filebuf@DU?$char_traits@D@std@@@std@@MEAAHH@Z
    6C7D4 ?pbackfail@?$basic_stringbuf@DU?$char_traits@D@std@@V?$allocator@D@2@@std@@MEAAHH@Z
    6C7D4 ?pointer_to@?$pointer_traits@PEAD@std@@SAPEADAEAD@Z
    6C7D4 ?push_back@?$basic_string@DU?$char_traits@D@std@@V?$allocator@D@2@@std@@QEAAXD@Z
    6C7D4 ?push_back@?$vector@V?$basic_string@DU?$char_traits@D@std@@V?$allocator@D@2@@std@@V?$allocator@V?$basic_string@DU?$char_traits@D@std@@V?$allocator@D@2@@std@@@2@@std@@QEAAX$$QEAV?$basic_string@DU?$char_traits@D@std@@V?$allocator@D@2@@2@@Z
    6C7D4 ?push_back@?$vector@V?$basic_string@DU?$char_traits@D@std@@V?$allocator@D@2@@std@@V?$allocator@V?$basic_string@DU?$char_traits@D@std@@V?$allocator@D@2@@std@@@2@@std@@QEAAXAEBV?$basic_string@DU?$char_traits@D@std@@V?$allocator@D@2@@2@@Z
    6C7D4 ?rainbow@Tools@@SAXV?$basic_string@DU?$char_traits@D@std@@V?$allocator@D@2@@std@@@Z
    6C7D4 ?readFile@Tools@@SA?AV?$vector@V?$basic_string@DU?$char_traits@D@std@@V?$allocator@D@2@@std@@V?$allocator@V?$basic_string@DU?$char_traits@D@std@@V?$allocator@D@2@@std@@@2@@std@@V?$basic_string@DU?$char_traits@D@std@@V?$allocator@D@2@@3@0@Z
    6C7D4 ?replace@?$basic_string@DU?$char_traits@D@std@@V?$allocator@D@2@@std@@QEAAAEAV12@_K_KQEBD0@Z
    6C7D4 ?reserve@?$basic_string@DU?$char_traits@D@std@@V?$allocator@D@2@@std@@QEAAX_K@Z
    6C7D4 ?resize@?$basic_string@DU?$char_traits@D@std@@V?$allocator@D@2@@std@@QEAAX_KD@Z
    6C7D4 ?resize@?$vector@IV?$allocator@I@std@@@std@@QEAAX_KAEBI@Z
    6C7D4 ?resize@?$vector@U_Grp_t@?$_Tgt_state_t@PEBD@std@@V?$allocator@U_Grp_t@?$_Tgt_state_t@PEBD@std@@@3@@std@@QEAAX_K@Z
    6C7D4 ?resize@?$vector@U_Loop_vals_t@std@@V?$allocator@U_Loop_vals_t@std@@@2@@std@@QEAAX_K@Z
    6C7D4 ?resize@?$vector@V?$sub_match@PEBD@std@@V?$allocator@V?$sub_match@PEBD@std@@@2@@std@@QEAAX_K@Z
    6C7D4 ?resize@?$vector@_NV?$allocator@_N@std@@@std@@QEAAX_K_N@Z
    6C7D4 ?seekoff@?$basic_filebuf@DU?$char_traits@D@std@@@std@@MEAA?AV?$fpos@U_Mbstatet@@@2@_JHH@Z
    6C7D4 ?seekoff@?$basic_stringbuf@DU?$char_traits@D@std@@V?$allocator@D@2@@std@@MEAA?AV?$fpos@U_Mbstatet@@@2@_JHH@Z
    6C7D4 ?seekpos@?$basic_filebuf@DU?$char_traits@D@std@@@std@@MEAA?AV?$fpos@U_Mbstatet@@@2@V32@H@Z
    6C7D4 ?seekpos@?$basic_stringbuf@DU?$char_traits@D@std@@V?$allocator@D@2@@std@@MEAA?AV?$fpos@U_Mbstatet@@@2@V32@H@Z
    6C7D4 ?seekpos@?$fpos@U_Mbstatet@@@std@@QEBA_JXZ
    6C7D4 ?select_on_container_copy_construction@?$_Default_allocator_traits@V?$allocator@D@std@@@std@@SA?AV?$allocator@D@2@AEBV32@@Z
    6C7D4 ?select_on_container_copy_construction@?$_Default_allocator_traits@V?$allocator@I@std@@@std@@SA?AV?$allocator@I@2@AEBV32@@Z
    6C7D4 ?select_on_container_copy_construction@?$_Default_allocator_traits@V?$allocator@U_Grp_t@?$_Tgt_state_t@PEBD@std@@@std@@@std@@SA?AV?$allocator@U_Grp_t@?$_Tgt_state_t@PEBD@std@@@2@AEBV32@@Z
    6C7D4 ?setColor@Tools@@SAXW4COLORS@@0@Z
    6C7D4 ?setFullScreen@Tools@@SAXXZ
    6C7D4 ?setbuf@?$basic_filebuf@DU?$char_traits@D@std@@@std@@MEAAPEAV?$basic_streambuf@DU?$char_traits@D@std@@@2@PEAD_J@Z
    6C7D4 ?size@?$_Tree@V?$_Tmap_traits@V?$basic_string@DU?$char_traits@D@std@@V?$allocator@D@2@@std@@V12@U?$less@V?$basic_string@DU?$char_traits@D@std@@V?$allocator@D@2@@std@@@2@V?$allocator@U?$pair@$$CBV?$basic_string@DU?$char_traits@D@std@@V?$allocator@D@2@@std@@V12@@std@@@2@$0A@@std@@@std@@QEBA_KXZ
    6C7D4 ?size@?$basic_string@DU?$char_traits@D@std@@V?$allocator@D@2@@std@@QEBA_KXZ
    6C7D4 ?size@?$vector@DV?$allocator@D@std@@@std@@QEBA_KXZ
    6C7D4 ?size@?$vector@IV?$allocator@I@std@@@std@@QEBA_KXZ
    6C7D4 ?size@?$vector@U_Grp_t@?$_Tgt_state_t@PEBD@std@@V?$allocator@U_Grp_t@?$_Tgt_state_t@PEBD@std@@@3@@std@@QEBA_KXZ
    6C7D4 ?size@?$vector@U_Loop_vals_t@std@@V?$allocator@U_Loop_vals_t@std@@@2@@std@@QEBA_KXZ
    6C7D4 ?size@?$vector@V?$basic_string@DU?$char_traits@D@std@@V?$allocator@D@2@@std@@V?$allocator@V?$basic_string@DU?$char_traits@D@std@@V?$allocator@D@2@@std@@@2@@std@@QEBA_KXZ
    6C7D4 ?size@?$vector@V?$sub_match@PEBD@std@@V?$allocator@V?$sub_match@PEBD@std@@@2@@std@@QEBA_KXZ
    6C7D4 ?size@?$vector@_NV?$allocator@_N@std@@@std@@QEBA_KXZ
    6C7D4 ?state@?$fpos@U_Mbstatet@@@std@@QEBA?AU_Mbstatet@@XZ
    6C7D4 ?str@?$basic_ostringstream@DU?$char_traits@D@std@@V?$allocator@D@2@@std@@QEBA?AV?$basic_string@DU?$char_traits@D@std@@V?$allocator@D@2@@2@XZ
    6C7D4 ?str@?$basic_stringbuf@DU?$char_traits@D@std@@V?$allocator@D@2@@std@@QEBA?AV?$basic_string@DU?$char_traits@D@std@@V?$allocator@D@2@@2@XZ
    6C7D4 ?substr@?$basic_string@DU?$char_traits@D@std@@V?$allocator@D@2@@std@@QEBA?AV12@_K0@Z
    6C7D4 ?sync@?$basic_filebuf@DU?$char_traits@D@std@@@std@@MEAAHXZ
    6C7D4 ?toLower@Tools@@SA?AV?$basic_string@DU?$char_traits@D@std@@V?$allocator@D@2@@std@@V23@@Z
    6C7D4 ?toUpper@Tools@@SA?AV?$basic_string@DU?$char_traits@D@std@@V?$allocator@D@2@@std@@V23@@Z
    6C7D4 ?to_char_type@?$char_traits@D@std@@SADAEBH@Z
    6C7D4 ?to_int_type@?$char_traits@D@std@@SAHAEBD@Z
    6C7D4 ?tokenSplit@Tools@@SA?AV?$vector@V?$basic_string@DU?$char_traits@D@std@@V?$allocator@D@2@@std@@V?$allocator@V?$basic_string@DU?$char_traits@D@std@@V?$allocator@D@2@@std@@@2@@std@@V?$basic_string@DU?$char_traits@D@std@@V?$allocator@D@2@@3@@Z
    6C7D4 ?transform@?$collate@D@std@@QEBA?AV?$basic_string@DU?$char_traits@D@std@@V?$allocator@D@2@@2@PEBD0@Z
    6C7D4 ?translate@?$_Regex_traits@D@std@@QEBADD@Z
    6C7D4 ?translate_nocase@?$_Regex_traits@D@std@@QEBADD@Z
    6C7D4 ?trim@Tools@@SA?AV?$basic_string@DU?$char_traits@D@std@@V?$allocator@D@2@@std@@V23@@Z
    6C7D4 ?trimDelimiters@Tools@@SA?AV?$basic_string@DU?$char_traits@D@std@@V?$allocator@D@2@@std@@V23@@Z
    6C7D4 ?uflow@?$basic_filebuf@DU?$char_traits@D@std@@@std@@MEAAHXZ
    6C7D4 ?underflow@?$basic_filebuf@DU?$char_traits@D@std@@@std@@MEAAHXZ
    6C7D4 ?underflow@?$basic_stringbuf@DU?$char_traits@D@std@@V?$allocator@D@2@@std@@MEAAHXZ
    6C7D4 ?validateTag@Tools@@CA_NAEAV?$vector@V?$basic_string@DU?$char_traits@D@std@@V?$allocator@D@2@@std@@V?$allocator@V?$basic_string@DU?$char_traits@D@std@@V?$allocator@D@2@@std@@@2@@std@@V?$_Vector_iterator@V?$_Vector_val@U?$_Simple_types@V?$basic_string@DU?$char_traits@D@std@@V?$allocator@D@2@@std@@@std@@@std@@@3@AEAV43@AEAV?$basic_string@DU?$char_traits@D@std@@V?$allocator@D@2@@3@00@Z
    6C7D4 ?value@?$regex_traits@D@std@@QEBAHDH@Z
    6C7D4 ?what@exception@std@@UEBAPEBDXZ
    6C7D4 ?wordSplit@Tools@@SA?AV?$vector@V?$basic_string@DU?$char_traits@D@std@@V?$allocator@D@2@@std@@V?$allocator@V?$basic_string@DU?$char_traits@D@std@@V?$allocator@D@2@@std@@@2@@std@@V?$basic_string@DU?$char_traits@D@std@@V?$allocator@D@2@@3@@Z
    6C7D4 ?wordSplit@Tools@@SA?AV?$vector@V?$basic_string@DU?$char_traits@D@std@@V?$allocator@D@2@@std@@V?$allocator@V?$basic_string@DU?$char_traits@D@std@@V?$allocator@D@2@@std@@@2@@std@@V?$basic_string@DU?$char_traits@D@std@@V?$allocator@D@2@@3@W4CASE@@@Z
    6C7D4 _CT??_R0?AVbad_cast@std@@@8??0bad_cast@std@@QEAA@AEBV01@@Z24
    6C7D4 _CT??_R0?AVexception@std@@@8??0exception@std@@QEAA@AEBV01@@Z24
    6C7D4 _CTA2?AVbad_cast@std@@
    6C7D4 _TI2?AVbad_cast@std@@

Archive member name at 3282A: /               
5A1F8FD5 time/date Wed Nov 29 20:57:57 2017
         uid
         gid
       0 mode
   31B32 size
correct header end

    4 offsets

        1    64424
        2    685FA
        3    6C7D4
        4   38C142

    1636 public symbols

        3 ??$?0$$V@?$_Compressed_pair@V?$allocator@D@std@@V?$_String_val@U?$_Simple_types@D@std@@@2@$00@std@@QEAA@U_Zero_then_variadic_args_t@1@@Z
        3 ??$?0$$V@?$_Compressed_pair@V?$allocator@U?$_Tree_node@U?$pair@$$CBV?$basic_string@DU?$char_traits@D@std@@V?$allocator@D@2@@std@@V12@@std@@PEAX@std@@@std@@V?$_Tree_val@U?$_Tree_simple_types@U?$pair@$$CBV?$basic_string@DU?$char_traits@D@std@@V?$allocator@D@2@@std@@V12@@std@@@std@@@2@$00@std@@QEAA@U_Zero_then_variadic_args_t@1@@Z
        3 ??$?0$$V@?$_Compressed_pair@V?$allocator@U_Grp_t@?$_Tgt_state_t@PEBD@std@@@std@@V?$_Vector_val@U?$_Simple_types@U_Grp_t@?$_Tgt_state_t@PEBD@std@@@std@@@2@$00@std@@QEAA@U_Zero_then_variadic_args_t@1@@Z
        3 ??$?0$$V@?$_Compressed_pair@V?$allocator@U_Loop_vals_t@std@@@std@@V?$_Vector_val@U?$_Simple_types@U_Loop_vals_t@std@@@std@@@2@$00@std@@QEAA@U_Zero_then_variadic_args_t@1@@Z
        3 ??$?0$$V@?$_Compressed_pair@V?$allocator@V?$basic_string@DU?$char_traits@D@std@@V?$allocator@D@2@@std@@@std@@V?$_Vector_val@U?$_Simple_types@V?$basic_string@DU?$char_traits@D@std@@V?$allocator@D@2@@std@@@std@@@2@$00@std@@QEAA@U_Zero_then_variadic_args_t@1@@Z
        3 ??$?0AEAV?$_Tree_iterator@V?$_Tree_val@U?$_Tree_simple_types@U?$pair@$$CBV?$basic_string@DU?$char_traits@D@std@@V?$allocator@D@2@@std@@V12@@std@@@std@@@std@@@std@@_NX$0A@@?$pair@V?$_Tree_iterator@V?$_Tree_val@U?$_Tree_simple_types@U?$pair@$$CBV?$basic_string@DU?$char_traits@D@std@@V?$allocator@D@2@@std@@V12@@std@@@std@@@std@@@std@@_N@std@@QEAA@AEAV?$_Tree_iterator@V?$_Tree_val@U?$_Tree_simple_types@U?$pair@$$CBV?$basic_string@DU?$char_traits@D@std@@V?$allocator@D@2@@std@@V12@@std@@@std@@@std@@@1@$$QEA_N@Z
        3 ??$?0AEAY05$$CBDAEAY00$$CBDX$0A@@?$pair@$$CBV?$basic_string@DU?$char_traits@D@std@@V?$allocator@D@2@@std@@V12@@std@@QEAA@AEAY05$$CBDAEAY00$$CBD@Z
        3 ??$?0AEBU?$less@V?$basic_string@DU?$char_traits@D@std@@V?$allocator@D@2@@std@@@std@@U_Zero_then_variadic_args_t@1@@?$_Compressed_pair@U?$less@V?$basic_string@DU?$char_traits@D@std@@V?$allocator@D@2@@std@@@std@@V?$_Compressed_pair@V?$allocator@U?$_Tree_node@U?$pair@$$CBV?$basic_string@DU?$char_traits@D@std@@V?$allocator@D@2@@std@@V12@@std@@PEAX@std@@@std@@V?$_Tree_val@U?$_Tree_simple_types@U?$pair@$$CBV?$basic_string@DU?$char_traits@D@std@@V?$allocator@D@2@@std@@V12@@std@@@std@@@2@$00@2@$00@std@@QEAA@U_One_then_variadic_args_t@1@AEBU?$less@V?$basic_string@DU?$char_traits@D@std@@V?$allocator@D@2@@std@@@1@$$QEAU_Zero_then_variadic_args_t@1@@Z
        3 ??$?0AEBV?$allocator@D@std@@$$V@?$_Compressed_pair@V?$allocator@D@std@@V?$_String_val@U?$_Simple_types@D@std@@@2@$00@std@@QEAA@U_One_then_variadic_args_t@1@AEBV?$allocator@D@1@@Z
        3 ??$?0AEBV?$allocator@D@std@@$$V@?$_Compressed_pair@V?$allocator@D@std@@V?$_Vector_val@U?$_Simple_types@D@std@@@2@$00@std@@QEAA@U_One_then_variadic_args_t@1@AEBV?$allocator@D@1@@Z
        3 ??$?0AEBV?$allocator@D@std@@X@?$_String_alloc@U?$_String_base_types@DV?$allocator@D@std@@@std@@@std@@QEAA@AEBV?$allocator@D@1@@Z
        3 ??$?0AEBV?$allocator@D@std@@X@?$_Vector_alloc@U?$_Vec_base_types@DV?$allocator@D@std@@@std@@@std@@QEAA@AEBV?$allocator@D@1@@Z
        3 ??$?0AEBV?$allocator@I@std@@$$V@?$_Compressed_pair@V?$allocator@I@std@@V?$_Vector_val@U?$_Simple_types@I@std@@@2@$00@std@@QEAA@U_One_then_variadic_args_t@1@AEBV?$allocator@I@1@@Z
        3 ??$?0AEBV?$allocator@I@std@@X@?$_Vector_alloc@U?$_Vec_base_types@IV?$allocator@I@std@@@std@@@std@@QEAA@AEBV?$allocator@I@1@@Z
        3 ??$?0D@?$allocator@U_Container_proxy@std@@@std@@QEAA@AEBV?$allocator@D@1@@Z
        3 ??$?0I@?$allocator@U_Container_proxy@std@@@std@@QEAA@AEBV?$allocator@I@1@@Z
        3 ??$?0PEADX@?$vector@DV?$allocator@D@std@@@std@@QEAA@PEAD0AEBV?$allocator@D@1@@Z
        3 ??$?0PEBDPEBDX@?$pair@PEBDPEBD@std@@QEAA@XZ
        3 ??$?0PEBDX@?$vector@DV?$allocator@D@std@@@std@@QEAA@PEBD0AEBV?$allocator@D@1@@Z
        3 ??$?0U?$_Tree_node@U?$pair@$$CBV?$basic_string@DU?$char_traits@D@std@@V?$allocator@D@2@@std@@V12@@std@@PEAX@std@@@?$allocator@U_Container_proxy@std@@@std@@QEAA@AEBV?$allocator@U?$_Tree_node@U?$pair@$$CBV?$basic_string@DU?$char_traits@D@std@@V?$allocator@D@2@@std@@V12@@std@@PEAX@std@@@1@@Z
        3 ??$?0U?$integral_constant@_N$00@std@@@_Unused_parameter@std@@QEAA@$$QEAU?$integral_constant@_N$00@1@@Z
        3 ??$?0U_Grp_t@?$_Tgt_state_t@PEBD@std@@@?$allocator@U_Container_proxy@std@@@std@@QEAA@AEBV?$allocator@U_Grp_t@?$_Tgt_state_t@PEBD@std@@@1@@Z
        3 ??$?0U_Loop_vals_t@std@@@?$allocator@U_Container_proxy@std@@@std@@QEAA@AEBV?$allocator@U_Loop_vals_t@std@@@1@@Z
        3 ??$?0V?$_String_iterator@V?$_String_val@U?$_Simple_types@D@std@@@std@@@std@@X@?$vector@DV?$allocator@D@std@@@std@@QEAA@V?$_String_iterator@V?$_String_val@U?$_Simple_types@D@std@@@std@@@1@0AEBV?$allocator@D@1@@Z
        3 ??$?0V?$_Tree_iterator@V?$_Tree_val@U?$_Tree_simple_types@U?$pair@$$CBV?$basic_string@DU?$char_traits@D@std@@V?$allocator@D@2@@std@@V12@@std@@@std@@@std@@@std@@_NX$0A@@?$pair@V?$_Tree_iterator@V?$_Tree_val@U?$_Tree_simple_types@U?$pair@$$CBV?$basic_string@DU?$char_traits@D@std@@V?$allocator@D@2@@std@@V12@@std@@@std@@@std@@@std@@_N@std@@QEAA@$$QEAV?$_Tree_iterator@V?$_Tree_val@U?$_Tree_simple_types@U?$pair@$$CBV?$basic_string@DU?$char_traits@D@std@@V?$allocator@D@2@@std@@V12@@std@@@std@@@std@@@1@$$QEA_N@Z
        3 ??$?0V?$allocator@D@std@@$$V@?$_Compressed_pair@V?$allocator@D@std@@V?$_String_val@U?$_Simple_types@D@std@@@2@$00@std@@QEAA@U_One_then_variadic_args_t@1@$$QEAV?$allocator@D@1@@Z
        3 ??$?0V?$allocator@D@std@@X@?$_String_alloc@U?$_String_base_types@DV?$allocator@D@std@@@std@@@std@@QEAA@$$QEAV?$allocator@D@1@@Z
        3 ??$?0V?$allocator@I@std@@$$V@?$_Compressed_pair@V?$allocator@I@std@@V?$_Vector_val@U?$_Simple_types@I@std@@@2@$00@std@@QEAA@U_One_then_variadic_args_t@1@$$QEAV?$allocator@I@1@@Z
        3 ??$?0V?$allocator@I@std@@X@?$_Vector_alloc@U?$_Vec_base_types@IV?$allocator@I@std@@@std@@@std@@QEAA@$$QEAV?$allocator@I@1@@Z
        3 ??$?0V?$allocator@U_Grp_t@?$_Tgt_state_t@PEBD@std@@@std@@$$V@?$_Compressed_pair@V?$allocator@U_Grp_t@?$_Tgt_state_t@PEBD@std@@@std@@V?$_Vector_val@U?$_Simple_types@U_Grp_t@?$_Tgt_state_t@PEBD@std@@@std@@@2@$00@std@@QEAA@U_One_then_variadic_args_t@1@$$QEAV?$allocator@U_Grp_t@?$_Tgt_state_t@PEBD@std@@@1@@Z
        3 ??$?0V?$allocator@U_Grp_t@?$_Tgt_state_t@PEBD@std@@@std@@X@?$_Vector_alloc@U?$_Vec_base_types@U_Grp_t@?$_Tgt_state_t@PEBD@std@@V?$allocator@U_Grp_t@?$_Tgt_state_t@PEBD@std@@@3@@std@@@std@@QEAA@$$QEAV?$allocator@U_Grp_t@?$_Tgt_state_t@PEBD@std@@@1@@Z
        3 ??$?0V?$allocator@V?$basic_string@DU?$char_traits@D@std@@V?$allocator@D@2@@std@@@std@@$$V@?$_Compressed_pair@V?$allocator@V?$basic_string@DU?$char_traits@D@std@@V?$allocator@D@2@@std@@@std@@V?$_Vector_val@U?$_Simple_types@V?$basic_string@DU?$char_traits@D@std@@V?$allocator@D@2@@std@@@std@@@2@$00@std@@QEAA@U_One_then_variadic_args_t@1@$$QEAV?$allocator@V?$basic_string@DU?$char_traits@D@std@@V?$allocator@D@2@@std@@@1@@Z
        3 ??$?0V?$allocator@V?$basic_string@DU?$char_traits@D@std@@V?$allocator@D@2@@std@@@std@@X@?$_Vector_alloc@U?$_Vec_base_types@V?$basic_string@DU?$char_traits@D@std@@V?$allocator@D@2@@std@@V?$allocator@V?$basic_string@DU?$char_traits@D@std@@V?$allocator@D@2@@std@@@2@@std@@@std@@QEAA@$$QEAV?$allocator@V?$basic_string@DU?$char_traits@D@std@@V?$allocator@D@2@@std@@@1@@Z
        3 ??$?0V?$basic_string@DU?$char_traits@D@std@@V?$allocator@D@2@@std@@@?$allocator@U_Container_proxy@std@@@std@@QEAA@AEBV?$allocator@V?$basic_string@DU?$char_traits@D@std@@V?$allocator@D@2@@std@@@1@@Z
        3 ??$?0_N@?$allocator@I@std@@QEAA@AEBV?$allocator@_N@1@@Z
        3 ??$?6DU?$char_traits@D@std@@D@std@@YAAEAV?$basic_ostream@DU?$char_traits@D@std@@@0@AEAV10@AEBU?$_Timeobj@DPEBUtm@@@0@@Z
        3 ??$?6DU?$char_traits@D@std@@V?$allocator@D@1@@std@@YAAEAV?$basic_ostream@DU?$char_traits@D@std@@@0@AEAV10@AEBV?$basic_string@DU?$char_traits@D@std@@V?$allocator@D@2@@0@@Z
        3 ??$?6U?$char_traits@D@std@@@std@@YAAEAV?$basic_ostream@DU?$char_traits@D@std@@@0@AEAV10@D@Z
        3 ??$?6U?$char_traits@D@std@@@std@@YAAEAV?$basic_ostream@DU?$char_traits@D@std@@@0@AEAV10@PEBD@Z
        3 ??$?8DU?$char_traits@D@std@@V?$allocator@D@1@@std@@YA_NAEBV?$basic_string@DU?$char_traits@D@std@@V?$allocator@D@2@@0@0@Z
        3 ??$?8DU?$char_traits@D@std@@V?$allocator@D@1@@std@@YA_NAEBV?$basic_string@DU?$char_traits@D@std@@V?$allocator@D@2@@0@QEBD@Z
        3 ??$?9DD@std@@YA_NAEBV?$allocator@D@0@0@Z
        3 ??$?9DU?$char_traits@D@std@@V?$allocator@D@1@@std@@YA_NAEBV?$basic_string@DU?$char_traits@D@std@@V?$allocator@D@2@@0@QEBD@Z
        3 ??$?HDU?$char_traits@D@std@@V?$allocator@D@1@@std@@YA?AV?$basic_string@DU?$char_traits@D@std@@V?$allocator@D@2@@0@$$QEAV10@QEBD@Z
        3 ??$?HDU?$char_traits@D@std@@V?$allocator@D@1@@std@@YA?AV?$basic_string@DU?$char_traits@D@std@@V?$allocator@D@2@@0@AEBV10@$$QEAV10@@Z
        3 ??$?HDU?$char_traits@D@std@@V?$allocator@D@1@@std@@YA?AV?$basic_string@DU?$char_traits@D@std@@V?$allocator@D@2@@0@AEBV10@0@Z
        3 ??$?HDU?$char_traits@D@std@@V?$allocator@D@1@@std@@YA?AV?$basic_string@DU?$char_traits@D@std@@V?$allocator@D@2@@0@AEBV10@QEBD@Z
        3 ??$?HDU?$char_traits@D@std@@V?$allocator@D@1@@std@@YA?AV?$basic_string@DU?$char_traits@D@std@@V?$allocator@D@2@@0@QEBDAEBV10@@Z
        3 ??$?MDU?$char_traits@D@std@@V?$allocator@D@1@@std@@YA_NAEBV?$basic_string@DU?$char_traits@D@std@@V?$allocator@D@2@@0@0@Z
        3 ??$_Advance1@PEAI_J@std@@YAXAEAPEAI_JUrandom_access_iterator_tag@0@@Z
        3 ??$_Advance1@PEAU_Grp_t@?$_Tgt_state_t@PEBD@std@@_J@std@@YAXAEAPEAU_Grp_t@?$_Tgt_state_t@PEBD@0@_JUrandom_access_iterator_tag@0@@Z
        3 ??$_Advance1@PEBD_J@std@@YAXAEAPEBD_JUrandom_access_iterator_tag@0@@Z
        3 ??$_Assign_range@PEAI@?$vector@IV?$allocator@I@std@@@std@@AEAAXPEAI0Uforward_iterator_tag@1@@Z
        3 ??$_Assign_range@PEAU_Grp_t@?$_Tgt_state_t@PEBD@std@@@?$vector@U_Grp_t@?$_Tgt_state_t@PEBD@std@@V?$allocator@U_Grp_t@?$_Tgt_state_t@PEBD@std@@@3@@std@@AEAAXPEAU_Grp_t@?$_Tgt_state_t@PEBD@1@0Uforward_iterator_tag@1@@Z
        3 ??$_Buynode@AEBU?$pair@$$CBV?$basic_string@DU?$char_traits@D@std@@V?$allocator@D@2@@std@@V12@@std@@@?$_Tree_comp_alloc@V?$_Tmap_traits@V?$basic_string@DU?$char_traits@D@std@@V?$allocator@D@2@@std@@V12@U?$less@V?$basic_string@DU?$char_traits@D@std@@V?$allocator@D@2@@std@@@2@V?$allocator@U?$pair@$$CBV?$basic_string@DU?$char_traits@D@std@@V?$allocator@D@2@@std@@V12@@std@@@2@$0A@@std@@@std@@QEAAPEAU?$_Tree_node@U?$pair@$$CBV?$basic_string@DU?$char_traits@D@std@@V?$allocator@D@2@@std@@V12@@std@@PEAX@1@AEBU?$pair@$$CBV?$basic_string@DU?$char_traits@D@std@@V?$allocator@D@2@@std@@V12@@1@@Z
        3 ??$_Buynode_if_nil@AEAU?$pair@$$CBV?$basic_string@DU?$char_traits@D@std@@V?$allocator@D@2@@std@@V12@@std@@@?$_Tree@V?$_Tmap_traits@V?$basic_string@DU?$char_traits@D@std@@V?$allocator@D@2@@std@@V12@U?$less@V?$basic_string@DU?$char_traits@D@std@@V?$allocator@D@2@@std@@@2@V?$allocator@U?$pair@$$CBV?$basic_string@DU?$char_traits@D@std@@V?$allocator@D@2@@std@@V12@@std@@@2@$0A@@std@@@std@@IEAAPEAU?$_Tree_node@U?$pair@$$CBV?$basic_string@DU?$char_traits@D@std@@V?$allocator@D@2@@std@@V12@@std@@PEAX@1@PEAU21@AEAU?$pair@$$CBV?$basic_string@DU?$char_traits@D@std@@V?$allocator@D@2@@std@@V12@@1@@Z
        3 ??$_Cmp_chrange@PEBDPEBDU?$_Cmp_collate@V?$regex_traits@D@std@@@std@@@std@@YAPEBDPEBD000U?$_Cmp_collate@V?$regex_traits@D@std@@@0@@Z
        3 ??$_Cmp_chrange@PEBDPEBDU?$_Cmp_cs@V?$regex_traits@D@std@@@std@@@std@@YAPEBDPEBD000U?$_Cmp_cs@V?$regex_traits@D@std@@@0@@Z
        3 ??$_Cmp_chrange@PEBDPEBDU?$_Cmp_icase@V?$regex_traits@D@std@@@std@@@std@@YAPEBDPEBD000U?$_Cmp_icase@V?$regex_traits@D@std@@@0@@Z
        3 ??$_Compare@PEBDPEBDV?$regex_traits@D@std@@@std@@YAPEBDPEBD000AEBV?$regex_traits@D@0@W4syntax_option_type@regex_constants@0@@Z
        3 ??$_Const_cast@$$CBD@std@@YA@PEBD@Z
        3 ??$_Convert_size@_K@std@@YA_K_K@Z
        3 ??$_Copy_backward_unchecked@V?$_Vb_iterator@U?$_Wrap_alloc@V?$allocator@I@std@@@std@@@std@@V12@@std@@YA?AV?$_Vb_iterator@U?$_Wrap_alloc@V?$allocator@I@std@@@std@@@0@V10@00U_General_ptr_iterator_tag@0@@Z
        3 ??$_Copy_memmove@PEADPEAD@std@@YAPEADPEAD00@Z
        3 ??$_Copy_memmove@PEAIPEAI@std@@YAPEAIPEAI00@Z
        3 ??$_Copy_memmove@PEAU_Grp_t@?$_Tgt_state_t@PEBD@std@@PEAU123@@std@@YAPEAU_Grp_t@?$_Tgt_state_t@PEBD@0@PEAU120@00@Z
        3 ??$_Copy_memmove@PEAU_Loop_vals_t@std@@PEAU12@@std@@YAPEAU_Loop_vals_t@0@PEAU10@00@Z
        3 ??$_Copy_memmove@PEBDPEAD@std@@YAPEADPEBD0PEAD@Z
        3 ??$_Copy_no_deprecate@V?$_Vb_iterator@U?$_Wrap_alloc@V?$allocator@I@std@@@std@@@std@@V12@@std@@YA?AV?$_Vb_iterator@U?$_Wrap_alloc@V?$allocator@I@std@@@std@@@0@V10@00@Z
        3 ??$_Copy_unchecked1@PEAIPEAI@std@@YAPEAIPEAI00U_Trivially_copyable_ptr_iterator_tag@0@@Z
        3 ??$_Copy_unchecked1@PEAU_Grp_t@?$_Tgt_state_t@PEBD@std@@PEAU123@@std@@YAPEAU_Grp_t@?$_Tgt_state_t@PEBD@0@PEAU120@00U_Trivially_copyable_ptr_iterator_tag@0@@Z
        3 ??$_Copy_unchecked1@V?$_Vb_iterator@U?$_Wrap_alloc@V?$allocator@I@std@@@std@@@std@@V12@@std@@YA?AV?$_Vb_iterator@U?$_Wrap_alloc@V?$allocator@I@std@@@std@@@0@V10@00U_General_ptr_iterator_tag@0@@Z
        3 ??$_Copy_unchecked@PEAIPEAI@std@@YAPEAIPEAI00@Z
        3 ??$_Copy_unchecked@PEAU_Grp_t@?$_Tgt_state_t@PEBD@std@@PEAU123@@std@@YAPEAU_Grp_t@?$_Tgt_state_t@PEBD@0@PEAU120@00@Z
        3 ??$_Copy_unchecked@V?$_Vb_iterator@U?$_Wrap_alloc@V?$allocator@I@std@@@std@@@std@@V12@@std@@YA?AV?$_Vb_iterator@U?$_Wrap_alloc@V?$allocator@I@std@@@std@@@0@V10@00@Z
        3 ??$_Deallocate_plain@V?$allocator@U_Container_proxy@std@@@std@@$0A@@std@@YAXAEAV?$allocator@U_Container_proxy@std@@@0@QEAU_Container_proxy@0@@Z
        3 ??$_Debug_lt_pred@AEAU?$less@V?$basic_string@DU?$char_traits@D@std@@V?$allocator@D@2@@std@@@std@@AEBV?$basic_string@DU?$char_traits@D@std@@V?$allocator@D@2@@2@AEBV32@@std@@YA_NAEAU?$less@V?$basic_string@DU?$char_traits@D@std@@V?$allocator@D@2@@std@@@0@AEBV?$basic_string@DU?$char_traits@D@std@@V?$allocator@D@2@@0@1PEB_WI@Z
        3 ??$_Debug_range2@PEAD@std@@YAXPEAD0PEB_WIUrandom_access_iterator_tag@0@@Z
        3 ??$_Debug_range2@PEAI@std@@YAXPEAI0PEB_WIUrandom_access_iterator_tag@0@@Z
        3 ??$_Debug_range2@PEAU_Grp_t@?$_Tgt_state_t@PEBD@std@@@std@@YAXPEAU_Grp_t@?$_Tgt_state_t@PEBD@0@0PEB_WIUrandom_access_iterator_tag@0@@Z
        3 ??$_Debug_range2@PEBD@std@@YAXPEBD0PEB_WIUrandom_access_iterator_tag@0@@Z
        3 ??$_Debug_range2@PEBU?$pair@$$CBV?$basic_string@DU?$char_traits@D@std@@V?$allocator@D@2@@std@@V12@@std@@@std@@YAXPEBU?$pair@$$CBV?$basic_string@DU?$char_traits@D@std@@V?$allocator@D@2@@std@@V12@@0@0PEB_WIUrandom_access_iterator_tag@0@@Z
        3 ??$_Debug_range2@V?$_String_const_iterator@V?$_String_val@U?$_Simple_types@D@std@@@std@@@std@@@std@@YAXV?$_String_const_iterator@V?$_String_val@U?$_Simple_types@D@std@@@std@@@0@0PEB_WIUrandom_access_iterator_tag@0@@Z
        3 ??$_Debug_range2@V?$_String_iterator@V?$_String_val@U?$_Simple_types@D@std@@@std@@@std@@@std@@YAXV?$_String_iterator@V?$_String_val@U?$_Simple_types@D@std@@@std@@@0@0PEB_WIUrandom_access_iterator_tag@0@@Z
        3 ??$_Debug_range2@V?$_Vb_iterator@U?$_Wrap_alloc@V?$allocator@I@std@@@std@@@std@@@std@@YAXV?$_Vb_iterator@U?$_Wrap_alloc@V?$allocator@I@std@@@std@@@0@0PEB_WIUrandom_access_iterator_tag@0@@Z
        3 ??$_Debug_range2@V?$_Vector_iterator@V?$_Vector_val@U?$_Simple_types@V?$basic_string@DU?$char_traits@D@std@@V?$allocator@D@2@@std@@@std@@@std@@@std@@@std@@YAXV?$_Vector_iterator@V?$_Vector_val@U?$_Simple_types@V?$basic_string@DU?$char_traits@D@std@@V?$allocator@D@2@@std@@@std@@@std@@@0@0PEB_WIUrandom_access_iterator_tag@0@@Z
        3 ??$_Debug_range@PEAD@std@@YAXPEAD0PEB_WI@Z
        3 ??$_Debug_range@PEAI@std@@YAXPEAI0PEB_WI@Z
        3 ??$_Debug_range@PEAU_Grp_t@?$_Tgt_state_t@PEBD@std@@@std@@YAXPEAU_Grp_t@?$_Tgt_state_t@PEBD@0@0PEB_WI@Z
        3 ??$_Debug_range@PEBD@std@@YAXPEBD0PEB_WI@Z
        3 ??$_Debug_range@PEBU?$pair@$$CBV?$basic_string@DU?$char_traits@D@std@@V?$allocator@D@2@@std@@V12@@std@@@std@@YAXPEBU?$pair@$$CBV?$basic_string@DU?$char_traits@D@std@@V?$allocator@D@2@@std@@V12@@0@0PEB_WI@Z
        3 ??$_Debug_range@V?$_String_const_iterator@V?$_String_val@U?$_Simple_types@D@std@@@std@@@std@@@std@@YAXV?$_String_const_iterator@V?$_String_val@U?$_Simple_types@D@std@@@std@@@0@0PEB_WI@Z
        3 ??$_Debug_range@V?$_String_iterator@V?$_String_val@U?$_Simple_types@D@std@@@std@@@std@@@std@@YAXV?$_String_iterator@V?$_String_val@U?$_Simple_types@D@std@@@std@@@0@0PEB_WI@Z
        3 ??$_Debug_range@V?$_Vb_iterator@U?$_Wrap_alloc@V?$allocator@I@std@@@std@@@std@@@std@@YAXV?$_Vb_iterator@U?$_Wrap_alloc@V?$allocator@I@std@@@std@@@0@0PEB_WI@Z
        3 ??$_Debug_range@V?$_Vector_iterator@V?$_Vector_val@U?$_Simple_types@V?$basic_string@DU?$char_traits@D@std@@V?$allocator@D@2@@std@@@std@@@std@@@std@@@std@@YAXV?$_Vector_iterator@V?$_Vector_val@U?$_Simple_types@V?$basic_string@DU?$char_traits@D@std@@V?$allocator@D@2@@std@@@std@@@std@@@0@0PEB_WI@Z
        3 ??$_Destroy_range1@V?$allocator@D@std@@@std@@YAXPEAD0AEAV?$allocator@D@0@U?$integral_constant@_N$00@0@@Z
        3 ??$_Destroy_range1@V?$allocator@I@std@@@std@@YAXPEAI0AEAV?$allocator@I@0@U?$integral_constant@_N$00@0@@Z
        3 ??$_Destroy_range1@V?$allocator@U_Grp_t@?$_Tgt_state_t@PEBD@std@@@std@@@std@@YAXPEAU_Grp_t@?$_Tgt_state_t@PEBD@0@0AEAV?$allocator@U_Grp_t@?$_Tgt_state_t@PEBD@std@@@0@U?$integral_constant@_N$00@0@@Z
        3 ??$_Destroy_range1@V?$allocator@U_Loop_vals_t@std@@@std@@@std@@YAXPEAU_Loop_vals_t@0@0AEAV?$allocator@U_Loop_vals_t@std@@@0@U?$integral_constant@_N$00@0@@Z
        3 ??$_Destroy_range1@V?$allocator@V?$basic_string@DU?$char_traits@D@std@@V?$allocator@D@2@@std@@@std@@@std@@YAXPEAV?$basic_string@DU?$char_traits@D@std@@V?$allocator@D@2@@0@0AEAV?$allocator@V?$basic_string@DU?$char_traits@D@std@@V?$allocator@D@2@@std@@@0@U?$integral_constant@_N$0A@@0@@Z
        3 ??$_Destroy_range1@V?$allocator@V?$sub_match@PEBD@std@@@std@@@std@@YAXPEAV?$sub_match@PEBD@0@0AEAV?$allocator@V?$sub_match@PEBD@std@@@0@U?$integral_constant@_N$00@0@@Z
        3 ??$_Destroy_range@V?$allocator@D@std@@@std@@YAXPEAD0AEAV?$allocator@D@0@@Z
        3 ??$_Destroy_range@V?$allocator@I@std@@@std@@YAXPEAI0AEAV?$allocator@I@0@@Z
        3 ??$_Destroy_range@V?$allocator@U_Grp_t@?$_Tgt_state_t@PEBD@std@@@std@@@std@@YAXPEAU_Grp_t@?$_Tgt_state_t@PEBD@0@0AEAV?$allocator@U_Grp_t@?$_Tgt_state_t@PEBD@std@@@0@@Z
        3 ??$_Destroy_range@V?$allocator@U_Loop_vals_t@std@@@std@@@std@@YAXPEAU_Loop_vals_t@0@0AEAV?$allocator@U_Loop_vals_t@std@@@0@@Z
        3 ??$_Destroy_range@V?$allocator@V?$basic_string@DU?$char_traits@D@std@@V?$allocator@D@2@@std@@@std@@@std@@YAXPEAV?$basic_string@DU?$char_traits@D@std@@V?$allocator@D@2@@0@0AEAV?$allocator@V?$basic_string@DU?$char_traits@D@std@@V?$allocator@D@2@@std@@@0@@Z
        3 ??$_Destroy_range@V?$allocator@V?$sub_match@PEBD@std@@@std@@@std@@YAXPEAV?$sub_match@PEBD@0@0AEAV?$allocator@V?$sub_match@PEBD@std@@@0@@Z
        3 ??$_Distance1@PEAD@std@@YA_JPEAD0Urandom_access_iterator_tag@0@@Z
        3 ??$_Distance1@PEAI@std@@YA_JPEAI0Urandom_access_iterator_tag@0@@Z
        3 ??$_Distance1@PEAU_Grp_t@?$_Tgt_state_t@PEBD@std@@@std@@YA_JPEAU_Grp_t@?$_Tgt_state_t@PEBD@0@0Urandom_access_iterator_tag@0@@Z
        3 ??$_Distance1@PEAV?$basic_string@DU?$char_traits@D@std@@V?$allocator@D@2@@std@@@std@@YA_JPEAV?$basic_string@DU?$char_traits@D@std@@V?$allocator@D@2@@0@0Urandom_access_iterator_tag@0@@Z
        3 ??$_Distance1@PEBD@std@@YA_JPEBD0Urandom_access_iterator_tag@0@@Z
        3 ??$_Emplace_back_with_unused_capacity@AEBV?$basic_string@DU?$char_traits@D@std@@V?$allocator@D@2@@std@@@?$vector@V?$basic_string@DU?$char_traits@D@std@@V?$allocator@D@2@@std@@V?$allocator@V?$basic_string@DU?$char_traits@D@std@@V?$allocator@D@2@@std@@@2@@std@@AEAAXAEBV?$basic_string@DU?$char_traits@D@std@@V?$allocator@D@2@@1@@Z
        3 ??$_Emplace_back_with_unused_capacity@V?$basic_string@DU?$char_traits@D@std@@V?$allocator@D@2@@std@@@?$vector@V?$basic_string@DU?$char_traits@D@std@@V?$allocator@D@2@@std@@V?$allocator@V?$basic_string@DU?$char_traits@D@std@@V?$allocator@D@2@@std@@@2@@std@@AEAAX$$QEAV?$basic_string@DU?$char_traits@D@std@@V?$allocator@D@2@@1@@Z
        3 ??$_Equal_memcmp_is_safe@$$CBD$$CBDU?$_Cmp_icase@V?$_Regex_traits@D@std@@@std@@@std@@YA?AU?$integral_constant@_N$0A@@0@AEBQEBD0AEBU?$_Cmp_icase@V?$_Regex_traits@D@std@@@0@@Z
        3 ??$_Equal_unchecked1@PEBDPEBDU?$_Cmp_icase@V?$_Regex_traits@D@std@@@std@@@std@@YA_NPEBD00AEAU?$_Cmp_icase@V?$_Regex_traits@D@std@@@0@U?$integral_constant@_N$0A@@0@@Z
        3 ??$_Equal_unchecked@PEBDPEBDU?$_Cmp_icase@V?$_Regex_traits@D@std@@@std@@@std@@YA_NPEBD000AEAU?$_Cmp_icase@V?$_Regex_traits@D@std@@@0@Urandom_access_iterator_tag@0@2@Z
        3 ??$_Equal_unchecked@PEBDPEBDU?$_Cmp_icase@V?$_Regex_traits@D@std@@@std@@@std@@YA_NPEBD00AEAU?$_Cmp_icase@V?$_Regex_traits@D@std@@@0@@Z
        3 ??$_Fgetc@D@std@@YA_NAEADPEAU_iobuf@@@Z
        3 ??$_Fill_memset_is_safe@V?$_Vb_iterator@U?$_Wrap_alloc@V?$allocator@I@std@@@std@@@std@@_N@std@@YA?AU?$integral_constant@_N$0A@@0@AEBV?$_Vb_iterator@U?$_Wrap_alloc@V?$allocator@I@std@@@std@@@0@AEB_N@Z
        3 ??$_Fill_unchecked1@V?$_Vb_iterator@U?$_Wrap_alloc@V?$allocator@I@std@@@std@@@std@@_N@std@@YAXV?$_Vb_iterator@U?$_Wrap_alloc@V?$allocator@I@std@@@std@@@0@0AEB_NU?$integral_constant@_N$0A@@0@@Z
        3 ??$_Fill_unchecked@V?$_Vb_iterator@U?$_Wrap_alloc@V?$allocator@I@std@@@std@@@std@@_N@std@@YAXV?$_Vb_iterator@U?$_Wrap_alloc@V?$allocator@I@std@@@std@@@0@0AEB_N@Z
        3 ??$_Find@E@_Bitmap@std@@QEBA_NE@Z
        3 ??$_Find_unchecked1@PEADD@std@@YAPEADPEAD0AEBDU?$integral_constant@_N$00@0@@Z
        3 ??$_Find_unchecked1@PEBDE@std@@YAPEBDPEBD0AEBEU?$integral_constant@_N$00@0@@Z
        3 ??$_Find_unchecked@PEADD@std@@YAPEADPEAD0AEBD@Z
        3 ??$_Find_unchecked@PEBDE@std@@YAPEBDPEBD0AEBE@Z
        3 ??$_Fputc@D@std@@YA_NDPEAU_iobuf@@@Z
        3 ??$_Get@D@_Cl_names@std@@QEBAPEBDXZ
        3 ??$_Hash_array_representation@D@std@@YA_KQEBD_K@Z
        3 ??$_Idl_distance1@V?$_String_iterator@V?$_String_val@U?$_Simple_types@D@std@@@std@@@std@@PEAD@std@@YA_JAEBQEAD0Urandom_access_iterator_tag@0@@Z
        3 ??$_Idl_distance1@V?$_Vb_iterator@U?$_Wrap_alloc@V?$allocator@I@std@@@std@@@std@@V12@@std@@YA_JAEBV?$_Vb_iterator@U?$_Wrap_alloc@V?$allocator@I@std@@@std@@@0@0Urandom_access_iterator_tag@0@@Z
        3 ??$_Idl_distance@V?$_String_iterator@V?$_String_val@U?$_Simple_types@D@std@@@std@@@std@@PEAD@std@@YA@AEBQEAD0@Z
        3 ??$_Idl_distance@V?$_Vb_iterator@U?$_Wrap_alloc@V?$allocator@I@std@@@std@@@std@@V12@@std@@YA@AEBV?$_Vb_iterator@U?$_Wrap_alloc@V?$allocator@I@std@@@std@@@0@0@Z
        3 ??$_Insert@PEBD@?$_Buf@D@std@@QEAAXPEBD0@Z
        3 ??$_Insert_at@AEAU?$pair@$$CBV?$basic_string@DU?$char_traits@D@std@@V?$allocator@D@2@@std@@V12@@std@@PEAU?$_Tree_node@U?$pair@$$CBV?$basic_string@DU?$char_traits@D@std@@V?$allocator@D@2@@std@@V12@@std@@PEAX@2@@?$_Tree@V?$_Tmap_traits@V?$basic_string@DU?$char_traits@D@std@@V?$allocator@D@2@@std@@V12@U?$less@V?$basic_string@DU?$char_traits@D@std@@V?$allocator@D@2@@std@@@2@V?$allocator@U?$pair@$$CBV?$basic_string@DU?$char_traits@D@std@@V?$allocator@D@2@@std@@V12@@std@@@2@$0A@@std@@@std@@IEAA?AV?$_Tree_iterator@V?$_Tree_val@U?$_Tree_simple_types@U?$pair@$$CBV?$basic_string@DU?$char_traits@D@std@@V?$allocator@D@2@@std@@V12@@std@@@std@@@std@@@1@_NPEAU?$_Tree_node@U?$pair@$$CBV?$basic_string@DU?$char_traits@D@std@@V?$allocator@D@2@@std@@V12@@std@@PEAX@1@AEAU?$pair@$$CBV?$basic_string@DU?$char_traits@D@std@@V?$allocator@D@2@@std@@V12@@1@1@Z
        3 ??$_Insert_hint@AEAU?$pair@$$CBV?$basic_string@DU?$char_traits@D@std@@V?$allocator@D@2@@std@@V12@@std@@PEAU?$_Tree_node@U?$pair@$$CBV?$basic_string@DU?$char_traits@D@std@@V?$allocator@D@2@@std@@V12@@std@@PEAX@2@@?$_Tree@V?$_Tmap_traits@V?$basic_string@DU?$char_traits@D@std@@V?$allocator@D@2@@std@@V12@U?$less@V?$basic_string@DU?$char_traits@D@std@@V?$allocator@D@2@@std@@@2@V?$allocator@U?$pair@$$CBV?$basic_string@DU?$char_traits@D@std@@V?$allocator@D@2@@std@@V12@@std@@@2@$0A@@std@@@std@@IEAA?AV?$_Tree_iterator@V?$_Tree_val@U?$_Tree_simple_types@U?$pair@$$CBV?$basic_string@DU?$char_traits@D@std@@V?$allocator@D@2@@std@@V12@@std@@@std@@@std@@@1@V?$_Tree_const_iterator@V?$_Tree_val@U?$_Tree_simple_types@U?$pair@$$CBV?$basic_string@DU?$char_traits@D@std@@V?$allocator@D@2@@std@@V12@@std@@@std@@@std@@@1@AEAU?$pair@$$CBV?$basic_string@DU?$char_traits@D@std@@V?$allocator@D@2@@std@@V12@@1@PEAU?$_Tree_node@U?$pair@$$CBV?$basic_string@DU?$char_traits@D@std@@V?$allocator@D@2@@std@@V12@@std@@PEAX@1@@Z
        3 ??$_Insert_nohint@AEAU?$pair@$$CBV?$basic_string@DU?$char_traits@D@std@@V?$allocator@D@2@@std@@V12@@std@@PEAU?$_Tree_node@U?$pair@$$CBV?$basic_string@DU?$char_traits@D@std@@V?$allocator@D@2@@std@@V12@@std@@PEAX@2@@?$_Tree@V?$_Tmap_traits@V?$basic_string@DU?$char_traits@D@std@@V?$allocator@D@2@@std@@V12@U?$less@V?$basic_string@DU?$char_traits@D@std@@V?$allocator@D@2@@std@@@2@V?$allocator@U?$pair@$$CBV?$basic_string@DU?$char_traits@D@std@@V?$allocator@D@2@@std@@V12@@std@@@2@$0A@@std@@@std@@IEAA?AU?$pair@V?$_Tree_iterator@V?$_Tree_val@U?$_Tree_simple_types@U?$pair@$$CBV?$basic_string@DU?$char_traits@D@std@@V?$allocator@D@2@@std@@V12@@std@@@std@@@std@@@std@@_N@1@_NAEAU?$pair@$$CBV?$basic_string@DU?$char_traits@D@std@@V?$allocator@D@2@@std@@V12@@1@PEAU?$_Tree_node@U?$pair@$$CBV?$basic_string@DU?$char_traits@D@std@@V?$allocator@D@2@@std@@V12@@std@@PEAX@1@@Z
        3 ??$_Insert_range@PEAV?$basic_string@DU?$char_traits@D@std@@V?$allocator@D@2@@std@@@?$vector@V?$basic_string@DU?$char_traits@D@std@@V?$allocator@D@2@@std@@V?$allocator@V?$basic_string@DU?$char_traits@D@std@@V?$allocator@D@2@@std@@@2@@std@@AEAAXV?$_Vector_const_iterator@V?$_Vector_val@U?$_Simple_types@V?$basic_string@DU?$char_traits@D@std@@V?$allocator@D@2@@std@@@std@@@std@@@1@PEAV?$basic_string@DU?$char_traits@D@std@@V?$allocator@D@2@@1@1Uforward_iterator_tag@1@@Z
        3 ??$_Insert_string@DU?$char_traits@D@std@@_K@std@@YAAEAV?$basic_ostream@DU?$char_traits@D@std@@@0@AEAV10@QEBD_K@Z
        3 ??$_Is_checked@V?$_String_iterator@V?$_String_val@U?$_Simple_types@D@std@@@std@@@std@@@std@@YA?AU?$integral_constant@_N$00@0@V?$_String_iterator@V?$_String_val@U?$_Simple_types@D@std@@@std@@@0@@Z
        3 ??$_Is_checked@V?$_Vb_iterator@U?$_Wrap_alloc@V?$allocator@I@std@@@std@@@std@@@std@@YA?AU?$integral_constant@_N$00@0@V?$_Vb_iterator@U?$_Wrap_alloc@V?$allocator@I@std@@@std@@@0@@Z
        3 ??$_Kfn@$$CBV?$basic_string@DU?$char_traits@D@std@@V?$allocator@D@2@@std@@V12@@?$_Tmap_traits@V?$basic_string@DU?$char_traits@D@std@@V?$allocator@D@2@@std@@V12@U?$less@V?$basic_string@DU?$char_traits@D@std@@V?$allocator@D@2@@std@@@2@V?$allocator@U?$pair@$$CBV?$basic_string@DU?$char_traits@D@std@@V?$allocator@D@2@@std@@V12@@std@@@2@$0A@@std@@SAAEBV?$basic_string@DU?$char_traits@D@std@@V?$allocator@D@2@@1@AEBU?$pair@$$CBV?$basic_string@DU?$char_traits@D@std@@V?$allocator@D@2@@std@@V12@@1@@Z
        3 ??$_LStrcoll@D@std@@YAHPEBD000PEBU_Collvec@@@Z
        3 ??$_LStrxfrm@D@std@@YA_KPEAD0PEBD1PEBU_Collvec@@@Z
        3 ??$_Lookup_coll@PEBDD@std@@YAPEBDPEBD0PEBU?$_Sequence@D@0@@Z
        3 ??$_Lookup_equiv@DV?$regex_traits@D@std@@@std@@YA_NEPEBU?$_Sequence@D@0@AEBV?$regex_traits@D@0@@Z
        3 ??$_Lookup_range@D@std@@YA_NIPEBU?$_Buf@D@0@@Z
        3 ??$_Mark@E@_Bitmap@std@@QEAAXE@Z
        3 ??$_Mark@I@_Bitmap@std@@QEAAXI@Z
        3 ??$_Match@V?$allocator@V?$sub_match@PEBD@std@@@std@@@?$_Matcher@PEBDDV?$regex_traits@D@std@@PEBD@std@@QEAA_NPEAV?$match_results@PEBDV?$allocator@V?$sub_match@PEBD@std@@@std@@@1@_N@Z
        3 ??$_Max_value@_K@std@@YAAEB_KAEB_K0@Z
        3 ??$_Min_value@_K@std@@YAAEB_KAEB_K0@Z
        3 ??$_Move_backward_unchecked1@PEAV?$basic_string@DU?$char_traits@D@std@@V?$allocator@D@2@@std@@PEAV12@@std@@YAPEAV?$basic_string@DU?$char_traits@D@std@@V?$allocator@D@2@@0@PEAV10@00U_General_ptr_iterator_tag@0@@Z
        3 ??$_Move_backward_unchecked@PEAV?$basic_string@DU?$char_traits@D@std@@V?$allocator@D@2@@std@@PEAV12@@std@@YAPEAV?$basic_string@DU?$char_traits@D@std@@V?$allocator@D@2@@0@PEAV10@00@Z
        3 ??$_Move_unchecked1@PEAIPEAI@std@@YAPEAIPEAI00U_Trivially_copyable_ptr_iterator_tag@0@@Z
        3 ??$_Move_unchecked1@PEAV?$basic_string@DU?$char_traits@D@std@@V?$allocator@D@2@@std@@PEAV12@@std@@YAPEAV?$basic_string@DU?$char_traits@D@std@@V?$allocator@D@2@@0@PEAV10@00U_General_ptr_iterator_tag@0@@Z
        3 ??$_Move_unchecked@PEAIPEAI@std@@YAPEAIPEAI00@Z
        3 ??$_Move_unchecked@PEAV?$basic_string@DU?$char_traits@D@std@@V?$allocator@D@2@@std@@PEAV12@@std@@YAPEAV?$basic_string@DU?$char_traits@D@std@@V?$allocator@D@2@@0@PEAV10@00@Z
        3 ??$_Pocca@V?$allocator@D@std@@@std@@YAXAEAV?$allocator@D@0@AEBV10@@Z
        3 ??$_Pocca@V?$allocator@D@std@@@std@@YAXAEAV?$allocator@D@0@AEBV10@U?$integral_constant@_N$0A@@0@@Z
        3 ??$_Pocca@V?$allocator@I@std@@@std@@YAXAEAV?$allocator@I@0@AEBV10@@Z
        3 ??$_Pocca@V?$allocator@I@std@@@std@@YAXAEAV?$allocator@I@0@AEBV10@U?$integral_constant@_N$0A@@0@@Z
        3 ??$_Pocca@V?$allocator@U_Grp_t@?$_Tgt_state_t@PEBD@std@@@std@@@std@@YAXAEAV?$allocator@U_Grp_t@?$_Tgt_state_t@PEBD@std@@@0@AEBV10@@Z
        3 ??$_Pocca@V?$allocator@U_Grp_t@?$_Tgt_state_t@PEBD@std@@@std@@@std@@YAXAEAV?$allocator@U_Grp_t@?$_Tgt_state_t@PEBD@std@@@0@AEBV10@U?$integral_constant@_N$0A@@0@@Z
        3 ??$_Pocma@V?$allocator@D@std@@@std@@YAXAEAV?$allocator@D@0@0@Z
        3 ??$_Pocma@V?$allocator@D@std@@@std@@YAXAEAV?$allocator@D@0@0U?$integral_constant@_N$00@0@@Z
        3 ??$_Ptr_copy_cat@$$CBDD@std@@YA?AU_Really_trivial_ptr_iterator_tag@0@AEBQEBDAEBQEAD@Z
        3 ??$_Ptr_copy_cat@DD@std@@YA?AU_Really_trivial_ptr_iterator_tag@0@AEBQEAD0@Z
        3 ??$_Ptr_copy_cat@II@std@@YA?AU_Really_trivial_ptr_iterator_tag@0@AEBQEAI0@Z
        3 ??$_Ptr_copy_cat@U_Grp_t@?$_Tgt_state_t@PEBD@std@@U123@@std@@YA?AU_Really_trivial_ptr_iterator_tag@0@AEBQEAU_Grp_t@?$_Tgt_state_t@PEBD@0@0@Z
        3 ??$_Ptr_copy_cat@V?$_Vb_iterator@U?$_Wrap_alloc@V?$allocator@I@std@@@std@@@std@@V12@@std@@YA?AU_General_ptr_iterator_tag@0@AEBV?$_Vb_iterator@U?$_Wrap_alloc@V?$allocator@I@std@@@std@@@0@0@Z
        3 ??$_Ptr_copy_cat@V?$basic_string@DU?$char_traits@D@std@@V?$allocator@D@2@@std@@V12@@std@@YA?AU_General_ptr_iterator_tag@0@AEBQEAV?$basic_string@DU?$char_traits@D@std@@V?$allocator@D@2@@0@0@Z
        3 ??$_Ptr_move_cat@II@std@@YA?AU_Really_trivial_ptr_iterator_tag@0@AEBQEAI0@Z
        3 ??$_Ptr_move_cat@U_Grp_t@?$_Tgt_state_t@PEBD@std@@U123@@std@@YA?AU_Really_trivial_ptr_iterator_tag@0@AEBQEAU_Grp_t@?$_Tgt_state_t@PEBD@0@0@Z
        3 ??$_Ptr_move_cat@U_Loop_vals_t@std@@U12@@std@@YA?AU_Really_trivial_ptr_iterator_tag@0@AEBQEAU_Loop_vals_t@0@0@Z
        3 ??$_Ptr_move_cat@V?$basic_string@DU?$char_traits@D@std@@V?$allocator@D@2@@std@@V12@@std@@YA?AU_General_ptr_iterator_tag@0@AEBQEAV?$basic_string@DU?$char_traits@D@std@@V?$allocator@D@2@@0@0@Z
        3 ??$_Ptr_move_cat@V?$sub_match@PEBD@std@@V12@@std@@YA?AU_General_ptr_iterator_tag@0@AEBQEAV?$sub_match@PEBD@0@0@Z
        3 ??$_Range_construct_or_tidy@PEAD@?$vector@DV?$allocator@D@std@@@std@@AEAAXPEAD0Uforward_iterator_tag@1@@Z
        3 ??$_Range_construct_or_tidy@PEBD@?$vector@DV?$allocator@D@std@@@std@@AEAAXPEBD0Uforward_iterator_tag@1@@Z
        3 ??$_Rechecked@PEADPEAD@std@@YAAEAPEADAEAPEADPEAD@Z
        3 ??$_Rechecked@PEAIPEAI@std@@YAAEAPEAIAEAPEAIPEAI@Z
        3 ??$_Rechecked@PEAU_Grp_t@?$_Tgt_state_t@PEBD@std@@PEAU123@@std@@YAAEAPEAU_Grp_t@?$_Tgt_state_t@PEBD@0@AEAPEAU120@PEAU120@@Z
        3 ??$_Rechecked@PEAU_Loop_vals_t@std@@PEAU12@@std@@YAAEAPEAU_Loop_vals_t@0@AEAPEAU10@PEAU10@@Z
        3 ??$_Rechecked@PEAV?$basic_string@DU?$char_traits@D@std@@V?$allocator@D@2@@std@@PEAV12@@std@@YAAEAPEAV?$basic_string@DU?$char_traits@D@std@@V?$allocator@D@2@@0@AEAPEAV10@PEAV10@@Z
        3 ??$_Rechecked@PEAV?$sub_match@PEBD@std@@PEAV12@@std@@YAAEAPEAV?$sub_match@PEBD@0@AEAPEAV10@PEAV10@@Z
        3 ??$_Rechecked@PEBDPEBD@std@@YAAEAPEBDAEAPEBDPEBD@Z
        3 ??$_Rechecked@V?$_String_val@U?$_Simple_types@D@std@@@std@@@std@@YAAEAV?$_String_iterator@V?$_String_val@U?$_Simple_types@D@std@@@std@@@0@AEAV10@QEAD@Z
        3 ??$_Rechecked@V?$_Vb_iterator@U?$_Wrap_alloc@V?$allocator@I@std@@@std@@@std@@V12@@std@@YAAEAV?$_Vb_iterator@U?$_Wrap_alloc@V?$allocator@I@std@@@std@@@0@AEAV10@V10@@Z
        3 ??$_Refancy@PEAD$0A@@std@@YAPEADPEAD@Z
        3 ??$_Refancy@PEBD$0A@@std@@YAPEBDPEBD@Z
        3 ??$_Regex_match1@PEBDV?$allocator@V?$sub_match@PEBD@std@@@std@@DV?$regex_traits@D@2@PEBD@std@@YA_NPEBD0PEAV?$match_results@PEBDV?$allocator@V?$sub_match@PEBD@std@@@std@@@0@AEBV?$basic_regex@DV?$regex_traits@D@std@@@0@W4match_flag_type@regex_constants@0@_N@Z
        3 ??$_Remove_unchecked@PEADD@std@@YAPEADPEAD0AEBD@Z
        3 ??$_Replace_range@PEBD@?$basic_string@DU?$char_traits@D@std@@V?$allocator@D@2@@std@@QEAAAEAV01@V?$_String_const_iterator@V?$_String_val@U?$_Simple_types@D@std@@@std@@@1@0QEBD1U?$integral_constant@_N$00@1@@Z
        3 ??$_Reset@PEBD@?$basic_regex@DV?$regex_traits@D@std@@@std@@AEAAXPEBD0W4syntax_option_type@regex_constants@1@Uforward_iterator_tag@1@@Z
        3 ??$_Swap_adl@PEAV_Node_base@std@@@std@@YAXAEAPEAV_Node_base@0@0@Z
        3 ??$_Traits_compare@U?$char_traits@D@std@@@std@@YAHQEBD_K01@Z
        3 ??$_Traits_equal@U?$char_traits@D@std@@@std@@YA_NQEBD_K01@Z
        3 ??$_Traits_find@U?$char_traits@D@std@@@std@@YA_KQEBD_K101@Z
        3 ??$_Traits_find_ch@U?$char_traits@D@std@@@std@@YA_KQEBD_K1D@Z
        3 ??$_Traits_find_first_not_of@U?$char_traits@D@std@@@std@@YA_KQEBD_K101@Z
        3 ??$_Traits_find_first_of@U?$char_traits@D@std@@@std@@YA_KQEBD_K101@Z
        3 ??$_Traits_find_last_not_of@U?$char_traits@D@std@@@std@@YA_KQEBD_K101@Z
        3 ??$_Transform_no_deprecate@V?$_String_iterator@V?$_String_val@U?$_Simple_types@D@std@@@std@@@std@@V12@P6AHH@Z@std@@YA?AV?$_String_iterator@V?$_String_val@U?$_Simple_types@D@std@@@std@@@0@V10@00AEAP6AHH@Z@Z
        3 ??$_Ucopy@PEAD@?$vector@DV?$allocator@D@std@@@std@@AEAAPEADPEAD00@Z
        3 ??$_Ucopy@PEAI@?$vector@IV?$allocator@I@std@@@std@@AEAAPEAIPEAI00@Z
        3 ??$_Ucopy@PEAU_Grp_t@?$_Tgt_state_t@PEBD@std@@@?$vector@U_Grp_t@?$_Tgt_state_t@PEBD@std@@V?$allocator@U_Grp_t@?$_Tgt_state_t@PEBD@std@@@3@@std@@AEAAPEAU_Grp_t@?$_Tgt_state_t@PEBD@1@PEAU231@00@Z
        3 ??$_Ucopy@PEAV?$basic_string@DU?$char_traits@D@std@@V?$allocator@D@2@@std@@@?$vector@V?$basic_string@DU?$char_traits@D@std@@V?$allocator@D@2@@std@@V?$allocator@V?$basic_string@DU?$char_traits@D@std@@V?$allocator@D@2@@std@@@2@@std@@AEAAPEAV?$basic_string@DU?$char_traits@D@std@@V?$allocator@D@2@@1@PEAV21@00@Z
        3 ??$_Ucopy@PEBD@?$vector@DV?$allocator@D@std@@@std@@AEAAPEADPEBD0PEAD@Z
        3 ??$_Unchecked@PEAD@std@@YAPEADPEAD@Z
        3 ??$_Unchecked@PEAI@std@@YAPEAIPEAI@Z
        3 ??$_Unchecked@PEAU_Grp_t@?$_Tgt_state_t@PEBD@std@@@std@@YAPEAU_Grp_t@?$_Tgt_state_t@PEBD@0@PEAU120@@Z
        3 ??$_Unchecked@PEAU_Loop_vals_t@std@@@std@@YAPEAU_Loop_vals_t@0@PEAU10@@Z
        3 ??$_Unchecked@PEAV?$basic_string@DU?$char_traits@D@std@@V?$allocator@D@2@@std@@@std@@YAPEAV?$basic_string@DU?$char_traits@D@std@@V?$allocator@D@2@@0@PEAV10@@Z
        3 ??$_Unchecked@PEAV?$sub_match@PEBD@std@@@std@@YAPEAV?$sub_match@PEBD@0@PEAV10@@Z
        3 ??$_Unchecked@PEBD@std@@YAPEBDPEBD@Z
        3 ??$_Unchecked@V?$_String_val@U?$_Simple_types@D@std@@@std@@@std@@YAPEADAEBV?$_String_iterator@V?$_String_val@U?$_Simple_types@D@std@@@std@@@0@@Z
        3 ??$_Unchecked@V?$_String_val@U?$_Simple_types@D@std@@@std@@@std@@YAPEBDAEBV?$_String_const_iterator@V?$_String_val@U?$_Simple_types@D@std@@@std@@@0@@Z
        3 ??$_Unchecked@V?$_Vb_iterator@U?$_Wrap_alloc@V?$allocator@I@std@@@std@@@std@@@std@@YA?AV?$_Vb_iterator@U?$_Wrap_alloc@V?$allocator@I@std@@@std@@@0@V10@@Z
        3 ??$_Unchecked@V?$_Vector_val@U?$_Simple_types@V?$basic_string@DU?$char_traits@D@std@@V?$allocator@D@2@@std@@@std@@@std@@@std@@YAPEAV?$basic_string@DU?$char_traits@D@std@@V?$allocator@D@2@@0@AEBV?$_Vector_iterator@V?$_Vector_val@U?$_Simple_types@V?$basic_string@DU?$char_traits@D@std@@V?$allocator@D@2@@std@@@std@@@std@@@0@@Z
        3 ??$_Unchecked_n1@V?$_String_iterator@V?$_String_val@U?$_Simple_types@D@std@@@std@@@std@@_J@std@@YA@V?$_String_iterator@V?$_String_val@U?$_Simple_types@D@std@@@std@@@0@_JU?$integral_constant@_N$00@0@@Z
        3 ??$_Unchecked_n1@V?$_Vb_iterator@U?$_Wrap_alloc@V?$allocator@I@std@@@std@@@std@@_J@std@@YA@V?$_Vb_iterator@U?$_Wrap_alloc@V?$allocator@I@std@@@std@@@0@_JU?$integral_constant@_N$00@0@@Z
        3 ??$_Unchecked_n@V?$_String_iterator@V?$_String_val@U?$_Simple_types@D@std@@@std@@@std@@_J@std@@YA@V?$_String_iterator@V?$_String_val@U?$_Simple_types@D@std@@@std@@@0@_J@Z
        3 ??$_Unchecked_n@V?$_Vb_iterator@U?$_Wrap_alloc@V?$allocator@I@std@@@std@@@std@@_J@std@@YA@V?$_Vb_iterator@U?$_Wrap_alloc@V?$allocator@I@std@@@std@@@0@_J@Z
        3 ??$_Unchecked_n_backward1@V?$_Vb_iterator@U?$_Wrap_alloc@V?$allocator@I@std@@@std@@@std@@_J@std@@YA@V?$_Vb_iterator@U?$_Wrap_alloc@V?$allocator@I@std@@@std@@@0@_JUrandom_access_iterator_tag@0@@Z
        3 ??$_Unchecked_n_backward@V?$_Vb_iterator@U?$_Wrap_alloc@V?$allocator@I@std@@@std@@@std@@_J@std@@YA@V?$_Vb_iterator@U?$_Wrap_alloc@V?$allocator@I@std@@@std@@@0@_J@Z
        3 ??$_Unfancy@$$CBD@std@@YAPEBDPEBD@Z
        3 ??$_Unfancy@D@std@@YAPEADPEAD@Z
        3 ??$_Unfancy@I@std@@YAPEAIPEAI@Z
        3 ??$_Unfancy@U_Container_proxy@std@@@std@@YAPEAU_Container_proxy@0@PEAU10@@Z
        3 ??$_Unfancy@U_Grp_t@?$_Tgt_state_t@PEBD@std@@@std@@YAPEAU_Grp_t@?$_Tgt_state_t@PEBD@0@PEAU120@@Z
        3 ??$_Unfancy@U_Loop_vals_t@std@@@std@@YAPEAU_Loop_vals_t@0@PEAU10@@Z
        3 ??$_Unfancy@V?$basic_string@DU?$char_traits@D@std@@V?$allocator@D@2@@std@@@std@@YAPEAV?$basic_string@DU?$char_traits@D@std@@V?$allocator@D@2@@0@PEAV10@@Z
        3 ??$_Unfancy@V?$sub_match@PEBD@std@@@std@@YAPEAV?$sub_match@PEBD@0@PEAV10@@Z
        3 ??$_Unfancy_maybe_null@D@std@@YAPEADPEAD@Z
        3 ??$_Unfancy_maybe_null@I@std@@YAPEAIPEAI@Z
        3 ??$_Ungetc@D@std@@YA_NAEBDPEAU_iobuf@@@Z
        3 ??$_Uninit_alloc_fill_n1@PEAI_KV?$allocator@I@std@@@std@@YAPEAIPEAI_KAEBIAEAV?$allocator@I@0@U?$integral_constant@_N$0A@@0@@Z
        3 ??$_Uninitialized_copy@PEADPEADV?$allocator@D@std@@@std@@YAPEADPEAD00AEAV?$allocator@D@0@@Z
        3 ??$_Uninitialized_copy@PEAIPEAIV?$allocator@I@std@@@std@@YAPEAIPEAI00AEAV?$allocator@I@0@@Z
        3 ??$_Uninitialized_copy@PEAU_Grp_t@?$_Tgt_state_t@PEBD@std@@PEAU123@V?$allocator@U_Grp_t@?$_Tgt_state_t@PEBD@std@@@3@@std@@YAPEAU_Grp_t@?$_Tgt_state_t@PEBD@0@PEAU120@00AEAV?$allocator@U_Grp_t@?$_Tgt_state_t@PEBD@std@@@0@@Z
        3 ??$_Uninitialized_copy@PEAV?$basic_string@DU?$char_traits@D@std@@V?$allocator@D@2@@std@@PEAV12@V?$allocator@V?$basic_string@DU?$char_traits@D@std@@V?$allocator@D@2@@std@@@2@@std@@YAPEAV?$basic_string@DU?$char_traits@D@std@@V?$allocator@D@2@@0@PEAV10@00AEAV?$allocator@V?$basic_string@DU?$char_traits@D@std@@V?$allocator@D@2@@std@@@0@@Z
        3 ??$_Uninitialized_copy@PEBDPEADV?$allocator@D@std@@@std@@YAPEADPEBD0PEADAEAV?$allocator@D@0@@Z
        3 ??$_Uninitialized_copy_al_unchecked@$$CBDDV?$allocator@D@std@@@std@@YAPEADPEBD0PEADAEAV?$allocator@D@0@U_Really_trivial_ptr_iterator_tag@0@U?$integral_constant@_N$00@0@@Z
        3 ??$_Uninitialized_copy_al_unchecked@DDV?$allocator@D@std@@@std@@YAPEADPEAD00AEAV?$allocator@D@0@U_Really_trivial_ptr_iterator_tag@0@U?$integral_constant@_N$00@0@@Z
        3 ??$_Uninitialized_copy_al_unchecked@IIV?$allocator@I@std@@@std@@YAPEAIPEAI00AEAV?$allocator@I@0@U_Really_trivial_ptr_iterator_tag@0@U?$integral_constant@_N$00@0@@Z
        3 ??$_Uninitialized_copy_al_unchecked@PEAV?$basic_string@DU?$char_traits@D@std@@V?$allocator@D@2@@std@@PEAV12@V?$allocator@V?$basic_string@DU?$char_traits@D@std@@V?$allocator@D@2@@std@@@2@@std@@YAPEAV?$basic_string@DU?$char_traits@D@std@@V?$allocator@D@2@@0@PEAV10@00AEAV?$allocator@V?$basic_string@DU?$char_traits@D@std@@V?$allocator@D@2@@std@@@0@U_General_ptr_iterator_tag@0@U_Unused_parameter@0@@Z
        3 ??$_Uninitialized_copy_al_unchecked@U_Grp_t@?$_Tgt_state_t@PEBD@std@@U123@V?$allocator@U_Grp_t@?$_Tgt_state_t@PEBD@std@@@3@@std@@YAPEAU_Grp_t@?$_Tgt_state_t@PEBD@0@PEAU120@00AEAV?$allocator@U_Grp_t@?$_Tgt_state_t@PEBD@std@@@0@U_Really_trivial_ptr_iterator_tag@0@U?$integral_constant@_N$00@0@@Z
        3 ??$_Uninitialized_fill_n@PEAI_KV?$allocator@I@std@@@std@@YAPEAIPEAI_KAEBIAEAV?$allocator@I@0@@Z
        3 ??$_Uninitialized_move@PEAIPEAIV?$allocator@I@std@@@std@@YAPEAIPEAI00AEAV?$allocator@I@0@@Z
        3 ??$_Uninitialized_move@PEAU_Grp_t@?$_Tgt_state_t@PEBD@std@@PEAU123@V?$allocator@U_Grp_t@?$_Tgt_state_t@PEBD@std@@@3@@std@@YAPEAU_Grp_t@?$_Tgt_state_t@PEBD@0@PEAU120@00AEAV?$allocator@U_Grp_t@?$_Tgt_state_t@PEBD@std@@@0@@Z
        3 ??$_Uninitialized_move@PEAU_Loop_vals_t@std@@PEAU12@V?$allocator@U_Loop_vals_t@std@@@2@@std@@YAPEAU_Loop_vals_t@0@PEAU10@00AEAV?$allocator@U_Loop_vals_t@std@@@0@@Z
        3 ??$_Uninitialized_move@PEAV?$basic_string@DU?$char_traits@D@std@@V?$allocator@D@2@@std@@PEAV12@V?$allocator@V?$basic_string@DU?$char_traits@D@std@@V?$allocator@D@2@@std@@@2@@std@@YAPEAV?$basic_string@DU?$char_traits@D@std@@V?$allocator@D@2@@0@PEAV10@00AEAV?$allocator@V?$basic_string@DU?$char_traits@D@std@@V?$allocator@D@2@@std@@@0@@Z
        3 ??$_Uninitialized_move@PEAV?$sub_match@PEBD@std@@PEAV12@V?$allocator@V?$sub_match@PEBD@std@@@2@@std@@YAPEAV?$sub_match@PEBD@0@PEAV10@00AEAV?$allocator@V?$sub_match@PEBD@std@@@0@@Z
        3 ??$_Uninitialized_move_al_unchecked@IIV?$allocator@I@std@@@std@@YAPEAIPEAI00AEAV?$allocator@I@0@U_Really_trivial_ptr_iterator_tag@0@U?$integral_constant@_N$00@0@@Z
        3 ??$_Uninitialized_move_al_unchecked@PEAV?$basic_string@DU?$char_traits@D@std@@V?$allocator@D@2@@std@@PEAV12@V?$allocator@V?$basic_string@DU?$char_traits@D@std@@V?$allocator@D@2@@std@@@2@@std@@YAPEAV?$basic_string@DU?$char_traits@D@std@@V?$allocator@D@2@@0@PEAV10@00AEAV?$allocator@V?$basic_string@DU?$char_traits@D@std@@V?$allocator@D@2@@std@@@0@U_General_ptr_iterator_tag@0@U_Unused_parameter@0@@Z
        3 ??$_Uninitialized_move_al_unchecked@PEAV?$sub_match@PEBD@std@@PEAV12@V?$allocator@V?$sub_match@PEBD@std@@@2@@std@@YAPEAV?$sub_match@PEBD@0@PEAV10@00AEAV?$allocator@V?$sub_match@PEBD@std@@@0@U_General_ptr_iterator_tag@0@U_Unused_parameter@0@@Z
        3 ??$_Uninitialized_move_al_unchecked@U_Grp_t@?$_Tgt_state_t@PEBD@std@@U123@V?$allocator@U_Grp_t@?$_Tgt_state_t@PEBD@std@@@3@@std@@YAPEAU_Grp_t@?$_Tgt_state_t@PEBD@0@PEAU120@00AEAV?$allocator@U_Grp_t@?$_Tgt_state_t@PEBD@std@@@0@U_Really_trivial_ptr_iterator_tag@0@U?$integral_constant@_N$00@0@@Z
        3 ??$_Uninitialized_move_al_unchecked@U_Loop_vals_t@std@@U12@V?$allocator@U_Loop_vals_t@std@@@2@@std@@YAPEAU_Loop_vals_t@0@PEAU10@00AEAV?$allocator@U_Loop_vals_t@std@@@0@U_Really_trivial_ptr_iterator_tag@0@U?$integral_constant@_N$00@0@@Z
        3 ??$_Uninitialized_value_construct_n1@PEAU_Grp_t@?$_Tgt_state_t@PEBD@std@@_KV?$allocator@U_Grp_t@?$_Tgt_state_t@PEBD@std@@@3@@std@@YAPEAU_Grp_t@?$_Tgt_state_t@PEBD@0@PEAU120@_KAEAV?$allocator@U_Grp_t@?$_Tgt_state_t@PEBD@std@@@0@U?$integral_constant@_N$0A@@0@@Z
        3 ??$_Uninitialized_value_construct_n1@PEAU_Loop_vals_t@std@@_KV?$allocator@U_Loop_vals_t@std@@@2@@std@@YAPEAU_Loop_vals_t@0@PEAU10@_KAEAV?$allocator@U_Loop_vals_t@std@@@0@U?$integral_constant@_N$0A@@0@@Z
        3 ??$_Uninitialized_value_construct_n1@PEAV?$sub_match@PEBD@std@@_KV?$allocator@V?$sub_match@PEBD@std@@@2@@std@@YAPEAV?$sub_match@PEBD@0@PEAV10@_KAEAV?$allocator@V?$sub_match@PEBD@std@@@0@U?$integral_constant@_N$0A@@0@@Z
        3 ??$_Uninitialized_value_construct_n@PEAU_Grp_t@?$_Tgt_state_t@PEBD@std@@_KV?$allocator@U_Grp_t@?$_Tgt_state_t@PEBD@std@@@3@@std@@YAPEAU_Grp_t@?$_Tgt_state_t@PEBD@0@PEAU120@_KAEAV?$allocator@U_Grp_t@?$_Tgt_state_t@PEBD@std@@@0@@Z
        3 ??$_Uninitialized_value_construct_n@PEAU_Loop_vals_t@std@@_KV?$allocator@U_Loop_vals_t@std@@@2@@std@@YAPEAU_Loop_vals_t@0@PEAU10@_KAEAV?$allocator@U_Loop_vals_t@std@@@0@@Z
        3 ??$_Uninitialized_value_construct_n@PEAV?$sub_match@PEBD@std@@_KV?$allocator@V?$sub_match@PEBD@std@@@2@@std@@YAPEAV?$sub_match@PEBD@0@PEAV10@_KAEAV?$allocator@V?$sub_match@PEBD@std@@@0@@Z
        3 ??$_Within_limits@D@std@@YA_NAEBDU?$integral_constant@_N$00@0@1U_Unused_parameter@0@@Z
        3 ??$_Within_limits@E@std@@YA_NAEBEU?$integral_constant@_N$00@0@U?$integral_constant@_N$0A@@0@2@Z
        3 ??$_Within_limits@PEADD@std@@YA_NPEADAEBD@Z
        3 ??$_Within_limits@PEBDE@std@@YA_NPEBDAEBE@Z
        3 ??$addressof@$$CBV?$_String_val@U?$_Simple_types@D@std@@@std@@@std@@YAPEBV?$_String_val@U?$_Simple_types@D@std@@@0@AEBV10@@Z
        3 ??$addressof@$$CBV?$basic_string@DU?$char_traits@D@std@@V?$allocator@D@2@@std@@@std@@YAPEBV?$basic_string@DU?$char_traits@D@std@@V?$allocator@D@2@@0@AEBV10@@Z
        3 ??$addressof@$$CBV?$vector@IV?$allocator@I@std@@@std@@@std@@YAPEBV?$vector@IV?$allocator@I@std@@@0@AEBV10@@Z
        3 ??$addressof@$$CBV?$vector@U_Grp_t@?$_Tgt_state_t@PEBD@std@@V?$allocator@U_Grp_t@?$_Tgt_state_t@PEBD@std@@@3@@std@@@std@@YAPEBV?$vector@U_Grp_t@?$_Tgt_state_t@PEBD@std@@V?$allocator@U_Grp_t@?$_Tgt_state_t@PEBD@std@@@3@@0@AEBV10@@Z
        3 ??$addressof@$$CBV?$vector@_NV?$allocator@_N@std@@@std@@@std@@YAPEBV?$vector@_NV?$allocator@_N@std@@@0@AEBV10@@Z
        3 ??$addressof@D@std@@YAPEADAEAD@Z
        3 ??$addressof@PEAD@std@@YAPEAPEADAEAPEAD@Z
        3 ??$addressof@PEAU?$_Tree_node@U?$pair@$$CBV?$basic_string@DU?$char_traits@D@std@@V?$allocator@D@2@@std@@V12@@std@@PEAX@std@@@std@@YAPEAPEAU?$_Tree_node@U?$pair@$$CBV?$basic_string@DU?$char_traits@D@std@@V?$allocator@D@2@@std@@V12@@std@@PEAX@0@AEAPEAU10@@Z
        3 ??$addressof@U?$pair@$$CBV?$basic_string@DU?$char_traits@D@std@@V?$allocator@D@2@@std@@V12@@std@@@std@@YAPEAU?$pair@$$CBV?$basic_string@DU?$char_traits@D@std@@V?$allocator@D@2@@std@@V12@@0@AEAU10@@Z
        3 ??$addressof@V?$_String_val@U?$_Simple_types@D@std@@@std@@@std@@YAPEAV?$_String_val@U?$_Simple_types@D@std@@@0@AEAV10@@Z
        3 ??$addressof@V?$_Tree_val@U?$_Tree_simple_types@U?$pair@$$CBV?$basic_string@DU?$char_traits@D@std@@V?$allocator@D@2@@std@@V12@@std@@@std@@@std@@@std@@YAPEAV?$_Tree_val@U?$_Tree_simple_types@U?$pair@$$CBV?$basic_string@DU?$char_traits@D@std@@V?$allocator@D@2@@std@@V12@@std@@@std@@@0@AEAV10@@Z
        3 ??$addressof@V?$_Vector_val@U?$_Simple_types@D@std@@@std@@@std@@YAPEAV?$_Vector_val@U?$_Simple_types@D@std@@@0@AEAV10@@Z
        3 ??$addressof@V?$_Vector_val@U?$_Simple_types@I@std@@@std@@@std@@YAPEAV?$_Vector_val@U?$_Simple_types@I@std@@@0@AEAV10@@Z
        3 ??$addressof@V?$_Vector_val@U?$_Simple_types@U_Grp_t@?$_Tgt_state_t@PEBD@std@@@std@@@std@@@std@@YAPEAV?$_Vector_val@U?$_Simple_types@U_Grp_t@?$_Tgt_state_t@PEBD@std@@@std@@@0@AEAV10@@Z
        3 ??$addressof@V?$_Vector_val@U?$_Simple_types@U_Loop_vals_t@std@@@std@@@std@@@std@@YAPEAV?$_Vector_val@U?$_Simple_types@U_Loop_vals_t@std@@@std@@@0@AEAV10@@Z
        3 ??$addressof@V?$_Vector_val@U?$_Simple_types@V?$basic_string@DU?$char_traits@D@std@@V?$allocator@D@2@@std@@@std@@@std@@@std@@YAPEAV?$_Vector_val@U?$_Simple_types@V?$basic_string@DU?$char_traits@D@std@@V?$allocator@D@2@@std@@@std@@@0@AEAV10@@Z
        3 ??$addressof@V?$basic_string@DU?$char_traits@D@std@@V?$allocator@D@2@@std@@@std@@YAPEAV?$basic_string@DU?$char_traits@D@std@@V?$allocator@D@2@@0@AEAV10@@Z
        3 ??$advance@PEAI_J@std@@YAXAEAPEAI_J@Z
        3 ??$advance@PEAU_Grp_t@?$_Tgt_state_t@PEBD@std@@_J@std@@YAXAEAPEAU_Grp_t@?$_Tgt_state_t@PEBD@0@_J@Z
        3 ??$advance@PEBD_J@std@@YAXAEAPEBD_J@Z
        3 ??$assign@PEAIX@?$vector@IV?$allocator@I@std@@@std@@QEAAXPEAI0@Z
        3 ??$assign@PEAU_Grp_t@?$_Tgt_state_t@PEBD@std@@X@?$vector@U_Grp_t@?$_Tgt_state_t@PEBD@std@@V?$allocator@U_Grp_t@?$_Tgt_state_t@PEBD@std@@@3@@std@@QEAAXPEAU_Grp_t@?$_Tgt_state_t@PEBD@1@0@Z
        3 ??$assign@PEBDX@?$basic_string@DU?$char_traits@D@std@@V?$allocator@D@2@@std@@QEAAAEAV01@QEBD0@Z
        3 ??$construct@IAEBI@?$_Default_allocator_traits@V?$allocator@I@std@@@std@@SAXAEAV?$allocator@I@1@QEAIAEBI@Z
        3 ??$construct@PEADAEBQEAD@?$_Default_allocator_traits@V?$allocator@D@std@@@std@@SAXAEAV?$allocator@D@1@QEAPEADAEBQEAD@Z
        3 ??$construct@PEAU?$_Tree_node@U?$pair@$$CBV?$basic_string@DU?$char_traits@D@std@@V?$allocator@D@2@@std@@V12@@std@@PEAX@std@@AEAPEAU12@@?$_Default_allocator_traits@V?$allocator@U?$_Tree_node@U?$pair@$$CBV?$basic_string@DU?$char_traits@D@std@@V?$allocator@D@2@@std@@V12@@std@@PEAX@std@@@std@@@std@@SAXAEAV?$allocator@U?$_Tree_node@U?$pair@$$CBV?$basic_string@DU?$char_traits@D@std@@V?$allocator@D@2@@std@@V12@@std@@PEAX@std@@@1@QEAPEAU?$_Tree_node@U?$pair@$$CBV?$basic_string@DU?$char_traits@D@std@@V?$allocator@D@2@@std@@V12@@std@@PEAX@1@AEAPEAU31@@Z
        3 ??$construct@U?$pair@$$CBV?$basic_string@DU?$char_traits@D@std@@V?$allocator@D@2@@std@@V12@@std@@AEBU12@@?$_Default_allocator_traits@V?$allocator@U?$_Tree_node@U?$pair@$$CBV?$basic_string@DU?$char_traits@D@std@@V?$allocator@D@2@@std@@V12@@std@@PEAX@std@@@std@@@std@@SAXAEAV?$allocator@U?$_Tree_node@U?$pair@$$CBV?$basic_string@DU?$char_traits@D@std@@V?$allocator@D@2@@std@@V12@@std@@PEAX@std@@@1@QEAU?$pair@$$CBV?$basic_string@DU?$char_traits@D@std@@V?$allocator@D@2@@std@@V12@@1@AEBU31@@Z
        3 ??$construct@U_Container_proxy@std@@U12@@?$_Default_allocator_traits@V?$allocator@U_Container_proxy@std@@@std@@@std@@SAXAEAV?$allocator@U_Container_proxy@std@@@1@QEAU_Container_proxy@1@$$QEAU31@@Z
        3 ??$construct@U_Grp_t@?$_Tgt_state_t@PEBD@std@@$$V@?$_Default_allocator_traits@V?$allocator@U_Grp_t@?$_Tgt_state_t@PEBD@std@@@std@@@std@@SAXAEAV?$allocator@U_Grp_t@?$_Tgt_state_t@PEBD@std@@@1@QEAU_Grp_t@?$_Tgt_state_t@PEBD@1@@Z
        3 ??$construct@U_Loop_vals_t@std@@$$V@?$_Default_allocator_traits@V?$allocator@U_Loop_vals_t@std@@@std@@@std@@SAXAEAV?$allocator@U_Loop_vals_t@std@@@1@QEAU_Loop_vals_t@1@@Z
        3 ??$construct@V?$basic_string@DU?$char_traits@D@std@@V?$allocator@D@2@@std@@AEAV12@@?$_Default_allocator_traits@V?$allocator@V?$basic_string@DU?$char_traits@D@std@@V?$allocator@D@2@@std@@@std@@@std@@SAXAEAV?$allocator@V?$basic_string@DU?$char_traits@D@std@@V?$allocator@D@2@@std@@@1@QEAV?$basic_string@DU?$char_traits@D@std@@V?$allocator@D@2@@1@AEAV31@@Z
        3 ??$construct@V?$basic_string@DU?$char_traits@D@std@@V?$allocator@D@2@@std@@AEBV12@@?$_Default_allocator_traits@V?$allocator@V?$basic_string@DU?$char_traits@D@std@@V?$allocator@D@2@@std@@@std@@@std@@SAXAEAV?$allocator@V?$basic_string@DU?$char_traits@D@std@@V?$allocator@D@2@@std@@@1@QEAV?$basic_string@DU?$char_traits@D@std@@V?$allocator@D@2@@1@AEBV31@@Z
        3 ??$construct@V?$basic_string@DU?$char_traits@D@std@@V?$allocator@D@2@@std@@V12@@?$_Default_allocator_traits@V?$allocator@V?$basic_string@DU?$char_traits@D@std@@V?$allocator@D@2@@std@@@std@@@std@@SAXAEAV?$allocator@V?$basic_string@DU?$char_traits@D@std@@V?$allocator@D@2@@std@@@1@QEAV?$basic_string@DU?$char_traits@D@std@@V?$allocator@D@2@@1@$$QEAV31@@Z
        3 ??$construct@V?$sub_match@PEBD@std@@$$V@?$_Default_allocator_traits@V?$allocator@V?$sub_match@PEBD@std@@@std@@@std@@SAXAEAV?$allocator@V?$sub_match@PEBD@std@@@1@QEAV?$sub_match@PEBD@1@@Z
        3 ??$construct@V?$sub_match@PEBD@std@@V12@@?$_Default_allocator_traits@V?$allocator@V?$sub_match@PEBD@std@@@std@@@std@@SAXAEAV?$allocator@V?$sub_match@PEBD@std@@@1@QEAV?$sub_match@PEBD@1@$$QEAV31@@Z
        3 ??$copy@V?$_Vb_iterator@U?$_Wrap_alloc@V?$allocator@I@std@@@std@@@std@@V12@@std@@YA?AV?$_Vb_iterator@U?$_Wrap_alloc@V?$allocator@I@std@@@std@@@0@V10@00@Z
        3 ??$copy_backward@V?$_Vb_iterator@U?$_Wrap_alloc@V?$allocator@I@std@@@std@@@std@@V12@@std@@YA?AV?$_Vb_iterator@U?$_Wrap_alloc@V?$allocator@I@std@@@std@@@0@V10@00@Z
        3 ??$destroy@PEAD@?$_Default_allocator_traits@V?$allocator@D@std@@@std@@SAXAEAV?$allocator@D@1@QEAPEAD@Z
        3 ??$destroy@PEAU?$_Tree_node@U?$pair@$$CBV?$basic_string@DU?$char_traits@D@std@@V?$allocator@D@2@@std@@V12@@std@@PEAX@std@@@?$_Default_allocator_traits@V?$allocator@U?$_Tree_node@U?$pair@$$CBV?$basic_string@DU?$char_traits@D@std@@V?$allocator@D@2@@std@@V12@@std@@PEAX@std@@@std@@@std@@SAXAEAV?$allocator@U?$_Tree_node@U?$pair@$$CBV?$basic_string@DU?$char_traits@D@std@@V?$allocator@D@2@@std@@V12@@std@@PEAX@std@@@1@QEAPEAU?$_Tree_node@U?$pair@$$CBV?$basic_string@DU?$char_traits@D@std@@V?$allocator@D@2@@std@@V12@@std@@PEAX@1@@Z
        3 ??$destroy@U?$pair@$$CBV?$basic_string@DU?$char_traits@D@std@@V?$allocator@D@2@@std@@V12@@std@@@?$_Default_allocator_traits@V?$allocator@U?$_Tree_node@U?$pair@$$CBV?$basic_string@DU?$char_traits@D@std@@V?$allocator@D@2@@std@@V12@@std@@PEAX@std@@@std@@@std@@SAXAEAV?$allocator@U?$_Tree_node@U?$pair@$$CBV?$basic_string@DU?$char_traits@D@std@@V?$allocator@D@2@@std@@V12@@std@@PEAX@std@@@1@QEAU?$pair@$$CBV?$basic_string@DU?$char_traits@D@std@@V?$allocator@D@2@@std@@V12@@1@@Z
        3 ??$destroy@U_Container_proxy@std@@@?$_Default_allocator_traits@V?$allocator@U_Container_proxy@std@@@std@@@std@@SAXAEAV?$allocator@U_Container_proxy@std@@@1@QEAU_Container_proxy@1@@Z
        3 ??$destroy@V?$basic_string@DU?$char_traits@D@std@@V?$allocator@D@2@@std@@@?$_Default_allocator_traits@V?$allocator@V?$basic_string@DU?$char_traits@D@std@@V?$allocator@D@2@@std@@@std@@@std@@SAXAEAV?$allocator@V?$basic_string@DU?$char_traits@D@std@@V?$allocator@D@2@@std@@@1@QEAV?$basic_string@DU?$char_traits@D@std@@V?$allocator@D@2@@1@@Z
        3 ??$distance@PEAD@std@@YA_JPEAD0@Z
        3 ??$distance@PEAI@std@@YA_JPEAI0@Z
        3 ??$distance@PEAU_Grp_t@?$_Tgt_state_t@PEBD@std@@@std@@YA_JPEAU_Grp_t@?$_Tgt_state_t@PEBD@0@0@Z
        3 ??$distance@PEAV?$basic_string@DU?$char_traits@D@std@@V?$allocator@D@2@@std@@@std@@YA_JPEAV?$basic_string@DU?$char_traits@D@std@@V?$allocator@D@2@@0@0@Z
        3 ??$distance@PEBD@std@@YA_JPEBD0@Z
        3 ??$emplace_back@AEBV?$basic_string@DU?$char_traits@D@std@@V?$allocator@D@2@@std@@@?$vector@V?$basic_string@DU?$char_traits@D@std@@V?$allocator@D@2@@std@@V?$allocator@V?$basic_string@DU?$char_traits@D@std@@V?$allocator@D@2@@std@@@2@@std@@QEAA@AEBV?$basic_string@DU?$char_traits@D@std@@V?$allocator@D@2@@1@@Z
        3 ??$emplace_back@V?$basic_string@DU?$char_traits@D@std@@V?$allocator@D@2@@std@@@?$vector@V?$basic_string@DU?$char_traits@D@std@@V?$allocator@D@2@@std@@V?$allocator@V?$basic_string@DU?$char_traits@D@std@@V?$allocator@D@2@@std@@@2@@std@@QEAA@$$QEAV?$basic_string@DU?$char_traits@D@std@@V?$allocator@D@2@@1@@Z
        3 ??$emplace_hint@AEBU?$pair@$$CBV?$basic_string@DU?$char_traits@D@std@@V?$allocator@D@2@@std@@V12@@std@@@?$_Tree@V?$_Tmap_traits@V?$basic_string@DU?$char_traits@D@std@@V?$allocator@D@2@@std@@V12@U?$less@V?$basic_string@DU?$char_traits@D@std@@V?$allocator@D@2@@std@@@2@V?$allocator@U?$pair@$$CBV?$basic_string@DU?$char_traits@D@std@@V?$allocator@D@2@@std@@V12@@std@@@2@$0A@@std@@@std@@QEAA?AV?$_Tree_iterator@V?$_Tree_val@U?$_Tree_simple_types@U?$pair@$$CBV?$basic_string@DU?$char_traits@D@std@@V?$allocator@D@2@@std@@V12@@std@@@std@@@std@@@1@V?$_Tree_const_iterator@V?$_Tree_val@U?$_Tree_simple_types@U?$pair@$$CBV?$basic_string@DU?$char_traits@D@std@@V?$allocator@D@2@@std@@V12@@std@@@std@@@std@@@1@AEBU?$pair@$$CBV?$basic_string@DU?$char_traits@D@std@@V?$allocator@D@2@@std@@V12@@1@@Z
        3 ??$endl@DU?$char_traits@D@std@@@std@@YAAEAV?$basic_ostream@DU?$char_traits@D@std@@@0@AEAV10@@Z
        3 ??$equal@PEBDPEBDU?$_Cmp_icase@V?$_Regex_traits@D@std@@@std@@@std@@YA_NPEBD000U?$_Cmp_icase@V?$_Regex_traits@D@std@@@0@@Z
        3 ??$fill@V?$_Vb_iterator@U?$_Wrap_alloc@V?$allocator@I@std@@@std@@@std@@_N@std@@YAXV?$_Vb_iterator@U?$_Wrap_alloc@V?$allocator@I@std@@@std@@@0@0AEB_N@Z
        3 ??$find@PEBDE@std@@YAPEBDPEBD0AEBE@Z
        3 ??$forward@AEAPEAU?$_Tree_node@U?$pair@$$CBV?$basic_string@DU?$char_traits@D@std@@V?$allocator@D@2@@std@@V12@@std@@PEAX@std@@@std@@YAAEAPEAU?$_Tree_node@U?$pair@$$CBV?$basic_string@DU?$char_traits@D@std@@V?$allocator@D@2@@std@@V12@@std@@PEAX@0@AEAPEAU10@@Z
        3 ??$forward@AEAU?$pair@$$CBV?$basic_string@DU?$char_traits@D@std@@V?$allocator@D@2@@std@@V12@@std@@@std@@YAAEAU?$pair@$$CBV?$basic_string@DU?$char_traits@D@std@@V?$allocator@D@2@@std@@V12@@0@AEAU10@@Z
        3 ??$forward@AEAV?$_Tree_iterator@V?$_Tree_val@U?$_Tree_simple_types@U?$pair@$$CBV?$basic_string@DU?$char_traits@D@std@@V?$allocator@D@2@@std@@V12@@std@@@std@@@std@@@std@@@std@@YAAEAV?$_Tree_iterator@V?$_Tree_val@U?$_Tree_simple_types@U?$pair@$$CBV?$basic_string@DU?$char_traits@D@std@@V?$allocator@D@2@@std@@V12@@std@@@std@@@std@@@0@AEAV10@@Z
        3 ??$forward@AEAV?$basic_string@DU?$char_traits@D@std@@V?$allocator@D@2@@std@@@std@@YAAEAV?$basic_string@DU?$char_traits@D@std@@V?$allocator@D@2@@0@AEAV10@@Z
        3 ??$forward@AEAY00$$CBD@std@@YAAEAY00$$CBDAEAY00$$CBD@Z
        3 ??$forward@AEAY05$$CBD@std@@YAAEAY05$$CBDAEAY05$$CBD@Z
        3 ??$forward@AEBI@std@@YAAEBIAEBI@Z
        3 ??$forward@AEBQEAD@std@@YAAEBQEADAEBQEAD@Z
        3 ??$forward@AEBU?$less@V?$basic_string@DU?$char_traits@D@std@@V?$allocator@D@2@@std@@@std@@@std@@YAAEBU?$less@V?$basic_string@DU?$char_traits@D@std@@V?$allocator@D@2@@std@@@0@AEBU10@@Z
        3 ??$forward@AEBU?$pair@$$CBV?$basic_string@DU?$char_traits@D@std@@V?$allocator@D@2@@std@@V12@@std@@@std@@YAAEBU?$pair@$$CBV?$basic_string@DU?$char_traits@D@std@@V?$allocator@D@2@@std@@V12@@0@AEBU10@@Z
        3 ??$forward@AEBV?$allocator@D@std@@@std@@YAAEBV?$allocator@D@0@AEBV10@@Z
        3 ??$forward@AEBV?$allocator@I@std@@@std@@YAAEBV?$allocator@I@0@AEBV10@@Z
        3 ??$forward@AEBV?$basic_string@DU?$char_traits@D@std@@V?$allocator@D@2@@std@@@std@@YAAEBV?$basic_string@DU?$char_traits@D@std@@V?$allocator@D@2@@0@AEBV10@@Z
        3 ??$forward@U_Container_proxy@std@@@std@@YA$$QEAU_Container_proxy@0@AEAU10@@Z
        3 ??$forward@U_Zero_then_variadic_args_t@std@@@std@@YA$$QEAU_Zero_then_variadic_args_t@0@AEAU10@@Z
        3 ??$forward@V?$_Tree_iterator@V?$_Tree_val@U?$_Tree_simple_types@U?$pair@$$CBV?$basic_string@DU?$char_traits@D@std@@V?$allocator@D@2@@std@@V12@@std@@@std@@@std@@@std@@@std@@YA$$QEAV?$_Tree_iterator@V?$_Tree_val@U?$_Tree_simple_types@U?$pair@$$CBV?$basic_string@DU?$char_traits@D@std@@V?$allocator@D@2@@std@@V12@@std@@@std@@@std@@@0@AEAV10@@Z
        3 ??$forward@V?$allocator@D@std@@@std@@YA$$QEAV?$allocator@D@0@AEAV10@@Z
        3 ??$forward@V?$allocator@I@std@@@std@@YA$$QEAV?$allocator@I@0@AEAV10@@Z
        3 ??$forward@V?$allocator@U_Grp_t@?$_Tgt_state_t@PEBD@std@@@std@@@std@@YA$$QEAV?$allocator@U_Grp_t@?$_Tgt_state_t@PEBD@std@@@0@AEAV10@@Z
        3 ??$forward@V?$allocator@V?$basic_string@DU?$char_traits@D@std@@V?$allocator@D@2@@std@@@std@@@std@@YA$$QEAV?$allocator@V?$basic_string@DU?$char_traits@D@std@@V?$allocator@D@2@@std@@@0@AEAV10@@Z
        3 ??$forward@V?$basic_string@DU?$char_traits@D@std@@V?$allocator@D@2@@std@@@std@@YA$$QEAV?$basic_string@DU?$char_traits@D@std@@V?$allocator@D@2@@0@AEAV10@@Z
        3 ??$forward@V?$sub_match@PEBD@std@@@std@@YA$$QEAV?$sub_match@PEBD@0@AEAV10@@Z
        3 ??$forward@_N@std@@YA$$QEA_NAEA_N@Z
        3 ??$getline@DU?$char_traits@D@std@@V?$allocator@D@2@@std@@YAAEAV?$basic_istream@DU?$char_traits@D@std@@@0@$$QEAV10@AEAV?$basic_string@DU?$char_traits@D@std@@V?$allocator@D@2@@0@D@Z
        3 ??$getline@DU?$char_traits@D@std@@V?$allocator@D@2@@std@@YAAEAV?$basic_istream@DU?$char_traits@D@std@@@0@AEAV10@AEAV?$basic_string@DU?$char_traits@D@std@@V?$allocator@D@2@@0@@Z
        3 ??$insert@PEBU?$pair@$$CBV?$basic_string@DU?$char_traits@D@std@@V?$allocator@D@2@@std@@V12@@std@@@?$_Tree@V?$_Tmap_traits@V?$basic_string@DU?$char_traits@D@std@@V?$allocator@D@2@@std@@V12@U?$less@V?$basic_string@DU?$char_traits@D@std@@V?$allocator@D@2@@std@@@2@V?$allocator@U?$pair@$$CBV?$basic_string@DU?$char_traits@D@std@@V?$allocator@D@2@@std@@V12@@std@@@2@$0A@@std@@@std@@QEAAXPEBU?$pair@$$CBV?$basic_string@DU?$char_traits@D@std@@V?$allocator@D@2@@std@@V12@@1@0@Z
        3 ??$insert@V?$_Vector_iterator@V?$_Vector_val@U?$_Simple_types@V?$basic_string@DU?$char_traits@D@std@@V?$allocator@D@2@@std@@@std@@@std@@@std@@X@?$vector@V?$basic_string@DU?$char_traits@D@std@@V?$allocator@D@2@@std@@V?$allocator@V?$basic_string@DU?$char_traits@D@std@@V?$allocator@D@2@@std@@@2@@std@@QEAA?AV?$_Vector_iterator@V?$_Vector_val@U?$_Simple_types@V?$basic_string@DU?$char_traits@D@std@@V?$allocator@D@2@@std@@@std@@@std@@@1@V?$_Vector_const_iterator@V?$_Vector_val@U?$_Simple_types@V?$basic_string@DU?$char_traits@D@std@@V?$allocator@D@2@@std@@@std@@@std@@@1@V21@1@Z
        3 ??$lookup_classname@PEBD@?$_Regex_traits@D@std@@QEBAFPEBD0_N@Z
        3 ??$move@AEAD@std@@YA$$QEADAEAD@Z
        3 ??$move@AEAPEAV_Node_base@std@@@std@@YA$$QEAPEAV_Node_base@0@AEAPEAV10@@Z
        3 ??$move@AEAV?$allocator@D@std@@@std@@YA$$QEAV?$allocator@D@0@AEAV10@@Z
        3 ??$move@AEAV?$allocator@V?$basic_string@DU?$char_traits@D@std@@V?$allocator@D@2@@std@@@std@@@std@@YA$$QEAV?$allocator@V?$basic_string@DU?$char_traits@D@std@@V?$allocator@D@2@@std@@@0@AEAV10@@Z
        3 ??$move@AEAV?$basic_istream@DU?$char_traits@D@std@@@std@@@std@@YA$$QEAV?$basic_istream@DU?$char_traits@D@std@@@0@AEAV10@@Z
        3 ??$move@AEAV?$basic_string@DU?$char_traits@D@std@@V?$allocator@D@2@@std@@@std@@YA$$QEAV?$basic_string@DU?$char_traits@D@std@@V?$allocator@D@2@@0@AEAV10@@Z
        3 ??$move@AEAV?$sub_match@PEBD@std@@@std@@YA$$QEAV?$sub_match@PEBD@0@AEAV10@@Z
        3 ??$move@AEAV?$vector@V?$basic_string@DU?$char_traits@D@std@@V?$allocator@D@2@@std@@V?$allocator@V?$basic_string@DU?$char_traits@D@std@@V?$allocator@D@2@@std@@@2@@std@@@std@@YA$$QEAV?$vector@V?$basic_string@DU?$char_traits@D@std@@V?$allocator@D@2@@std@@V?$allocator@V?$basic_string@DU?$char_traits@D@std@@V?$allocator@D@2@@std@@@2@@0@AEAV10@@Z
        3 ??$next@PEAI@std@@YAPEAIPEAI_J@Z
        3 ??$next@PEAU_Grp_t@?$_Tgt_state_t@PEBD@std@@@std@@YAPEAU_Grp_t@?$_Tgt_state_t@PEBD@0@PEAU120@_J@Z
        3 ??$prev@PEBD@std@@YAPEBDPEBD_J@Z
        3 ??$put_time@D@std@@YA?AU?$_Timeobj@DPEBUtm@@@0@PEBUtm@@PEBD@Z
        3 ??$regex_match@U?$char_traits@D@std@@V?$allocator@D@2@DV?$regex_traits@D@2@@std@@YA_NAEBV?$basic_string@DU?$char_traits@D@std@@V?$allocator@D@2@@0@AEBV?$basic_regex@DV?$regex_traits@D@std@@@0@W4match_flag_type@regex_constants@0@@Z
        3 ??$remove@V?$_String_iterator@V?$_String_val@U?$_Simple_types@D@std@@@std@@@std@@D@std@@YA?AV?$_String_iterator@V?$_String_val@U?$_Simple_types@D@std@@@std@@@0@V10@0AEBD@Z
        3 ??$replace@PEBDX@?$basic_string@DU?$char_traits@D@std@@V?$allocator@D@2@@std@@QEAAAEAV01@V?$_String_const_iterator@V?$_String_val@U?$_Simple_types@D@std@@@std@@@1@0QEBD1@Z
        3 ??$swap@DX@std@@YAXAEAD0@Z
        3 ??$swap@PEAV_Node_base@std@@X@std@@YAXAEAPEAV_Node_base@0@0@Z
        3 ??$transform@V?$_String_iterator@V?$_String_val@U?$_Simple_types@D@std@@@std@@@std@@V12@P6AHH@Z@std@@YA?AV?$_String_iterator@V?$_String_val@U?$_Simple_types@D@std@@@std@@@0@V10@00P6AHH@Z@Z
        3 ??$transform_primary@PEAD@?$_Regex_traits@D@std@@QEBA?AV?$basic_string@DU?$char_traits@D@std@@V?$allocator@D@2@@1@PEAD0@Z
        3 ??$transform_primary@PEBD@?$_Regex_traits@D@std@@QEBA?AV?$basic_string@DU?$char_traits@D@std@@V?$allocator@D@2@@1@PEBD0@Z
        3 ??$transform_primary@V?$_String_iterator@V?$_String_val@U?$_Simple_types@D@std@@@std@@@std@@@?$_Regex_traits@D@std@@QEBA?AV?$basic_string@DU?$char_traits@D@std@@V?$allocator@D@2@@1@V?$_String_iterator@V?$_String_val@U?$_Simple_types@D@std@@@std@@@1@0@Z
        3 ??$use_facet@V?$codecvt@DDU_Mbstatet@@@std@@@std@@YAAEBV?$codecvt@DDU_Mbstatet@@@0@AEBVlocale@0@@Z
        3 ??$use_facet@V?$collate@D@std@@@std@@YAAEBV?$collate@D@0@AEBVlocale@0@@Z
        3 ??$use_facet@V?$ctype@D@std@@@std@@YAAEBV?$ctype@D@0@AEBVlocale@0@@Z
        3 ??$use_facet@V?$time_put@DV?$ostreambuf_iterator@DU?$char_traits@D@std@@@std@@@std@@@std@@YAAEBV?$time_put@DV?$ostreambuf_iterator@DU?$char_traits@D@std@@@std@@@0@AEBVlocale@0@@Z
        3 ??0?$_Bt_state_t@PEBD@std@@QEAA@AEBV01@@Z
        3 ??0?$_Bt_state_t@PEBD@std@@QEAA@XZ
        3 ??0?$_Buf@D@std@@QEAA@XZ
        3 ??0?$_Builder@PEBDDV?$regex_traits@D@std@@@std@@QEAA@AEBV?$regex_traits@D@1@W4syntax_option_type@regex_constants@1@@Z
        3 ??0?$_Cmp_collate@V?$regex_traits@D@std@@@std@@QEAA@AEBV?$regex_traits@D@1@@Z
        3 ??0?$_Cmp_icase@V?$_Regex_traits@D@std@@@std@@QEAA@AEBV?$_Regex_traits@D@1@@Z
        3 ??0?$_Cmp_icase@V?$regex_traits@D@std@@@std@@QEAA@AEBV?$regex_traits@D@1@@Z
        3 ??0?$_Matcher@PEBDDV?$regex_traits@D@std@@PEBD@std@@QEAA@PEBD0AEBV?$regex_traits@D@1@PEAV_Root_node@1@IW4syntax_option_type@regex_constants@1@W4match_flag_type@51@@Z
        3 ??0?$_Node_class@DV?$regex_traits@D@std@@@std@@QEAA@W4_Node_type@1@W4_Node_flags@1@@Z
        3 ??0?$_Node_str@D@std@@QEAA@W4_Node_flags@1@@Z
        3 ??0?$_Parser@PEBDDV?$regex_traits@D@std@@@std@@QEAA@AEBV?$regex_traits@D@1@PEBD1W4syntax_option_type@regex_constants@1@@Z
        3 ??0?$_Regex_traits@D@std@@QEAA@XZ
        3 ??0?$_Sequence@D@std@@QEAA@I@Z
        3 ??0?$_String_alloc@U?$_String_base_types@DV?$allocator@D@std@@@std@@@std@@QEAA@XZ
        3 ??0?$_String_const_iterator@V?$_String_val@U?$_Simple_types@D@std@@@std@@@std@@QEAA@$$QEAV01@@Z
        3 ??0?$_String_const_iterator@V?$_String_val@U?$_Simple_types@D@std@@@std@@@std@@QEAA@AEBV01@@Z
        3 ??0?$_String_const_iterator@V?$_String_val@U?$_Simple_types@D@std@@@std@@@std@@QEAA@PEBDPEBU_Container_base12@1@@Z
        3 ??0?$_String_iterator@V?$_String_val@U?$_Simple_types@D@std@@@std@@@std@@QEAA@AEBV01@@Z
        3 ??0?$_String_iterator@V?$_String_val@U?$_Simple_types@D@std@@@std@@@std@@QEAA@PEADPEBU_Container_base12@1@@Z
        3 ??0?$_String_val@U?$_Simple_types@D@std@@@std@@QEAA@XZ
        3 ??0?$_Tgt_state_t@PEBD@std@@QEAA@AEBV01@@Z
        3 ??0?$_Tgt_state_t@PEBD@std@@QEAA@XZ
        3 ??0?$_Timeobj@DPEBUtm@@@std@@QEAA@PEBUtm@@PEBD@Z
        3 ??0?$_Tree@V?$_Tmap_traits@V?$basic_string@DU?$char_traits@D@std@@V?$allocator@D@2@@std@@V12@U?$less@V?$basic_string@DU?$char_traits@D@std@@V?$allocator@D@2@@std@@@2@V?$allocator@U?$pair@$$CBV?$basic_string@DU?$char_traits@D@std@@V?$allocator@D@2@@std@@V12@@std@@@2@$0A@@std@@@std@@QEAA@AEBU?$less@V?$basic_string@DU?$char_traits@D@std@@V?$allocator@D@2@@std@@@1@@Z
        3 ??0?$_Tree_comp_alloc@V?$_Tmap_traits@V?$basic_string@DU?$char_traits@D@std@@V?$allocator@D@2@@std@@V12@U?$less@V?$basic_string@DU?$char_traits@D@std@@V?$allocator@D@2@@std@@@2@V?$allocator@U?$pair@$$CBV?$basic_string@DU?$char_traits@D@std@@V?$allocator@D@2@@std@@V12@@std@@@2@$0A@@std@@@std@@QEAA@AEBU?$less@V?$basic_string@DU?$char_traits@D@std@@V?$allocator@D@2@@std@@@1@@Z
        3 ??0?$_Tree_const_iterator@V?$_Tree_val@U?$_Tree_simple_types@U?$pair@$$CBV?$basic_string@DU?$char_traits@D@std@@V?$allocator@D@2@@std@@V12@@std@@@std@@@std@@@std@@QEAA@$$QEAV01@@Z
        3 ??0?$_Tree_const_iterator@V?$_Tree_val@U?$_Tree_simple_types@U?$pair@$$CBV?$basic_string@DU?$char_traits@D@std@@V?$allocator@D@2@@std@@V12@@std@@@std@@@std@@@std@@QEAA@AEBV01@@Z
        3 ??0?$_Tree_const_iterator@V?$_Tree_val@U?$_Tree_simple_types@U?$pair@$$CBV?$basic_string@DU?$char_traits@D@std@@V?$allocator@D@2@@std@@V12@@std@@@std@@@std@@@std@@QEAA@PEAU?$_Tree_node@U?$pair@$$CBV?$basic_string@DU?$char_traits@D@std@@V?$allocator@D@2@@std@@V12@@std@@PEAX@1@PEBV?$_Tree_val@U?$_Tree_simple_types@U?$pair@$$CBV?$basic_string@DU?$char_traits@D@std@@V?$allocator@D@2@@std@@V12@@std@@@std@@@1@@Z
        3 ??0?$_Tree_const_iterator@V?$_Tree_val@U?$_Tree_simple_types@U?$pair@$$CBV?$basic_string@DU?$char_traits@D@std@@V?$allocator@D@2@@std@@V12@@std@@@std@@@std@@@std@@QEAA@XZ
        3 ??0?$_Tree_iterator@V?$_Tree_val@U?$_Tree_simple_types@U?$pair@$$CBV?$basic_string@DU?$char_traits@D@std@@V?$allocator@D@2@@std@@V12@@std@@@std@@@std@@@std@@QEAA@$$QEAV01@@Z
        3 ??0?$_Tree_iterator@V?$_Tree_val@U?$_Tree_simple_types@U?$pair@$$CBV?$basic_string@DU?$char_traits@D@std@@V?$allocator@D@2@@std@@V12@@std@@@std@@@std@@@std@@QEAA@AEBV01@@Z
        3 ??0?$_Tree_iterator@V?$_Tree_val@U?$_Tree_simple_types@U?$pair@$$CBV?$basic_string@DU?$char_traits@D@std@@V?$allocator@D@2@@std@@V12@@std@@@std@@@std@@@std@@QEAA@PEAU?$_Tree_node@U?$pair@$$CBV?$basic_string@DU?$char_traits@D@std@@V?$allocator@D@2@@std@@V12@@std@@PEAX@1@PEBV?$_Tree_val@U?$_Tree_simple_types@U?$pair@$$CBV?$basic_string@DU?$char_traits@D@std@@V?$allocator@D@2@@std@@V12@@std@@@std@@@1@@Z
        3 ??0?$_Tree_unchecked_const_iterator@V?$_Tree_val@U?$_Tree_simple_types@U?$pair@$$CBV?$basic_string@DU?$char_traits@D@std@@V?$allocator@D@2@@std@@V12@@std@@@std@@@std@@U_Iterator_base12@2@@std@@QEAA@$$QEAV01@@Z
        3 ??0?$_Tree_unchecked_const_iterator@V?$_Tree_val@U?$_Tree_simple_types@U?$pair@$$CBV?$basic_string@DU?$char_traits@D@std@@V?$allocator@D@2@@std@@V12@@std@@@std@@@std@@U_Iterator_base12@2@@std@@QEAA@AEBV01@@Z
        3 ??0?$_Tree_unchecked_const_iterator@V?$_Tree_val@U?$_Tree_simple_types@U?$pair@$$CBV?$basic_string@DU?$char_traits@D@std@@V?$allocator@D@2@@std@@V12@@std@@@std@@@std@@U_Iterator_base12@2@@std@@QEAA@PEAU?$_Tree_node@U?$pair@$$CBV?$basic_string@DU?$char_traits@D@std@@V?$allocator@D@2@@std@@V12@@std@@PEAX@1@PEBV?$_Tree_val@U?$_Tree_simple_types@U?$pair@$$CBV?$basic_string@DU?$char_traits@D@std@@V?$allocator@D@2@@std@@V12@@std@@@std@@@1@@Z
        3 ??0?$_Tree_unchecked_const_iterator@V?$_Tree_val@U?$_Tree_simple_types@U?$pair@$$CBV?$basic_string@DU?$char_traits@D@std@@V?$allocator@D@2@@std@@V12@@std@@@std@@@std@@U_Iterator_base12@2@@std@@QEAA@XZ
        3 ??0?$_Tree_val@U?$_Tree_simple_types@U?$pair@$$CBV?$basic_string@DU?$char_traits@D@std@@V?$allocator@D@2@@std@@V12@@std@@@std@@@std@@QEAA@XZ
        3 ??0?$_Vb_const_iterator@U?$_Wrap_alloc@V?$allocator@I@std@@@std@@@std@@QEAA@$$QEAV01@@Z
        3 ??0?$_Vb_const_iterator@U?$_Wrap_alloc@V?$allocator@I@std@@@std@@@std@@QEAA@AEBV01@@Z
        3 ??0?$_Vb_const_iterator@U?$_Wrap_alloc@V?$allocator@I@std@@@std@@@std@@QEAA@PEBIPEBU_Container_base12@1@@Z
        3 ??0?$_Vb_iter_base@U?$_Wrap_alloc@V?$allocator@I@std@@@std@@@std@@QEAA@$$QEAV01@@Z
        3 ??0?$_Vb_iter_base@U?$_Wrap_alloc@V?$allocator@I@std@@@std@@@std@@QEAA@AEBV01@@Z
        3 ??0?$_Vb_iter_base@U?$_Wrap_alloc@V?$allocator@I@std@@@std@@@std@@QEAA@PEBI_KPEBU_Container_base12@1@@Z
        3 ??0?$_Vb_iterator@U?$_Wrap_alloc@V?$allocator@I@std@@@std@@@std@@QEAA@$$QEAV01@@Z
        3 ??0?$_Vb_iterator@U?$_Wrap_alloc@V?$allocator@I@std@@@std@@@std@@QEAA@AEBV01@@Z
        3 ??0?$_Vb_iterator@U?$_Wrap_alloc@V?$allocator@I@std@@@std@@@std@@QEAA@PEAIPEAU_Container_base12@1@@Z
        3 ??0?$_Vb_reference@U?$_Wrap_alloc@V?$allocator@I@std@@@std@@@std@@QEAA@AEBV?$_Vb_iter_base@U?$_Wrap_alloc@V?$allocator@I@std@@@std@@@1@@Z
        3 ??0?$_Vb_val@V?$allocator@_N@std@@@std@@QEAA@AEBV01@@Z
        3 ??0?$_Vb_val@V?$allocator@_N@std@@@std@@QEAA@_KAEB_N@Z
        3 ??0?$_Vb_val@V?$allocator@_N@std@@@std@@QEAA@_KAEB_NAEBV?$allocator@_N@1@@Z
        3 ??0?$_Vector_alloc@U?$_Vec_base_types@U_Grp_t@?$_Tgt_state_t@PEBD@std@@V?$allocator@U_Grp_t@?$_Tgt_state_t@PEBD@std@@@3@@std@@@std@@QEAA@XZ
        3 ??0?$_Vector_alloc@U?$_Vec_base_types@U_Loop_vals_t@std@@V?$allocator@U_Loop_vals_t@std@@@2@@std@@@std@@QEAA@XZ
        3 ??0?$_Vector_alloc@U?$_Vec_base_types@V?$basic_string@DU?$char_traits@D@std@@V?$allocator@D@2@@std@@V?$allocator@V?$basic_string@DU?$char_traits@D@std@@V?$allocator@D@2@@std@@@2@@std@@@std@@QEAA@XZ
        3 ??0?$_Vector_const_iterator@V?$_Vector_val@U?$_Simple_types@I@std@@@std@@@std@@QEAA@$$QEAV01@@Z
        3 ??0?$_Vector_const_iterator@V?$_Vector_val@U?$_Simple_types@I@std@@@std@@@std@@QEAA@AEBV01@@Z
        3 ??0?$_Vector_const_iterator@V?$_Vector_val@U?$_Simple_types@I@std@@@std@@@std@@QEAA@PEAIPEBU_Container_base12@1@@Z
        3 ??0?$_Vector_const_iterator@V?$_Vector_val@U?$_Simple_types@V?$basic_string@DU?$char_traits@D@std@@V?$allocator@D@2@@std@@@std@@@std@@@std@@QEAA@$$QEAV01@@Z
        3 ??0?$_Vector_const_iterator@V?$_Vector_val@U?$_Simple_types@V?$basic_string@DU?$char_traits@D@std@@V?$allocator@D@2@@std@@@std@@@std@@@std@@QEAA@AEBV01@@Z
        3 ??0?$_Vector_const_iterator@V?$_Vector_val@U?$_Simple_types@V?$basic_string@DU?$char_traits@D@std@@V?$allocator@D@2@@std@@@std@@@std@@@std@@QEAA@PEAV?$basic_string@DU?$char_traits@D@std@@V?$allocator@D@2@@1@PEBU_Container_base12@1@@Z
        3 ??0?$_Vector_iterator@V?$_Vector_val@U?$_Simple_types@I@std@@@std@@@std@@QEAA@AEBV01@@Z
        3 ??0?$_Vector_iterator@V?$_Vector_val@U?$_Simple_types@I@std@@@std@@@std@@QEAA@PEAIPEBU_Container_base12@1@@Z
        3 ??0?$_Vector_iterator@V?$_Vector_val@U?$_Simple_types@V?$basic_string@DU?$char_traits@D@std@@V?$allocator@D@2@@std@@@std@@@std@@@std@@QEAA@$$QEAV01@@Z
        3 ??0?$_Vector_iterator@V?$_Vector_val@U?$_Simple_types@V?$basic_string@DU?$char_traits@D@std@@V?$allocator@D@2@@std@@@std@@@std@@@std@@QEAA@AEBV01@@Z
        3 ??0?$_Vector_iterator@V?$_Vector_val@U?$_Simple_types@V?$basic_string@DU?$char_traits@D@std@@V?$allocator@D@2@@std@@@std@@@std@@@std@@QEAA@PEAV?$basic_string@DU?$char_traits@D@std@@V?$allocator@D@2@@1@PEBU_Container_base12@1@@Z
        3 ??0?$_Vector_val@U?$_Simple_types@D@std@@@std@@QEAA@XZ
        3 ??0?$_Vector_val@U?$_Simple_types@I@std@@@std@@QEAA@XZ
        3 ??0?$_Vector_val@U?$_Simple_types@U_Grp_t@?$_Tgt_state_t@PEBD@std@@@std@@@std@@QEAA@XZ
        3 ??0?$_Vector_val@U?$_Simple_types@U_Loop_vals_t@std@@@std@@@std@@QEAA@XZ
        3 ??0?$_Vector_val@U?$_Simple_types@V?$basic_string@DU?$char_traits@D@std@@V?$allocator@D@2@@std@@@std@@@std@@QEAA@XZ
        3 ??0?$allocator@D@std@@QEAA@XZ
        3 ??0?$allocator@I@std@@QEAA@XZ
        3 ??0?$allocator@U?$_Tree_node@U?$pair@$$CBV?$basic_string@DU?$char_traits@D@std@@V?$allocator@D@2@@std@@V12@@std@@PEAX@std@@@std@@QEAA@XZ
        3 ??0?$allocator@U_Grp_t@?$_Tgt_state_t@PEBD@std@@@std@@QEAA@XZ
        3 ??0?$allocator@U_Loop_vals_t@std@@@std@@QEAA@XZ
        3 ??0?$allocator@V?$basic_string@DU?$char_traits@D@std@@V?$allocator@D@2@@std@@@std@@QEAA@XZ
        3 ??0?$allocator@_N@std@@QEAA@XZ
        3 ??0?$basic_filebuf@DU?$char_traits@D@std@@@std@@QEAA@PEAU_iobuf@@@Z
        3 ??0?$basic_ifstream@DU?$char_traits@D@std@@@std@@QEAA@AEBV?$basic_string@DU?$char_traits@D@std@@V?$allocator@D@2@@1@HH@Z
        3 ??0?$basic_ifstream@DU?$char_traits@D@std@@@std@@QEAA@PEBDHH@Z
        3 ??0?$basic_ostringstream@DU?$char_traits@D@std@@V?$allocator@D@2@@std@@QEAA@H@Z
        3 ??0?$basic_regex@DV?$regex_traits@D@std@@@std@@QEAA@PEBDW4syntax_option_type@regex_constants@1@@Z
        3 ??0?$basic_string@DU?$char_traits@D@std@@V?$allocator@D@2@@std@@QEAA@$$QEAV01@@Z
        3 ??0?$basic_string@DU?$char_traits@D@std@@V?$allocator@D@2@@std@@QEAA@AEBV01@@Z
        3 ??0?$basic_string@DU?$char_traits@D@std@@V?$allocator@D@2@@std@@QEAA@AEBV01@_K1AEBV?$allocator@D@1@@Z
        3 ??0?$basic_string@DU?$char_traits@D@std@@V?$allocator@D@2@@std@@QEAA@QEBD@Z
        3 ??0?$basic_string@DU?$char_traits@D@std@@V?$allocator@D@2@@std@@QEAA@QEBD_K@Z
        3 ??0?$basic_string@DU?$char_traits@D@std@@V?$allocator@D@2@@std@@QEAA@XZ
        3 ??0?$basic_string@DU?$char_traits@D@std@@V?$allocator@D@2@@std@@QEAA@_KD@Z
        3 ??0?$basic_stringbuf@DU?$char_traits@D@std@@V?$allocator@D@2@@std@@QEAA@H@Z
        3 ??0?$collate@D@std@@QEAA@AEBV_Locinfo@1@_K@Z
        3 ??0?$fpos@U_Mbstatet@@@std@@QEAA@U_Mbstatet@@_J@Z
        3 ??0?$fpos@U_Mbstatet@@@std@@QEAA@_J@Z
        3 ??0?$initializer_list@U?$pair@$$CBV?$basic_string@DU?$char_traits@D@std@@V?$allocator@D@2@@std@@V12@@std@@@std@@QEAA@PEBU?$pair@$$CBV?$basic_string@DU?$char_traits@D@std@@V?$allocator@D@2@@std@@V12@@1@0@Z
        3 ??0?$map@V?$basic_string@DU?$char_traits@D@std@@V?$allocator@D@2@@std@@V12@U?$less@V?$basic_string@DU?$char_traits@D@std@@V?$allocator@D@2@@std@@@2@V?$allocator@U?$pair@$$CBV?$basic_string@DU?$char_traits@D@std@@V?$allocator@D@2@@std@@V12@@std@@@2@@std@@QEAA@V?$initializer_list@U?$pair@$$CBV?$basic_string@DU?$char_traits@D@std@@V?$allocator@D@2@@std@@V12@@std@@@1@@Z
        3 ??0?$ostreambuf_iterator@DU?$char_traits@D@std@@@std@@QEAA@PEAV?$basic_streambuf@DU?$char_traits@D@std@@@1@@Z
        3 ??0?$pair@$$CBV?$basic_string@DU?$char_traits@D@std@@V?$allocator@D@2@@std@@V12@@std@@QEAA@AEBU01@@Z
        3 ??0?$regex_traits@D@std@@QEAA@XZ
        3 ??0?$sub_match@PEBD@std@@QEAA@XZ
        3 ??0?$vector@IV?$allocator@I@std@@@std@@QEAA@AEBV01@@Z
        3 ??0?$vector@IV?$allocator@I@std@@@std@@QEAA@_KAEBIAEBV?$allocator@I@1@@Z
        3 ??0?$vector@U_Grp_t@?$_Tgt_state_t@PEBD@std@@V?$allocator@U_Grp_t@?$_Tgt_state_t@PEBD@std@@@3@@std@@QEAA@AEBV01@@Z
        3 ??0?$vector@U_Grp_t@?$_Tgt_state_t@PEBD@std@@V?$allocator@U_Grp_t@?$_Tgt_state_t@PEBD@std@@@3@@std@@QEAA@XZ
        3 ??0?$vector@U_Loop_vals_t@std@@V?$allocator@U_Loop_vals_t@std@@@2@@std@@QEAA@XZ
        3 ??0?$vector@V?$basic_string@DU?$char_traits@D@std@@V?$allocator@D@2@@std@@V?$allocator@V?$basic_string@DU?$char_traits@D@std@@V?$allocator@D@2@@std@@@2@@std@@QEAA@$$QEAV01@@Z
        3 ??0?$vector@V?$basic_string@DU?$char_traits@D@std@@V?$allocator@D@2@@std@@V?$allocator@V?$basic_string@DU?$char_traits@D@std@@V?$allocator@D@2@@std@@@2@@std@@QEAA@XZ
        3 ??0?$vector@_NV?$allocator@_N@std@@@std@@QEAA@AEBV01@@Z
        3 ??0?$vector@_NV?$allocator@_N@std@@@std@@QEAA@XZ
        3 ??0?$vector@_NV?$allocator@_N@std@@@std@@QEAA@_KAEBV?$allocator@_N@1@@Z
        3 ??0_Bitmap@std@@QEAA@XZ
        3 ??0_Bxty@?$_String_val@U?$_Simple_types@D@std@@@std@@QEAA@XZ
        3 ??0_Container_base12@std@@QEAA@XZ
        3 ??0_Container_proxy@std@@QEAA@XZ
        3 ??0_Iterator_base12@std@@QEAA@AEBU01@@Z
        3 ??0_Iterator_base12@std@@QEAA@XZ
        3 ??0_Node_assert@std@@QEAA@W4_Node_type@1@W4_Node_flags@1@@Z
        3 ??0_Node_back@std@@QEAA@I@Z
        3 ??0_Node_base@std@@QEAA@W4_Node_type@1@W4_Node_flags@1@@Z
        3 ??0_Node_capture@std@@QEAA@I@Z
        3 ??0_Node_end_group@std@@QEAA@W4_Node_type@1@W4_Node_flags@1@PEAV_Node_base@1@@Z
        3 ??0_Node_end_rep@std@@QEAA@XZ
        3 ??0_Node_endif@std@@QEAA@XZ
        3 ??0_Node_if@std@@QEAA@PEAV_Node_base@1@@Z
        3 ??0_Node_rep@std@@QEAA@_NHHPEAV_Node_end_rep@1@I@Z
        3 ??0_Regex_base@std@@QEAA@XZ
        3 ??0_Root_node@std@@QEAA@XZ
        3 ??0_Sentry_base@?$basic_istream@DU?$char_traits@D@std@@@std@@QEAA@AEAV12@@Z
        3 ??0_Sentry_base@?$basic_ostream@DU?$char_traits@D@std@@@std@@QEAA@AEAV12@@Z
        3 ??0bad_cast@std@@QEAA@AEBV01@@Z
        3 ??0bad_cast@std@@QEAA@XZ
        3 ??0exception@std@@QEAA@AEBV01@@Z
        3 ??0exception@std@@QEAA@QEBDH@Z
        3 ??0locale@std@@QEAA@XZ
        3 ??0sentry@?$basic_istream@DU?$char_traits@D@std@@@std@@QEAA@AEAV12@_N@Z
        3 ??0sentry@?$basic_ostream@DU?$char_traits@D@std@@@std@@QEAA@AEAV12@@Z
        3 ??1?$_Bt_state_t@PEBD@std@@QEAA@XZ
        3 ??1?$_Buf@D@std@@QEAA@XZ
        3 ??1?$_Compressed_pair@U?$less@V?$basic_string@DU?$char_traits@D@std@@V?$allocator@D@2@@std@@@std@@V?$_Compressed_pair@V?$allocator@U?$_Tree_node@U?$pair@$$CBV?$basic_string@DU?$char_traits@D@std@@V?$allocator@D@2@@std@@V12@@std@@PEAX@std@@@std@@V?$_Tree_val@U?$_Tree_simple_types@U?$pair@$$CBV?$basic_string@DU?$char_traits@D@std@@V?$allocator@D@2@@std@@V12@@std@@@std@@@2@$00@2@$00@std@@QEAA@XZ
        3 ??1?$_Compressed_pair@V?$allocator@D@std@@V?$_String_val@U?$_Simple_types@D@std@@@2@$00@std@@QEAA@XZ
        3 ??1?$_Compressed_pair@V?$allocator@D@std@@V?$_Vector_val@U?$_Simple_types@D@std@@@2@$00@std@@QEAA@XZ
        3 ??1?$_Compressed_pair@V?$allocator@I@std@@V?$_Vector_val@U?$_Simple_types@I@std@@@2@$00@std@@QEAA@XZ
        3 ??1?$_Compressed_pair@V?$allocator@U?$_Tree_node@U?$pair@$$CBV?$basic_string@DU?$char_traits@D@std@@V?$allocator@D@2@@std@@V12@@std@@PEAX@std@@@std@@V?$_Tree_val@U?$_Tree_simple_types@U?$pair@$$CBV?$basic_string@DU?$char_traits@D@std@@V?$allocator@D@2@@std@@V12@@std@@@std@@@2@$00@std@@QEAA@XZ
        3 ??1?$_Compressed_pair@V?$allocator@U_Grp_t@?$_Tgt_state_t@PEBD@std@@@std@@V?$_Vector_val@U?$_Simple_types@U_Grp_t@?$_Tgt_state_t@PEBD@std@@@std@@@2@$00@std@@QEAA@XZ
        3 ??1?$_Compressed_pair@V?$allocator@U_Loop_vals_t@std@@@std@@V?$_Vector_val@U?$_Simple_types@U_Loop_vals_t@std@@@std@@@2@$00@std@@QEAA@XZ
        3 ??1?$_Compressed_pair@V?$allocator@V?$basic_string@DU?$char_traits@D@std@@V?$allocator@D@2@@std@@@std@@V?$_Vector_val@U?$_Simple_types@V?$basic_string@DU?$char_traits@D@std@@V?$allocator@D@2@@std@@@std@@@2@$00@std@@QEAA@XZ
        3 ??1?$_Matcher@PEBDDV?$regex_traits@D@std@@PEBD@std@@QEAA@XZ
        3 ??1?$_Node_class@DV?$regex_traits@D@std@@@std@@UEAA@XZ
        3 ??1?$_Node_str@D@std@@UEAA@XZ
        3 ??1?$_Parser@PEBDDV?$regex_traits@D@std@@@std@@QEAA@XZ
        3 ??1?$_Regex_traits@D@std@@QEAA@XZ
        3 ??1?$_Sequence@D@std@@QEAA@XZ
        3 ??1?$_String_alloc@U?$_String_base_types@DV?$allocator@D@std@@@std@@@std@@QEAA@XZ
        3 ??1?$_String_const_iterator@V?$_String_val@U?$_Simple_types@D@std@@@std@@@std@@QEAA@XZ
        3 ??1?$_String_iterator@V?$_String_val@U?$_Simple_types@D@std@@@std@@@std@@QEAA@XZ
        3 ??1?$_String_val@U?$_Simple_types@D@std@@@std@@QEAA@XZ
        3 ??1?$_Tgt_state_t@PEBD@std@@QEAA@XZ
        3 ??1?$_Tree@V?$_Tmap_traits@V?$basic_string@DU?$char_traits@D@std@@V?$allocator@D@2@@std@@V12@U?$less@V?$basic_string@DU?$char_traits@D@std@@V?$allocator@D@2@@std@@@2@V?$allocator@U?$pair@$$CBV?$basic_string@DU?$char_traits@D@std@@V?$allocator@D@2@@std@@V12@@std@@@2@$0A@@std@@@std@@QEAA@XZ
        3 ??1?$_Tree_comp_alloc@V?$_Tmap_traits@V?$basic_string@DU?$char_traits@D@std@@V?$allocator@D@2@@std@@V12@U?$less@V?$basic_string@DU?$char_traits@D@std@@V?$allocator@D@2@@std@@@2@V?$allocator@U?$pair@$$CBV?$basic_string@DU?$char_traits@D@std@@V?$allocator@D@2@@std@@V12@@std@@@2@$0A@@std@@@std@@QEAA@XZ
        3 ??1?$_Tree_const_iterator@V?$_Tree_val@U?$_Tree_simple_types@U?$pair@$$CBV?$basic_string@DU?$char_traits@D@std@@V?$allocator@D@2@@std@@V12@@std@@@std@@@std@@@std@@QEAA@XZ
        3 ??1?$_Tree_iterator@V?$_Tree_val@U?$_Tree_simple_types@U?$pair@$$CBV?$basic_string@DU?$char_traits@D@std@@V?$allocator@D@2@@std@@V12@@std@@@std@@@std@@@std@@QEAA@XZ
        3 ??1?$_Tree_unchecked_const_iterator@V?$_Tree_val@U?$_Tree_simple_types@U?$pair@$$CBV?$basic_string@DU?$char_traits@D@std@@V?$allocator@D@2@@std@@V12@@std@@@std@@@std@@U_Iterator_base12@2@@std@@QEAA@XZ
        3 ??1?$_Tree_val@U?$_Tree_simple_types@U?$pair@$$CBV?$basic_string@DU?$char_traits@D@std@@V?$allocator@D@2@@std@@V12@@std@@@std@@@std@@QEAA@XZ
        3 ??1?$_Vb_const_iterator@U?$_Wrap_alloc@V?$allocator@I@std@@@std@@@std@@QEAA@XZ
        3 ??1?$_Vb_iter_base@U?$_Wrap_alloc@V?$allocator@I@std@@@std@@@std@@QEAA@XZ
        3 ??1?$_Vb_iterator@U?$_Wrap_alloc@V?$allocator@I@std@@@std@@@std@@QEAA@XZ
        3 ??1?$_Vb_reference@U?$_Wrap_alloc@V?$allocator@I@std@@@std@@@std@@QEAA@XZ
        3 ??1?$_Vb_val@V?$allocator@_N@std@@@std@@QEAA@XZ
        3 ??1?$_Vector_alloc@U?$_Vec_base_types@DV?$allocator@D@std@@@std@@@std@@QEAA@XZ
        3 ??1?$_Vector_alloc@U?$_Vec_base_types@IV?$allocator@I@std@@@std@@@std@@QEAA@XZ
        3 ??1?$_Vector_alloc@U?$_Vec_base_types@U_Grp_t@?$_Tgt_state_t@PEBD@std@@V?$allocator@U_Grp_t@?$_Tgt_state_t@PEBD@std@@@3@@std@@@std@@QEAA@XZ
        3 ??1?$_Vector_alloc@U?$_Vec_base_types@U_Loop_vals_t@std@@V?$allocator@U_Loop_vals_t@std@@@2@@std@@@std@@QEAA@XZ
        3 ??1?$_Vector_alloc@U?$_Vec_base_types@V?$basic_string@DU?$char_traits@D@std@@V?$allocator@D@2@@std@@V?$allocator@V?$basic_string@DU?$char_traits@D@std@@V?$allocator@D@2@@std@@@2@@std@@@std@@QEAA@XZ
        3 ??1?$_Vector_const_iterator@V?$_Vector_val@U?$_Simple_types@I@std@@@std@@@std@@QEAA@XZ
        3 ??1?$_Vector_const_iterator@V?$_Vector_val@U?$_Simple_types@V?$basic_string@DU?$char_traits@D@std@@V?$allocator@D@2@@std@@@std@@@std@@@std@@QEAA@XZ
        3 ??1?$_Vector_iterator@V?$_Vector_val@U?$_Simple_types@I@std@@@std@@@std@@QEAA@XZ
        3 ??1?$_Vector_iterator@V?$_Vector_val@U?$_Simple_types@V?$basic_string@DU?$char_traits@D@std@@V?$allocator@D@2@@std@@@std@@@std@@@std@@QEAA@XZ
        3 ??1?$_Vector_val@U?$_Simple_types@D@std@@@std@@QEAA@XZ
        3 ??1?$_Vector_val@U?$_Simple_types@I@std@@@std@@QEAA@XZ
        3 ??1?$_Vector_val@U?$_Simple_types@U_Grp_t@?$_Tgt_state_t@PEBD@std@@@std@@@std@@QEAA@XZ
        3 ??1?$_Vector_val@U?$_Simple_types@U_Loop_vals_t@std@@@std@@@std@@QEAA@XZ
        3 ??1?$_Vector_val@U?$_Simple_types@V?$basic_string@DU?$char_traits@D@std@@V?$allocator@D@2@@std@@@std@@@std@@QEAA@XZ
        3 ??1?$basic_filebuf@DU?$char_traits@D@std@@@std@@UEAA@XZ
        3 ??1?$basic_ifstream@DU?$char_traits@D@std@@@std@@UEAA@XZ
        3 ??1?$basic_ostringstream@DU?$char_traits@D@std@@V?$allocator@D@2@@std@@UEAA@XZ
        3 ??1?$basic_regex@DV?$regex_traits@D@std@@@std@@QEAA@XZ
        3 ??1?$basic_string@DU?$char_traits@D@std@@V?$allocator@D@2@@std@@QEAA@XZ
        3 ??1?$basic_stringbuf@DU?$char_traits@D@std@@V?$allocator@D@2@@std@@UEAA@XZ
        3 ??1?$collate@D@std@@MEAA@XZ
        3 ??1?$map@V?$basic_string@DU?$char_traits@D@std@@V?$allocator@D@2@@std@@V12@U?$less@V?$basic_string@DU?$char_traits@D@std@@V?$allocator@D@2@@std@@@2@V?$allocator@U?$pair@$$CBV?$basic_string@DU?$char_traits@D@std@@V?$allocator@D@2@@std@@V12@@std@@@2@@std@@QEAA@XZ
        3 ??1?$pair@$$CBV?$basic_string@DU?$char_traits@D@std@@V?$allocator@D@2@@std@@V12@@std@@QEAA@XZ
        3 ??1?$pair@V?$_Tree_iterator@V?$_Tree_val@U?$_Tree_simple_types@U?$pair@$$CBV?$basic_string@DU?$char_traits@D@std@@V?$allocator@D@2@@std@@V12@@std@@@std@@@std@@@std@@_N@std@@QEAA@XZ
        3 ??1?$regex_traits@D@std@@QEAA@XZ
        3 ??1?$vector@DV?$allocator@D@std@@@std@@QEAA@XZ
        3 ??1?$vector@IV?$allocator@I@std@@@std@@QEAA@XZ
        3 ??1?$vector@U_Grp_t@?$_Tgt_state_t@PEBD@std@@V?$allocator@U_Grp_t@?$_Tgt_state_t@PEBD@std@@@3@@std@@QEAA@XZ
        3 ??1?$vector@U_Loop_vals_t@std@@V?$allocator@U_Loop_vals_t@std@@@2@@std@@QEAA@XZ
        3 ??1?$vector@V?$basic_string@DU?$char_traits@D@std@@V?$allocator@D@2@@std@@V?$allocator@V?$basic_string@DU?$char_traits@D@std@@V?$allocator@D@2@@std@@@2@@std@@QEAA@XZ
        3 ??1?$vector@_NV?$allocator@_N@std@@@std@@QEAA@XZ
        3 ??1_Bxty@?$_String_val@U?$_Simple_types@D@std@@@std@@QEAA@XZ
        3 ??1_Container_base12@std@@QEAA@XZ
        3 ??1_Iterator_base12@std@@QEAA@XZ
        3 ??1_Node_assert@std@@UEAA@XZ
        3 ??1_Node_back@std@@UEAA@XZ
        3 ??1_Node_base@std@@UEAA@XZ
        3 ??1_Node_capture@std@@UEAA@XZ
        3 ??1_Node_end_group@std@@UEAA@XZ
        3 ??1_Node_end_rep@std@@UEAA@XZ
        3 ??1_Node_endif@std@@UEAA@XZ
        3 ??1_Node_if@std@@UEAA@XZ
        3 ??1_Node_rep@std@@UEAA@XZ
        3 ??1_Regex_base@std@@QEAA@XZ
        3 ??1_Root_node@std@@UEAA@XZ
        3 ??1_Sentry_base@?$basic_istream@DU?$char_traits@D@std@@@std@@QEAA@XZ
        3 ??1_Sentry_base@?$basic_ostream@DU?$char_traits@D@std@@@std@@QEAA@XZ
        3 ??1bad_cast@std@@UEAA@XZ
        3 ??1exception@std@@UEAA@XZ
        3 ??1locale@std@@QEAA@XZ
        3 ??1sentry@?$basic_istream@DU?$char_traits@D@std@@@std@@QEAA@XZ
        3 ??1sentry@?$basic_ostream@DU?$char_traits@D@std@@@std@@QEAA@XZ
        3 ??2@YAPEAX_KPEAX@Z
        3 ??3@YAXPEAX0@Z
        3 ??4?$_Bt_state_t@PEBD@std@@QEAAAEAV01@AEBV01@@Z
        3 ??4?$_Tgt_state_t@PEBD@std@@QEAAAEAV01@AEBV01@@Z
        3 ??4?$_Tgt_state_t@PEBD@std@@QEAAXAEBV?$_Bt_state_t@PEBD@1@@Z
        3 ??4?$_Tree_const_iterator@V?$_Tree_val@U?$_Tree_simple_types@U?$pair@$$CBV?$basic_string@DU?$char_traits@D@std@@V?$allocator@D@2@@std@@V12@@std@@@std@@@std@@@std@@QEAAAEAV01@AEBV01@@Z
        3 ??4?$_Tree_unchecked_const_iterator@V?$_Tree_val@U?$_Tree_simple_types@U?$pair@$$CBV?$basic_string@DU?$char_traits@D@std@@V?$allocator@D@2@@std@@V12@@std@@@std@@@std@@U_Iterator_base12@2@@std@@QEAAAEAV01@AEBV01@@Z
        3 ??4?$_Vb_const_iterator@U?$_Wrap_alloc@V?$allocator@I@std@@@std@@@std@@QEAAAEAV01@AEBV01@@Z
        3 ??4?$_Vb_iter_base@U?$_Wrap_alloc@V?$allocator@I@std@@@std@@@std@@QEAAAEAV01@AEBV01@@Z
        3 ??4?$_Vb_iterator@U?$_Wrap_alloc@V?$allocator@I@std@@@std@@@std@@QEAAAEAV01@AEBV01@@Z
        3 ??4?$_Vb_reference@U?$_Wrap_alloc@V?$allocator@I@std@@@std@@@std@@QEAAAEAV01@AEBV01@@Z
        3 ??4?$_Vb_reference@U?$_Wrap_alloc@V?$allocator@I@std@@@std@@@std@@QEAAAEAV01@_N@Z
        3 ??4?$_Vector_const_iterator@V?$_Vector_val@U?$_Simple_types@V?$basic_string@DU?$char_traits@D@std@@V?$allocator@D@2@@std@@@std@@@std@@@std@@QEAAAEAV01@$$QEAV01@@Z
        3 ??4?$_Vector_const_iterator@V?$_Vector_val@U?$_Simple_types@V?$basic_string@DU?$char_traits@D@std@@V?$allocator@D@2@@std@@@std@@@std@@@std@@QEAAAEAV01@AEBV01@@Z
        3 ??4?$_Vector_iterator@V?$_Vector_val@U?$_Simple_types@V?$basic_string@DU?$char_traits@D@std@@V?$allocator@D@2@@std@@@std@@@std@@@std@@QEAAAEAV01@$$QEAV01@@Z
        3 ??4?$_Vector_iterator@V?$_Vector_val@U?$_Simple_types@V?$basic_string@DU?$char_traits@D@std@@V?$allocator@D@2@@std@@@std@@@std@@@std@@QEAAAEAV01@AEBV01@@Z
        3 ??4?$basic_string@DU?$char_traits@D@std@@V?$allocator@D@2@@std@@QEAAAEAV01@$$QEAV01@@Z
        3 ??4?$basic_string@DU?$char_traits@D@std@@V?$allocator@D@2@@std@@QEAAAEAV01@AEBV01@@Z
        3 ??4?$basic_string@DU?$char_traits@D@std@@V?$allocator@D@2@@std@@QEAAAEAV01@QEBD@Z
        3 ??4?$vector@IV?$allocator@I@std@@@std@@QEAAAEAV01@AEBV01@@Z
        3 ??4?$vector@U_Grp_t@?$_Tgt_state_t@PEBD@std@@V?$allocator@U_Grp_t@?$_Tgt_state_t@PEBD@std@@@3@@std@@QEAAAEAV01@AEBV01@@Z
        3 ??4?$vector@_NV?$allocator@_N@std@@@std@@QEAAAEAV01@AEBV01@@Z
        3 ??4_Iterator_base12@std@@QEAAAEAU01@AEBU01@@Z
        3 ??8?$_String_const_iterator@V?$_String_val@U?$_Simple_types@D@std@@@std@@@std@@QEBA_NAEBV01@@Z
        3 ??8?$_Tree_const_iterator@V?$_Tree_val@U?$_Tree_simple_types@U?$pair@$$CBV?$basic_string@DU?$char_traits@D@std@@V?$allocator@D@2@@std@@V12@@std@@@std@@@std@@@std@@QEBA_NAEBV01@@Z
        3 ??8?$_Vb_const_iterator@U?$_Wrap_alloc@V?$allocator@I@std@@@std@@@std@@QEBA_NAEBV01@@Z
        3 ??8?$_Vector_const_iterator@V?$_Vector_val@U?$_Simple_types@V?$basic_string@DU?$char_traits@D@std@@V?$allocator@D@2@@std@@@std@@@std@@@std@@QEBA_NAEBV01@@Z
        3 ??9?$_String_const_iterator@V?$_String_val@U?$_Simple_types@D@std@@@std@@@std@@QEBA_NAEBV01@@Z
        3 ??9?$_Tree_const_iterator@V?$_Tree_val@U?$_Tree_simple_types@U?$pair@$$CBV?$basic_string@DU?$char_traits@D@std@@V?$allocator@D@2@@std@@V12@@std@@@std@@@std@@@std@@QEBA_NAEBV01@@Z
        3 ??9?$_Vb_const_iterator@U?$_Wrap_alloc@V?$allocator@I@std@@@std@@@std@@QEBA_NAEBV01@@Z
        3 ??9?$_Vector_const_iterator@V?$_Vector_val@U?$_Simple_types@V?$basic_string@DU?$char_traits@D@std@@V?$allocator@D@2@@std@@@std@@@std@@@std@@QEBA_NAEBV01@@Z
        3 ??A?$basic_string@DU?$char_traits@D@std@@V?$allocator@D@2@@std@@QEAAAEAD_K@Z
        3 ??A?$vector@IV?$allocator@I@std@@@std@@QEAAAEAI_K@Z
        3 ??A?$vector@U_Grp_t@?$_Tgt_state_t@PEBD@std@@V?$allocator@U_Grp_t@?$_Tgt_state_t@PEBD@std@@@3@@std@@QEAAAEAU_Grp_t@?$_Tgt_state_t@PEBD@1@_K@Z
        3 ??A?$vector@U_Loop_vals_t@std@@V?$allocator@U_Loop_vals_t@std@@@2@@std@@QEAAAEAU_Loop_vals_t@1@_K@Z
        3 ??A?$vector@V?$sub_match@PEBD@std@@V?$allocator@V?$sub_match@PEBD@std@@@2@@std@@QEAAAEAV?$sub_match@PEBD@1@_K@Z
        3 ??A?$vector@_NV?$allocator@_N@std@@@std@@QEAA?AV?$_Vb_reference@U?$_Wrap_alloc@V?$allocator@I@std@@@std@@@1@_K@Z
        3 ??B?$_Vb_reference@U?$_Wrap_alloc@V?$allocator@I@std@@@std@@@std@@QEBA_NXZ
        3 ??B?$fpos@U_Mbstatet@@@std@@QEBA_JXZ
        3 ??Bsentry@?$basic_istream@DU?$char_traits@D@std@@@std@@QEBA_NXZ
        3 ??Bsentry@?$basic_ostream@DU?$char_traits@D@std@@@std@@QEBA_NXZ
        3 ??D?$_String_const_iterator@V?$_String_val@U?$_Simple_types@D@std@@@std@@@std@@QEBAAEBDXZ
        3 ??D?$_String_iterator@V?$_String_val@U?$_Simple_types@D@std@@@std@@@std@@QEBAAEADXZ
        3 ??D?$_Vb_iterator@U?$_Wrap_alloc@V?$allocator@I@std@@@std@@@std@@QEBA?AV?$_Vb_reference@U?$_Wrap_alloc@V?$allocator@I@std@@@std@@@1@XZ
        3 ??D?$_Vector_const_iterator@V?$_Vector_val@U?$_Simple_types@V?$basic_string@DU?$char_traits@D@std@@V?$allocator@D@2@@std@@@std@@@std@@@std@@QEBAAEBV?$basic_string@DU?$char_traits@D@std@@V?$allocator@D@2@@1@XZ
        3 ??D?$_Vector_iterator@V?$_Vector_val@U?$_Simple_types@V?$basic_string@DU?$char_traits@D@std@@V?$allocator@D@2@@std@@@std@@@std@@@std@@QEBAAEAV?$basic_string@DU?$char_traits@D@std@@V?$allocator@D@2@@1@XZ
        3 ??E?$_Tree_const_iterator@V?$_Tree_val@U?$_Tree_simple_types@U?$pair@$$CBV?$basic_string@DU?$char_traits@D@std@@V?$allocator@D@2@@std@@V12@@std@@@std@@@std@@@std@@QEAA?AV01@H@Z
        3 ??E?$_Tree_const_iterator@V?$_Tree_val@U?$_Tree_simple_types@U?$pair@$$CBV?$basic_string@DU?$char_traits@D@std@@V?$allocator@D@2@@std@@V12@@std@@@std@@@std@@@std@@QEAAAEAV01@XZ
        3 ??E?$_Tree_unchecked_const_iterator@V?$_Tree_val@U?$_Tree_simple_types@U?$pair@$$CBV?$basic_string@DU?$char_traits@D@std@@V?$allocator@D@2@@std@@V12@@std@@@std@@@std@@U_Iterator_base12@2@@std@@QEAAAEAV01@XZ
        3 ??E?$_Vb_const_iterator@U?$_Wrap_alloc@V?$allocator@I@std@@@std@@@std@@QEAAAEAV01@XZ
        3 ??E?$_Vb_iterator@U?$_Wrap_alloc@V?$allocator@I@std@@@std@@@std@@QEAAAEAV01@XZ
        3 ??E?$_Vector_const_iterator@V?$_Vector_val@U?$_Simple_types@V?$basic_string@DU?$char_traits@D@std@@V?$allocator@D@2@@std@@@std@@@std@@@std@@QEAAAEAV01@XZ
        3 ??E?$_Vector_iterator@V?$_Vector_val@U?$_Simple_types@V?$basic_string@DU?$char_traits@D@std@@V?$allocator@D@2@@std@@@std@@@std@@@std@@QEAAAEAV01@XZ
        3 ??F?$_Tree_const_iterator@V?$_Tree_val@U?$_Tree_simple_types@U?$pair@$$CBV?$basic_string@DU?$char_traits@D@std@@V?$allocator@D@2@@std@@V12@@std@@@std@@@std@@@std@@QEAAAEAV01@XZ
        3 ??F?$_Tree_iterator@V?$_Tree_val@U?$_Tree_simple_types@U?$pair@$$CBV?$basic_string@DU?$char_traits@D@std@@V?$allocator@D@2@@std@@V12@@std@@@std@@@std@@@std@@QEAAAEAV01@XZ
        3 ??F?$_Tree_unchecked_const_iterator@V?$_Tree_val@U?$_Tree_simple_types@U?$pair@$$CBV?$basic_string@DU?$char_traits@D@std@@V?$allocator@D@2@@std@@V12@@std@@@std@@@std@@U_Iterator_base12@2@@std@@QEAAAEAV01@XZ
        3 ??F?$_Vb_const_iterator@U?$_Wrap_alloc@V?$allocator@I@std@@@std@@@std@@QEAAAEAV01@XZ
        3 ??F?$_Vb_iterator@U?$_Wrap_alloc@V?$allocator@I@std@@@std@@@std@@QEAAAEAV01@XZ
        3 ??G?$_String_const_iterator@V?$_String_val@U?$_Simple_types@D@std@@@std@@@std@@QEBA_JAEBV01@@Z
        3 ??G?$_Vb_const_iterator@U?$_Wrap_alloc@V?$allocator@I@std@@@std@@@std@@QEBA_JAEBV01@@Z
        3 ??G?$_Vb_iterator@U?$_Wrap_alloc@V?$allocator@I@std@@@std@@@std@@QEBA?AV01@_J@Z
        3 ??G?$_Vb_iterator@U?$_Wrap_alloc@V?$allocator@I@std@@@std@@@std@@QEBA_JAEBV?$_Vb_const_iterator@U?$_Wrap_alloc@V?$allocator@I@std@@@std@@@1@@Z
        3 ??H?$_String_iterator@V?$_String_val@U?$_Simple_types@D@std@@@std@@@std@@QEBA?AV01@_J@Z
        3 ??H?$_Vb_iterator@U?$_Wrap_alloc@V?$allocator@I@std@@@std@@@std@@QEBA?AV01@_J@Z
        3 ??H?$_Vector_iterator@V?$_Vector_val@U?$_Simple_types@I@std@@@std@@@std@@QEBA?AV01@_J@Z
        3 ??H?$_Vector_iterator@V?$_Vector_val@U?$_Simple_types@V?$basic_string@DU?$char_traits@D@std@@V?$allocator@D@2@@std@@@std@@@std@@@std@@QEBA?AV01@_J@Z
        3 ??Iregex_constants@std@@YA?AW4match_flag_type@01@W4201@0@Z
        3 ??Iregex_constants@std@@YA?AW4syntax_option_type@01@W4201@0@Z
        3 ??M?$_String_const_iterator@V?$_String_val@U?$_Simple_types@D@std@@@std@@@std@@QEBA_NAEBV01@@Z
        3 ??M?$_Vb_const_iterator@U?$_Wrap_alloc@V?$allocator@I@std@@@std@@@std@@QEBA_NAEBV01@@Z
        3 ??M?$_Vector_const_iterator@V?$_Vector_val@U?$_Simple_types@V?$basic_string@DU?$char_traits@D@std@@V?$allocator@D@2@@std@@@std@@@std@@@std@@QEBA_NAEBV01@@Z
        3 ??R?$_Cmp_collate@V?$regex_traits@D@std@@@std@@QEAA_NDD@Z
        3 ??R?$_Cmp_cs@V?$regex_traits@D@std@@@std@@QEAA_NDD@Z
        3 ??R?$_Cmp_icase@V?$_Regex_traits@D@std@@@std@@QEAA_NDD@Z
        3 ??R?$_Cmp_icase@V?$regex_traits@D@std@@@std@@QEAA_NDD@Z
        3 ??R?$less@V?$basic_string@DU?$char_traits@D@std@@V?$allocator@D@2@@std@@@std@@QEBA_NAEBV?$basic_string@DU?$char_traits@D@std@@V?$allocator@D@2@@1@0@Z
        3 ??Uregex_constants@std@@YA?AW4match_flag_type@01@W4201@0@Z
        3 ??Y?$_String_const_iterator@V?$_String_val@U?$_Simple_types@D@std@@@std@@@std@@QEAAAEAV01@_J@Z
        3 ??Y?$_String_iterator@V?$_String_val@U?$_Simple_types@D@std@@@std@@@std@@QEAAAEAV01@_J@Z
        3 ??Y?$_Vb_const_iterator@U?$_Wrap_alloc@V?$allocator@I@std@@@std@@@std@@QEAAAEAV01@_J@Z
        3 ??Y?$_Vb_iterator@U?$_Wrap_alloc@V?$allocator@I@std@@@std@@@std@@QEAAAEAV01@_J@Z
        3 ??Y?$_Vector_const_iterator@V?$_Vector_val@U?$_Simple_types@I@std@@@std@@@std@@QEAAAEAV01@_J@Z
        3 ??Y?$_Vector_const_iterator@V?$_Vector_val@U?$_Simple_types@V?$basic_string@DU?$char_traits@D@std@@V?$allocator@D@2@@std@@@std@@@std@@@std@@QEAAAEAV01@_J@Z
        3 ??Y?$_Vector_iterator@V?$_Vector_val@U?$_Simple_types@I@std@@@std@@@std@@QEAAAEAV01@_J@Z
        3 ??Y?$_Vector_iterator@V?$_Vector_val@U?$_Simple_types@V?$basic_string@DU?$char_traits@D@std@@V?$allocator@D@2@@std@@@std@@@std@@@std@@QEAAAEAV01@_J@Z
        3 ??Y?$basic_string@DU?$char_traits@D@std@@V?$allocator@D@2@@std@@QEAAAEAV01@AEBV01@@Z
        3 ??Y?$basic_string@DU?$char_traits@D@std@@V?$allocator@D@2@@std@@QEAAAEAV01@D@Z
        3 ??Y?$basic_string@DU?$char_traits@D@std@@V?$allocator@D@2@@std@@QEAAAEAV01@QEBD@Z
        3 ??Z?$_Vb_iterator@U?$_Wrap_alloc@V?$allocator@I@std@@@std@@@std@@QEAAAEAV01@_J@Z
        3 ??_5std@@YA?AW4_Node_flags@0@AEAW410@W410@@Z
        3 ??_6std@@YA?AW4_Node_flags@0@AEAW410@W410@@Z
        3 ??_7?$_Node_class@DV?$regex_traits@D@std@@@std@@6B@
        3 ??_7?$_Node_str@D@std@@6B@
        3 ??_7?$basic_filebuf@DU?$char_traits@D@std@@@std@@6B@
        3 ??_7?$basic_ifstream@DU?$char_traits@D@std@@@std@@6B@
        3 ??_7?$basic_ostringstream@DU?$char_traits@D@std@@V?$allocator@D@2@@std@@6B@
        3 ??_7?$basic_stringbuf@DU?$char_traits@D@std@@V?$allocator@D@2@@std@@6B@
        3 ??_7?$collate@D@std@@6B@
        3 ??_7_Node_assert@std@@6B@
        3 ??_7_Node_back@std@@6B@
        3 ??_7_Node_base@std@@6B@
        3 ??_7_Node_capture@std@@6B@
        3 ??_7_Node_end_group@std@@6B@
        3 ??_7_Node_end_rep@std@@6B@
        3 ??_7_Node_endif@std@@6B@
        3 ??_7_Node_if@std@@6B@
        3 ??_7_Node_rep@std@@6B@
        3 ??_7_Root_node@std@@6B@
        3 ??_7bad_cast@std@@6B@
        3 ??_7exception@std@@6B@
        3 ??_8?$basic_ifstream@DU?$char_traits@D@std@@@std@@7B@
        3 ??_8?$basic_ostringstream@DU?$char_traits@D@std@@V?$allocator@D@2@@std@@7B@
        3 ??_C@_00CNPNBAHC@?$AA@
        3 ??_C@_01CLKCMJKC@?5?$AA@
        3 ??_C@_01KMDKNFGN@?1?$AA@
        3 ??_C@_01LKDEMHDF@s?$AA@
        3 ??_C@_01LPLHEDKD@d?$AA@
        3 ??_C@_01MNNFJEPP@?$DM?$AA@
        3 ??_C@_01NOFIACDB@w?$AA@
        3 ??_C@_01PPODPGHN@?$DO?$AA@
        3 ??_C@_02DPNDACHE@?$DM?1?$AA@
        3 ??_C@_02KHOJGJKF@?4?5?$AA@
        3 ??_C@_03ILLHFMNI@?5?7?6?$AA@
        3 ??_C@_03LCPHGAHP@cls?$AA@
        3 ??_C@_03PNLDJJMO@?9?9?$DO?$AA@
        3 ??_C@_04FFDNBKGC@?$DM?$CB?9?9?$AA@
        3 ??_C@_05BABJKOGB@blank?$AA@
        3 ??_C@_05DGGNBJMM@?$DM?$CB?9?9?5?$AA@
        3 ??_C@_05DJDIECHG@?$DM?$DPxml?$AA@
        3 ??_C@_05IAEKHIAN@alpha?$AA@
        3 ??_C@_05IIMHCHIO@alnum?$AA@
        3 ??_C@_05IJDJACGD@print?$AA@
        3 ??_C@_05IPJEPLHL@lower?$AA@
        3 ??_C@_05JMDPEFNK@cntrl?$AA@
        3 ??_C@_05KCJBMLII@graph?$AA@
        3 ??_C@_05KOBGHFJJ@punct?$AA@
        3 ??_C@_05NECKJAMC@upper?$AA@
        3 ??_C@_05ODNOIFML@digit?$AA@
        3 ??_C@_05OLNILLAB@space?$AA@
        3 ??_C@_06BAPHGFFK@xdigit?$AA@
        3 ??_C@_08EPJLHIJG@bad?5cast?$AA@
        3 ??_C@_08GOBPOGDO@?$CFY?9?$CFm?9?$CFd?$AA@
        3 ??_C@_09CEJGLLFG@wmic?5exit?$AA@
        3 ??_C@_09GLJCAGLP@_Ptr?5?$CB?$DN?50?$AA@
        3 ??_C@_0BA@JFNIOLAK@string?5too?5long?$AA@
        3 ??_C@_0BC@EOODALEL@Unknown?5exception?$AA@
        3 ??_C@_0BD@OLBABOEK@vector?$DMT?$DO?5too?5long?$AA@
        3 ??_C@_0BE@BLLLJNLB@Error?3?5empty?5tree?3?5?$AA@
        3 ??_C@_0BE@JONHPENG@map?1set?$DMT?$DO?5too?5long?$AA@
        3 ??_C@_0BE@LMNLACIC@_Ptr_container?5?$CB?$DN?50?$AA@
        3 ??_C@_0BG@EOMJEIFA@vector?$DMbool?$DO?5too?5long?$AA@
        3 ??_C@_0BI@CFPLBAOH@invalid?5string?5position?$AA@
        3 ??_C@_0BN@ELFFMIIN@Error?0?5missing?5open?5tag?5for?5?$AA@
        3 ??_C@_0BO@ILCCICL@Error?0?5missing?5close?5tag?5for?5?$AA@
        3 ??_C@_0CD@JGIENMLN@Press?5Enter?5to?5erase?5the?5screen?4@
        3 ??_C@_0CG@PPHFBBBK@Error?0?5missing?5tag?5name?5on?5open?5@
        3 ??_C@_0CH@LAMGLEEK@?$FO?$CI?$FL?$CL?9?$FN?$DP?$FL0?99?$FN?$CL?$CJ?$HM?$CI?$FL?$CL?9?$FN?$DP?$FL0?99?$FN?$CK?$FL?4?$FN?$FL0@
        3 ??_C@_0CI@HHCHEIB@Error?3?5missing?5open?5?$DM?5char?5on?5op@
        3 ??_C@_0CJ@LBHPPNMD@Error?3?5missing?5close?5?$DO?5char?5on?5o@
        3 ??_C@_0CJ@MAKBHEIK@Tools?3?3XMLParser?$CI?$CJ?3?5unable?5to?5fi@
        3 ??_C@_0CK@OEMCGDHJ@Error?3?5found?5tree?5with?5embeded?5n@
        3 ??_C@_0DC@GKMCDCDH@Error?3?5missing?5root?5tag?4?5First?5t@
        3 ??_C@_0DK@KHBFPLKI@?6Trees?5with?5node?$CIs?$CJ?5on?5the?5same?5@
        3 ??_C@_0M@BJNAPKND@?$CFY?9?$CFm?9?$CFd?9?$CFT?$AA@
        3 ??_C@_0O@HDNEHMFI@?$DO?5has?5no?5text?$AA@
        3 ??_C@_0P@OJAGOIAD@Warning?3?5tag?5?$DM?$AA@
        3 ??_C@_13CIFDLIMG@?$AAw?$AA?$AA@
        3 ??_C@_13GKPPEALH@?$AAd?$AA?$AA@
        3 ??_C@_13KHDBCPJB@?$AAs?$AA?$AA@
        3 ??_C@_17CNPHIMPH@?$AA?$CF?$AAl?$AAs?$AA?$AA@
        3 ??_C@_1BAA@CKOBBKNE@?$AA?$CC?$AAc?$AAa?$AAn?$AAn?$AAo?$AAt?$AA?5?$AAs?$AAe?$AAe?$AAk?$AA?5?$AAs?$AAt?$AAr?$AAi?$AAn?$AAg?$AA?5?$AAi?$AAt?$AAe?$AAr?$AAa?$AAt?$AAo?$AAr?$AA?5?$AAb?$AAe?$AAc@
        3 ??_C@_1BAE@HEEJFKO@?$AAc?$AAa?$AAn?$AAn?$AAo?$AAt?$AA?5?$AAd?$AAe?$AAr?$AAe?$AAf?$AAe?$AAr?$AAe?$AAn?$AAc?$AAe?$AA?5?$AAs?$AAt?$AAr?$AAi?$AAn?$AAg?$AA?5?$AAi?$AAt?$AAe?$AAr?$AAa?$AAt@
        3 ??_C@_1BAO@BGLBIONH@?$AA?$CC?$AAc?$AAa?$AAn?$AAn?$AAo?$AAt?$AA?5?$AAd?$AAe?$AAr?$AAe?$AAf?$AAe?$AAr?$AAe?$AAn?$AAc?$AAe?$AA?5?$AAs?$AAt?$AAr?$AAi?$AAn?$AAg?$AA?5?$AAi?$AAt?$AAe?$AAr?$AAa@
        3 ??_C@_1BBO@PGCBDJJB@?$AAs?$AAt?$AAd?$AA?3?$AA?3?$AAv?$AAe?$AAc?$AAt?$AAo?$AAr?$AA?$DM?$AAs?$AAt?$AAr?$AAu?$AAc?$AAt?$AA?5?$AAs?$AAt?$AAd?$AA?3?$AA?3?$AA_?$AAT?$AAg?$AAt?$AA_?$AAs?$AAt?$AAa@
        3 ??_C@_1BGI@CFILNOOP@?$AAs?$AAt?$AAd?$AA?3?$AA?3?$AA_?$AAV?$AAe?$AAc?$AAt?$AAo?$AAr?$AA_?$AAc?$AAo?$AAn?$AAs?$AAt?$AA_?$AAi?$AAt?$AAe?$AAr?$AAa?$AAt?$AAo?$AAr?$AA?$DM?$AAc?$AAl?$AAa?$AAs@
        3 ??_C@_1BGO@ENKEMOHL@?$AAs?$AAt?$AAd?$AA?3?$AA?3?$AA_?$AAV?$AAe?$AAc?$AAt?$AAo?$AAr?$AA_?$AAc?$AAo?$AAn?$AAs?$AAt?$AA_?$AAi?$AAt?$AAe?$AAr?$AAa?$AAt?$AAo?$AAr?$AA?$DM?$AAc?$AAl?$AAa?$AAs@
        3 ??_C@_1BHA@HJAKPBPH@?$AAs?$AAt?$AAd?$AA?3?$AA?3?$AA_?$AAV?$AAe?$AAc?$AAt?$AAo?$AAr?$AA_?$AAc?$AAo?$AAn?$AAs?$AAt?$AA_?$AAi?$AAt?$AAe?$AAr?$AAa?$AAt?$AAo?$AAr?$AA?$DM?$AAc?$AAl?$AAa?$AAs@
        3 ??_C@_1BHA@MHIPJLE@?$AAs?$AAt?$AAd?$AA?3?$AA?3?$AA_?$AAV?$AAe?$AAc?$AAt?$AAo?$AAr?$AA_?$AAc?$AAo?$AAn?$AAs?$AAt?$AA_?$AAi?$AAt?$AAe?$AAr?$AAa?$AAt?$AAo?$AAr?$AA?$DM?$AAc?$AAl?$AAa?$AAs@
        3 ??_C@_1BLK@GBKABDEF@?$AAs?$AAt?$AAd?$AA?3?$AA?3?$AAv?$AAe?$AAc?$AAt?$AAo?$AAr?$AA?$DM?$AAc?$AAl?$AAa?$AAs?$AAs?$AA?5?$AAs?$AAt?$AAd?$AA?3?$AA?3?$AAb?$AAa?$AAs?$AAi?$AAc?$AA_?$AAs?$AAt?$AAr@
        3 ??_C@_1BO@NKFMJPA@?$AAs?$AAt?$AAd?$AA?3?$AA?3?$AA_?$AAA?$AAl?$AAl?$AAo?$AAc?$AAa?$AAt?$AAe?$AA?$AA@
        3 ??_C@_1CC@GKJLLHIM@?$AA?$CC?$AA_?$AAP?$AAt?$AAr?$AA?5?$AA?$CB?$AA?$DN?$AA?5?$AA0?$AA?$CC?$AA?5?$AA?$CG?$AA?$CG?$AA?5?$AA0?$AA?$AA@
        3 ??_C@_1CC@LOFJFFDB@?$AAs?$AAt?$AAd?$AA?3?$AA?3?$AA_?$AAD?$AAe?$AAa?$AAl?$AAl?$AAo?$AAc?$AAa?$AAt?$AAe?$AA?$AA@
        3 ??_C@_1CFG@FFIHNBD@?$AAs?$AAt?$AAd?$AA?3?$AA?3?$AA_?$AAT?$AAr?$AAe?$AAe?$AA_?$AAc?$AAo?$AAn?$AAs?$AAt?$AA_?$AAi?$AAt?$AAe?$AAr?$AAa?$AAt?$AAo?$AAr?$AA?$DM?$AAc?$AAl?$AAa?$AAs?$AAs?$AA?5@
        3 ??_C@_1CFG@FGJHCIBH@?$AAs?$AAt?$AAd?$AA?3?$AA?3?$AA_?$AAT?$AAr?$AAe?$AAe?$AA_?$AAc?$AAo?$AAn?$AAs?$AAt?$AA_?$AAi?$AAt?$AAe?$AAr?$AAa?$AAt?$AAo?$AAr?$AA?$DM?$AAc?$AAl?$AAa?$AAs?$AAs?$AA?5@
        3 ??_C@_1CFG@PGGKMBNC@?$AAs?$AAt?$AAd?$AA?3?$AA?3?$AA_?$AAT?$AAr?$AAe?$AAe?$AA_?$AAc?$AAo?$AAn?$AAs?$AAt?$AA_?$AAi?$AAt?$AAe?$AAr?$AAa?$AAt?$AAo?$AAr?$AA?$DM?$AAc?$AAl?$AAa?$AAs?$AAs?$AA?5@
        3 ??_C@_1CG@JNLFBNGN@?$AA?$CC?$AAi?$AAn?$AAv?$AAa?$AAl?$AAi?$AAd?$AA?5?$AAa?$AAr?$AAg?$AAu?$AAm?$AAe?$AAn?$AAt?$AA?$CC?$AA?$AA@
        3 ??_C@_1CG@LEJCKCBB@?$AAi?$AAn?$AAv?$AAa?$AAl?$AAi?$AAd?$AA?5?$AAc?$AAo?$AAm?$AAp?$AAa?$AAr?$AAa?$AAt?$AAo?$AAr?$AA?$AA@
        3 ??_C@_1CG@MDICLDJA@?$AAs?$AAt?$AAd?$AA?3?$AA?3?$AA_?$AAD?$AAe?$AAb?$AAu?$AAg?$AA_?$AAr?$AAa?$AAn?$AAg?$AAe?$AA2?$AA?$AA@
        3 ??_C@_1CI@JONCLBEJ@?$AAs?$AAt?$AAd?$AA?3?$AA?3?$AA_?$AAD?$AAe?$AAb?$AAu?$AAg?$AA_?$AAl?$AAt?$AA_?$AAp?$AAr?$AAe?$AAd?$AA?$AA@
        3 ??_C@_1CK@FGJPLFEF@?$AAs?$AAt?$AAd?$AA?3?$AA?3?$AA_?$AAB?$AAu?$AAf?$AA?$DM?$AAc?$AAh?$AAa?$AAr?$AA?$DO?$AA?3?$AA?3?$AA_?$AAA?$AAt?$AA?$AA@
        3 ??_C@_1CK@NDNHPKPI@?$AA?$CC?$AAi?$AAn?$AAv?$AAa?$AAl?$AAi?$AAd?$AA?5?$AAc?$AAo?$AAm?$AAp?$AAa?$AAr?$AAa?$AAt?$AAo?$AAr?$AA?$CC?$AA?$AA@
        3 ??_C@_1CO@DGLIKNHI@?$AAi?$AAn?$AAv?$AAa?$AAl?$AAi?$AAd?$AA?5?$AAi?$AAt?$AAe?$AAr?$AAa?$AAt?$AAo?$AAr?$AA?5?$AAr?$AAa?$AAn?$AAg?$AAe?$AA?$AA@
        3 ??_C@_1DC@CHPPODDE@?$AA?$CC?$AAi?$AAn?$AAv?$AAa?$AAl?$AAi?$AAd?$AA?5?$AAi?$AAt?$AAe?$AAr?$AAa?$AAt?$AAo?$AAr?$AA?5?$AAr?$AAa?$AAn?$AAg?$AAe?$AA?$CC?$AA?$AA@
        3 ??_C@_1DC@POOIKBAO@?$AAI?$AAT?$AAE?$AAR?$AAA?$AAT?$AAO?$AAR?$AA?5?$AAL?$AAI?$AAS?$AAT?$AA?5?$AAC?$AAO?$AAR?$AAR?$AAU?$AAP?$AAT?$AAE?$AAD?$AA?$CB?$AA?$AA@
        3 ??_C@_1DG@HGDKEBPG@?$AA?$CC?$AA_?$AAP?$AAt?$AAr?$AA_?$AAc?$AAo?$AAn?$AAt?$AAa?$AAi?$AAn?$AAe?$AAr?$AA?5?$AA?$CB?$AA?$DN?$AA?5?$AA0?$AA?$CC?$AA?5?$AA?$CG?$AA?$CG?$AA?5?$AA0?$AA?$AA@
        3 ??_C@_1DG@PLBPCAEM@?$AA?$CC?$AAI?$AAT?$AAE?$AAR?$AAA?$AAT?$AAO?$AAR?$AA?5?$AAL?$AAI?$AAS?$AAT?$AA?5?$AAC?$AAO?$AAR?$AAR?$AAU?$AAP?$AAT?$AAE?$AAD?$AA?$CB?$AA?$CC?$AA?$AA@
        3 ??_C@_1DM@GMPLOCPK@?$AAs?$AAt?$AAr?$AAi?$AAn?$AAg?$AA?5?$AAs?$AAu?$AAb?$AAs?$AAc?$AAr?$AAi?$AAp?$AAt?$AA?5?$AAo?$AAu?$AAt?$AA?5?$AAo?$AAf?$AA?5?$AAr?$AAa?$AAn?$AAg?$AAe?$AA?$AA@
        3 ??_C@_1DM@HINDPMBP@?$AAv?$AAe?$AAc?$AAt?$AAo?$AAr?$AA?5?$AAi?$AAt?$AAe?$AAr?$AAa?$AAt?$AAo?$AAr?$AAs?$AA?5?$AAi?$AAn?$AAc?$AAo?$AAm?$AAp?$AAa?$AAt?$AAi?$AAb?$AAl?$AAe?$AA?$AA@
        3 ??_C@_1DM@LHGCHCBA@?$AAv?$AAe?$AAc?$AAt?$AAo?$AAr?$AA?5?$AAs?$AAu?$AAb?$AAs?$AAc?$AAr?$AAi?$AAp?$AAt?$AA?5?$AAo?$AAu?$AAt?$AA?5?$AAo?$AAf?$AA?5?$AAr?$AAa?$AAn?$AAg?$AAe?$AA?$AA@
        3 ??_C@_1DO@CFEEPGGJ@?$AAm?$AAa?$AAp?$AA?1?$AAs?$AAe?$AAt?$AA?5?$AAi?$AAt?$AAe?$AAr?$AAa?$AAt?$AAo?$AAr?$AAs?$AA?5?$AAi?$AAn?$AAc?$AAo?$AAm?$AAp?$AAa?$AAt?$AAi?$AAb?$AAl?$AAe?$AA?$AA@
        3 ??_C@_1EA@DJDGNIII@?$AA?$CC?$AAv?$AAe?$AAc?$AAt?$AAo?$AAr?$AA?5?$AAi?$AAt?$AAe?$AAr?$AAa?$AAt?$AAo?$AAr?$AAs?$AA?5?$AAi?$AAn?$AAc?$AAo?$AAm?$AAp?$AAa?$AAt?$AAi?$AAb?$AAl?$AAe?$AA?$CC?$AA?$AA@
        3 ??_C@_1EA@LEKOKFNB@?$AA?$CC?$AAv?$AAe?$AAc?$AAt?$AAo?$AAr?$AA?5?$AAs?$AAu?$AAb?$AAs?$AAc?$AAr?$AAi?$AAp?$AAt?$AA?5?$AAo?$AAu?$AAt?$AA?5?$AAo?$AAf?$AA?5?$AAr?$AAa?$AAn?$AAg?$AAe?$AA?$CC?$AA?$AA@
        3 ??_C@_1EA@OADAPGGK@?$AA?$CC?$AAs?$AAt?$AAr?$AAi?$AAn?$AAg?$AA?5?$AAs?$AAu?$AAb?$AAs?$AAc?$AAr?$AAi?$AAp?$AAt?$AA?5?$AAo?$AAu?$AAt?$AA?5?$AAo?$AAf?$AA?5?$AAr?$AAa?$AAn?$AAg?$AAe?$AA?$CC?$AA?$AA@
        3 ??_C@_1EC@JLIDLCDH@?$AA?$CC?$AAm?$AAa?$AAp?$AA?1?$AAs?$AAe?$AAt?$AA?5?$AAi?$AAt?$AAe?$AAr?$AAa?$AAt?$AAo?$AAr?$AAs?$AA?5?$AAi?$AAn?$AAc?$AAo?$AAm?$AAp?$AAa?$AAt?$AAi?$AAb?$AAl?$AAe?$AA?$CC@
        3 ??_C@_1EE@EJDKCLKB@?$AAv?$AAe?$AAc?$AAt?$AAo?$AAr?$AA?5?$AAi?$AAt?$AAe?$AAr?$AAa?$AAt?$AAo?$AAr?$AA?5?$AAn?$AAo?$AAt?$AA?5?$AAi?$AAn?$AAc?$AAr?$AAe?$AAm?$AAe?$AAn?$AAt?$AAa?$AAb?$AAl@
        3 ??_C@_1EE@KLDMFDFL@?$AAs?$AAt?$AAd?$AA?3?$AA?3?$AA_?$AAI?$AAt?$AAe?$AAr?$AAa?$AAt?$AAo?$AAr?$AA_?$AAb?$AAa?$AAs?$AAe?$AA1?$AA2?$AA?3?$AA?3?$AA_?$AAO?$AAr?$AAp?$AAh?$AAa?$AAn?$AA_?$AAm@
        3 ??_C@_1EFG@HPDNAECC@?$AAs?$AAt?$AAd?$AA?3?$AA?3?$AA_?$AAT?$AAr?$AAe?$AAe?$AA?$DM?$AAc?$AAl?$AAa?$AAs?$AAs?$AA?5?$AAs?$AAt?$AAd?$AA?3?$AA?3?$AA_?$AAT?$AAm?$AAa?$AAp?$AA_?$AAt?$AAr?$AAa?$AAi@
        3 ??_C@_1EG@EHJFMBHJ@?$AAm?$AAa?$AAp?$AA?1?$AAs?$AAe?$AAt?$AA?5?$AAi?$AAt?$AAe?$AAr?$AAa?$AAt?$AAo?$AAr?$AA?5?$AAn?$AAo?$AAt?$AA?5?$AAi?$AAn?$AAc?$AAr?$AAe?$AAm?$AAe?$AAn?$AAt?$AAa?$AAb@
        3 ??_C@_1EG@FOHJJHAC@?$AAv?$AAe?$AAc?$AAt?$AAo?$AAr?$AA?5?$AAi?$AAt?$AAe?$AAr?$AAa?$AAt?$AAo?$AAr?$AA?5?$AAn?$AAo?$AAt?$AA?5?$AAd?$AAe?$AAr?$AAe?$AAf?$AAe?$AAr?$AAe?$AAn?$AAc?$AAa?$AAb@
        3 ??_C@_1EG@OKCGOALM@?$AAm?$AAa?$AAp?$AA?1?$AAs?$AAe?$AAt?$AA?5?$AAi?$AAt?$AAe?$AAr?$AAa?$AAt?$AAo?$AAr?$AA?5?$AAn?$AAo?$AAt?$AA?5?$AAd?$AAe?$AAc?$AAr?$AAe?$AAm?$AAe?$AAn?$AAt?$AAa?$AAb@
        3 ??_C@_1EGE@IHOCAPBL@?$AAs?$AAt?$AAd?$AA?3?$AA?3?$AA_?$AAT?$AAr?$AAe?$AAe?$AA?$DM?$AAc?$AAl?$AAa?$AAs?$AAs?$AA?5?$AAs?$AAt?$AAd?$AA?3?$AA?3?$AA_?$AAT?$AAm?$AAa?$AAp?$AA_?$AAt?$AAr?$AAa?$AAi@
        3 ??_C@_1EI@CADIPFJC@?$AAv?$AAe?$AAc?$AAt?$AAo?$AAr?$AA?$DM?$AAb?$AAo?$AAo?$AAl?$AA?$DO?$AA?5?$AAi?$AAt?$AAe?$AAr?$AAa?$AAt?$AAo?$AAr?$AAs?$AA?5?$AAi?$AAn?$AAc?$AAo?$AAm?$AAp?$AAa?$AAt?$AAi@
        3 ??_C@_1EI@DKOJGMLN@?$AAr?$AAe?$AAg?$AAe?$AAx?$AA?5?$AAb?$AAu?$AAf?$AAf?$AAe?$AAr?$AA?5?$AAs?$AAu?$AAb?$AAs?$AAc?$AAr?$AAi?$AAp?$AAt?$AA?5?$AAo?$AAu?$AAt?$AA?5?$AAo?$AAf?$AA?5?$AAr?$AAa@
        3 ??_C@_1EI@HCADPHFC@?$AA?$CC?$AAv?$AAe?$AAc?$AAt?$AAo?$AAr?$AA?5?$AAi?$AAt?$AAe?$AAr?$AAa?$AAt?$AAo?$AAr?$AA?5?$AAn?$AAo?$AAt?$AA?5?$AAi?$AAn?$AAc?$AAr?$AAe?$AAm?$AAe?$AAn?$AAt?$AAa?$AAb@
        3 ??_C@_1EI@HGIDLLCM@?$AAv?$AAe?$AAc?$AAt?$AAo?$AAr?$AA?5?$AAe?$AAr?$AAa?$AAs?$AAe?$AA?5?$AAi?$AAt?$AAe?$AAr?$AAa?$AAt?$AAo?$AAr?$AA?5?$AAo?$AAu?$AAt?$AAs?$AAi?$AAd?$AAe?$AA?5?$AAr?$AAa@
        3 ??_C@_1EK@BCPDGOMC@?$AA?$CC?$AAm?$AAa?$AAp?$AA?1?$AAs?$AAe?$AAt?$AA?5?$AAi?$AAt?$AAe?$AAr?$AAa?$AAt?$AAo?$AAr?$AA?5?$AAn?$AAo?$AAt?$AA?5?$AAi?$AAn?$AAc?$AAr?$AAe?$AAm?$AAe?$AAn?$AAt?$AAa@
        3 ??_C@_1EK@BGCEAKDC@?$AAc?$AAa?$AAn?$AAn?$AAo?$AAt?$AA?5?$AAs?$AAe?$AAe?$AAk?$AA?5?$AAs?$AAt?$AAr?$AAi?$AAn?$AAg?$AA?5?$AAi?$AAt?$AAe?$AAr?$AAa?$AAt?$AAo?$AAr?$AA?5?$AAp?$AAa?$AAs?$AAt@
        3 ??_C@_1EK@EEHFMKDC@?$AAv?$AAe?$AAc?$AAt?$AAo?$AAr?$AA?5?$AAi?$AAn?$AAs?$AAe?$AAr?$AAt?$AA?5?$AAi?$AAt?$AAe?$AAr?$AAa?$AAt?$AAo?$AAr?$AA?5?$AAo?$AAu?$AAt?$AAs?$AAi?$AAd?$AAe?$AA?5?$AAr@
        3 ??_C@_1EK@FMDACDNC@?$AA?$CC?$AAv?$AAe?$AAc?$AAt?$AAo?$AAr?$AA?5?$AAi?$AAt?$AAe?$AAr?$AAa?$AAt?$AAo?$AAr?$AA?5?$AAn?$AAo?$AAt?$AA?5?$AAd?$AAe?$AAr?$AAe?$AAf?$AAe?$AAr?$AAe?$AAn?$AAc?$AAa@
        3 ??_C@_1EK@OIBHPACE@?$AA?$CC?$AAm?$AAa?$AAp?$AA?1?$AAs?$AAe?$AAt?$AA?5?$AAi?$AAt?$AAe?$AAr?$AAa?$AAt?$AAo?$AAr?$AA?5?$AAn?$AAo?$AAt?$AA?5?$AAd?$AAe?$AAc?$AAr?$AAe?$AAm?$AAe?$AAn?$AAt?$AAa@
        3 ??_C@_1EK@PPDBPCAN@?$AAm?$AAa?$AAp?$AA?1?$AAs?$AAe?$AAt?$AA?5?$AAe?$AAr?$AAa?$AAs?$AAe?$AA?5?$AAi?$AAt?$AAe?$AAr?$AAa?$AAt?$AAo?$AAr?$AA?5?$AAo?$AAu?$AAt?$AAs?$AAi?$AAd?$AAe?$AA?5?$AAr@
        3 ??_C@_1EM@BEMPOGMM@?$AA?$CC?$AAv?$AAe?$AAc?$AAt?$AAo?$AAr?$AA?5?$AAe?$AAr?$AAa?$AAs?$AAe?$AA?5?$AAi?$AAt?$AAe?$AAr?$AAa?$AAt?$AAo?$AAr?$AA?5?$AAo?$AAu?$AAt?$AAs?$AAi?$AAd?$AAe?$AA?5?$AAr@
        3 ??_C@_1EM@FKAOCOMF@?$AAv?$AAe?$AAc?$AAt?$AAo?$AAr?$AA?5?$AAi?$AAt?$AAe?$AAr?$AAa?$AAt?$AAo?$AAr?$AA?5?$AA?$CL?$AA?5?$AAo?$AAf?$AAf?$AAs?$AAe?$AAt?$AA?5?$AAo?$AAu?$AAt?$AA?5?$AAo?$AAf?$AA?5@
        3 ??_C@_1EM@GECCFGIK@?$AA?$CC?$AAr?$AAe?$AAg?$AAe?$AAx?$AA?5?$AAb?$AAu?$AAf?$AAf?$AAe?$AAr?$AA?5?$AAs?$AAu?$AAb?$AAs?$AAc?$AAr?$AAi?$AAp?$AAt?$AA?5?$AAo?$AAu?$AAt?$AA?5?$AAo?$AAf?$AA?5?$AAr@
        3 ??_C@_1EM@MHOKKPFH@?$AAm?$AAa?$AAp?$AA?1?$AAs?$AAe?$AAt?$AA?5?$AAi?$AAn?$AAs?$AAe?$AAr?$AAt?$AA?5?$AAi?$AAt?$AAe?$AAr?$AAa?$AAt?$AAo?$AAr?$AA?5?$AAo?$AAu?$AAt?$AAs?$AAi?$AAd?$AAe?$AA?5@
        3 ??_C@_1EM@PPONFPNG@?$AA?$CC?$AAv?$AAe?$AAc?$AAt?$AAo?$AAr?$AA?$DM?$AAb?$AAo?$AAo?$AAl?$AA?$DO?$AA?5?$AAi?$AAt?$AAe?$AAr?$AAa?$AAt?$AAo?$AAr?$AAs?$AA?5?$AAi?$AAn?$AAc?$AAo?$AAm?$AAp?$AAa?$AAt@
        3 ??_C@_1EO@CEDAEPC@?$AA?$CC?$AAm?$AAa?$AAp?$AA?1?$AAs?$AAe?$AAt?$AA?5?$AAe?$AAr?$AAa?$AAs?$AAe?$AA?5?$AAi?$AAt?$AAe?$AAr?$AAa?$AAt?$AAo?$AAr?$AA?5?$AAo?$AAu?$AAt?$AAs?$AAi?$AAd?$AAe?$AA?5@
        3 ??_C@_1EO@HCJPCNBE@?$AA?$CC?$AAv?$AAe?$AAc?$AAt?$AAo?$AAr?$AA?5?$AAi?$AAn?$AAs?$AAe?$AAr?$AAt?$AA?5?$AAi?$AAt?$AAe?$AAr?$AAa?$AAt?$AAo?$AAr?$AA?5?$AAo?$AAu?$AAt?$AAs?$AAi?$AAd?$AAe?$AA?5@
        3 ??_C@_1EO@OJPLLNPF@?$AA?$CC?$AAc?$AAa?$AAn?$AAn?$AAo?$AAt?$AA?5?$AAs?$AAe?$AAe?$AAk?$AA?5?$AAs?$AAt?$AAr?$AAi?$AAn?$AAg?$AA?5?$AAi?$AAt?$AAe?$AAr?$AAa?$AAt?$AAo?$AAr?$AA?5?$AAp?$AAa?$AAs@
        3 ??_C@_1FA@GAHMJBDC@?$AAv?$AAe?$AAc?$AAt?$AAo?$AAr?$AA?$DM?$AAb?$AAo?$AAo?$AAl?$AA?$DO?$AA?5?$AAi?$AAt?$AAe?$AAr?$AAa?$AAt?$AAo?$AAr?$AA?5?$AAn?$AAo?$AAt?$AA?5?$AAi?$AAn?$AAc?$AAr?$AAe?$AAm@
        3 ??_C@_1FA@HNFOKDLB@?$AA?$CC?$AAm?$AAa?$AAp?$AA?1?$AAs?$AAe?$AAt?$AA?5?$AAi?$AAn?$AAs?$AAe?$AAr?$AAt?$AA?5?$AAi?$AAt?$AAe?$AAr?$AAa?$AAt?$AAo?$AAr?$AA?5?$AAo?$AAu?$AAt?$AAs?$AAi?$AAd?$AAe@
        3 ??_C@_1FA@KEJGGFHL@?$AA?$CC?$AAv?$AAe?$AAc?$AAt?$AAo?$AAr?$AA?5?$AAi?$AAt?$AAe?$AAr?$AAa?$AAt?$AAo?$AAr?$AA?5?$AA?$CL?$AA?5?$AAo?$AAf?$AAf?$AAs?$AAe?$AAt?$AA?5?$AAo?$AAu?$AAt?$AA?5?$AAo?$AAf@
        3 ??_C@_1FA@MNMPLAPH@?$AAv?$AAe?$AAc?$AAt?$AAo?$AAr?$AA?$DM?$AAb?$AAo?$AAo?$AAl?$AA?$DO?$AA?5?$AAi?$AAt?$AAe?$AAr?$AAa?$AAt?$AAo?$AAr?$AA?5?$AAn?$AAo?$AAt?$AA?5?$AAd?$AAe?$AAc?$AAr?$AAe?$AAm@
        3 ??_C@_1FC@BLNGNFIG@?$AAc?$AAa?$AAn?$AAn?$AAo?$AAt?$AA?5?$AAs?$AAe?$AAe?$AAk?$AA?5?$AAs?$AAt?$AAr?$AAi?$AAn?$AAg?$AA?5?$AAi?$AAt?$AAe?$AAr?$AAa?$AAt?$AAo?$AAr?$AA?5?$AAb?$AAe?$AAf?$AAo@
        3 ??_C@_1FC@CPKBDNAP@?$AAv?$AAe?$AAc?$AAt?$AAo?$AAr?$AA?$DM?$AAb?$AAo?$AAo?$AAl?$AA?$DO?$AA?5?$AAi?$AAt?$AAe?$AAr?$AAa?$AAt?$AAo?$AAr?$AA?5?$AAn?$AAo?$AAt?$AA?5?$AAd?$AAe?$AAr?$AAe?$AAf?$AAe@
        3 ??_C@_1FE@GBLCDDEN@?$AA?$CC?$AAv?$AAe?$AAc?$AAt?$AAo?$AAr?$AA?$DM?$AAb?$AAo?$AAo?$AAl?$AA?$DO?$AA?5?$AAi?$AAt?$AAe?$AAr?$AAa?$AAt?$AAo?$AAr?$AA?5?$AAn?$AAo?$AAt?$AA?5?$AAi?$AAn?$AAc?$AAr?$AAe@
        3 ??_C@_1FE@JLFGKNKL@?$AA?$CC?$AAv?$AAe?$AAc?$AAt?$AAo?$AAr?$AA?$DM?$AAb?$AAo?$AAo?$AAl?$AA?$DO?$AA?5?$AAi?$AAt?$AAe?$AAr?$AAa?$AAt?$AAo?$AAr?$AA?5?$AAn?$AAo?$AAt?$AA?5?$AAd?$AAe?$AAc?$AAr?$AAe@
        3 ??_C@_1FE@PFCOPOEP@?$AAv?$AAe?$AAc?$AAt?$AAo?$AAr?$AA?$DM?$AAb?$AAo?$AAo?$AAl?$AA?$DO?$AA?5?$AAe?$AAr?$AAa?$AAs?$AAe?$AA?5?$AAi?$AAt?$AAe?$AAr?$AAa?$AAt?$AAo?$AAr?$AA?5?$AAo?$AAu?$AAt?$AAs@
        3 ??_C@_1FG@EJPDEFGL@?$AA?$CC?$AAc?$AAa?$AAn?$AAn?$AAo?$AAt?$AA?5?$AAs?$AAe?$AAe?$AAk?$AA?5?$AAs?$AAt?$AAr?$AAi?$AAn?$AAg?$AA?5?$AAi?$AAt?$AAe?$AAr?$AAa?$AAt?$AAo?$AAr?$AA?5?$AAb?$AAe?$AAf@
        3 ??_C@_1FG@MBDMEOE@?$AAv?$AAe?$AAc?$AAt?$AAo?$AAr?$AA?$DM?$AAb?$AAo?$AAo?$AAl?$AA?$DO?$AA?5?$AAi?$AAn?$AAs?$AAe?$AAr?$AAt?$AA?5?$AAi?$AAt?$AAe?$AAr?$AAa?$AAt?$AAo?$AAr?$AA?5?$AAo?$AAu?$AAt@
        3 ??_C@_1FG@NGDDIFE@?$AA?$CC?$AAv?$AAe?$AAc?$AAt?$AAo?$AAr?$AA?$DM?$AAb?$AAo?$AAo?$AAl?$AA?$DO?$AA?5?$AAi?$AAt?$AAe?$AAr?$AAa?$AAt?$AAo?$AAr?$AA?5?$AAn?$AAo?$AAt?$AA?5?$AAd?$AAe?$AAr?$AAe?$AAf@
        3 ??_C@_1FI@PDHDEBLO@?$AA?$CC?$AAv?$AAe?$AAc?$AAt?$AAo?$AAr?$AA?$DM?$AAb?$AAo?$AAo?$AAl?$AA?$DO?$AA?5?$AAe?$AAr?$AAa?$AAs?$AAe?$AA?5?$AAi?$AAt?$AAe?$AAr?$AAa?$AAt?$AAo?$AAr?$AA?5?$AAo?$AAu?$AAt@
        3 ??_C@_1FK@CHCEOHJH@?$AA?$CC?$AAv?$AAe?$AAc?$AAt?$AAo?$AAr?$AA?$DM?$AAb?$AAo?$AAo?$AAl?$AA?$DO?$AA?5?$AAi?$AAn?$AAs?$AAe?$AAr?$AAt?$AA?5?$AAi?$AAt?$AAe?$AAr?$AAa?$AAt?$AAo?$AAr?$AA?5?$AAo?$AAu@
        3 ??_C@_1FM@PHAGAKPF@?$AAc?$AAa?$AAn?$AAn?$AAo?$AAt?$AA?5?$AAs?$AAe?$AAe?$AAk?$AA?5?$AAv?$AAa?$AAl?$AAu?$AAe?$AA?9?$AAi?$AAn?$AAi?$AAt?$AAi?$AAa?$AAl?$AAi?$AAz?$AAe?$AAd?$AA?5?$AAs?$AAt@
        3 ??_C@_1GA@DPDCOHLH@?$AA?$CC?$AAc?$AAa?$AAn?$AAn?$AAo?$AAt?$AA?5?$AAs?$AAe?$AAe?$AAk?$AA?5?$AAv?$AAa?$AAl?$AAu?$AAe?$AA?9?$AAi?$AAn?$AAi?$AAt?$AAi?$AAa?$AAl?$AAi?$AAz?$AAe?$AAd?$AA?5?$AAs@
        3 ??_C@_1GK@BODEJLIN@?$AAs?$AAt?$AAd?$AA?3?$AA?3?$AAv?$AAe?$AAc?$AAt?$AAo?$AAr?$AA?$DM?$AAb?$AAo?$AAo?$AAl?$AA?0?$AAc?$AAl?$AAa?$AAs?$AAs?$AA?5?$AAs?$AAt?$AAd?$AA?3?$AA?3?$AAa?$AAl?$AAl?$AAo@
        3 ??_C@_1GK@EPFFCEAH@?$AAc?$AAa?$AAn?$AAn?$AAo?$AAt?$AA?5?$AAd?$AAe?$AAr?$AAe?$AAf?$AAe?$AAr?$AAe?$AAn?$AAc?$AAe?$AA?5?$AAv?$AAa?$AAl?$AAu?$AAe?$AA?9?$AAi?$AAn?$AAi?$AAt?$AAi?$AAa?$AAl@
        3 ??_C@_1GO@PNALIMBD@?$AA?$CC?$AAc?$AAa?$AAn?$AAn?$AAo?$AAt?$AA?5?$AAd?$AAe?$AAr?$AAe?$AAf?$AAe?$AAr?$AAe?$AAn?$AAc?$AAe?$AA?5?$AAv?$AAa?$AAl?$AAu?$AAe?$AA?9?$AAi?$AAn?$AAi?$AAt?$AAi?$AAa@
        3 ??_C@_1HC@EBMIINGH@?$AAs?$AAt?$AAd?$AA?3?$AA?3?$AAv?$AAe?$AAc?$AAt?$AAo?$AAr?$AA?$DM?$AAb?$AAo?$AAo?$AAl?$AA?0?$AAc?$AAl?$AAa?$AAs?$AAs?$AA?5?$AAs?$AAt?$AAd?$AA?3?$AA?3?$AAa?$AAl?$AAl?$AAo@
        3 ??_C@_1IK@JDPLIGFN@?$AAs?$AAt?$AAd?$AA?3?$AA?3?$AAv?$AAe?$AAc?$AAt?$AAo?$AAr?$AA?$DM?$AAu?$AAn?$AAs?$AAi?$AAg?$AAn?$AAe?$AAd?$AA?5?$AAi?$AAn?$AAt?$AA?0?$AAc?$AAl?$AAa?$AAs?$AAs?$AA?5?$AAs@
        3 ??_C@_1JC@EFBCGKIE@?$AAs?$AAt?$AAr?$AAi?$AAn?$AAg?$AA?5?$AAi?$AAt?$AAe?$AAr?$AAa?$AAt?$AAo?$AAr?$AAs?$AA?5?$AAi?$AAn?$AAc?$AAo?$AAm?$AAp?$AAa?$AAt?$AAi?$AAb?$AAl?$AAe?$AA?5?$AA?$CI?$AAe@
        3 ??_C@_1JG@ILDNFCDK@?$AAs?$AAt?$AAd?$AA?3?$AA?3?$AAv?$AAe?$AAc?$AAt?$AAo?$AAr?$AA?$DM?$AAu?$AAn?$AAs?$AAi?$AAg?$AAn?$AAe?$AAd?$AA?5?$AAi?$AAn?$AAt?$AA?0?$AAc?$AAl?$AAa?$AAs?$AAs?$AA?5?$AAs@
        3 ??_C@_1JM@EIPCMFMM@?$AA?$CC?$AAs?$AAt?$AAr?$AAi?$AAn?$AAg?$AA?5?$AAi?$AAt?$AAe?$AAr?$AAa?$AAt?$AAo?$AAr?$AAs?$AA?5?$AAi?$AAn?$AAc?$AAo?$AAm?$AAp?$AAa?$AAt?$AAi?$AAb?$AAl?$AAe?$AA?5?$AA?$CI@
        3 ??_C@_1KK@GJPIMLCF@?$AAc?$AAa?$AAn?$AAn?$AAo?$AAt?$AA?5?$AAd?$AAe?$AAr?$AAe?$AAf?$AAe?$AAr?$AAe?$AAn?$AAc?$AAe?$AA?5?$AAs?$AAt?$AAr?$AAi?$AAn?$AAg?$AA?5?$AAi?$AAt?$AAe?$AAr?$AAa?$AAt@
        3 ??_C@_1KO@CMPBFHAM@?$AA?$CC?$AAc?$AAa?$AAn?$AAn?$AAo?$AAt?$AA?5?$AAd?$AAe?$AAr?$AAe?$AAf?$AAe?$AAr?$AAe?$AAn?$AAc?$AAe?$AA?5?$AAs?$AAt?$AAr?$AAi?$AAn?$AAg?$AA?5?$AAi?$AAt?$AAe?$AAr?$AAa@
        3 ??_C@_1LG@CHICOEJ@?$AAs?$AAt?$AAd?$AA?3?$AA?3?$AA_?$AAV?$AAb?$AA_?$AAr?$AAe?$AAf?$AAe?$AAr?$AAe?$AAn?$AAc?$AAe?$AA?$DM?$AAs?$AAt?$AAr?$AAu?$AAc?$AAt?$AA?5?$AAs?$AAt?$AAd?$AA?3?$AA?3?$AA_@
        3 ??_C@_1LK@CMPKBEP@?$AAs?$AAt?$AAd?$AA?3?$AA?3?$AA_?$AAV?$AAb?$AA_?$AAc?$AAo?$AAn?$AAs?$AAt?$AA_?$AAi?$AAt?$AAe?$AAr?$AAa?$AAt?$AAo?$AAr?$AA?$DM?$AAs?$AAt?$AAr?$AAu?$AAc?$AAt?$AA?5?$AAs@
        3 ??_C@_1LK@PDANEEFN@?$AAs?$AAt?$AAd?$AA?3?$AA?3?$AA_?$AAV?$AAb?$AA_?$AAc?$AAo?$AAn?$AAs?$AAt?$AA_?$AAi?$AAt?$AAe?$AAr?$AAa?$AAt?$AAo?$AAr?$AA?$DM?$AAs?$AAt?$AAr?$AAu?$AAc?$AAt?$AA?5?$AAs@
        3 ??_C@_1LO@NPPEKPAI@?$AAs?$AAt?$AAd?$AA?3?$AA?3?$AAb?$AAa?$AAs?$AAi?$AAc?$AA_?$AAs?$AAt?$AAr?$AAi?$AAn?$AAg?$AA?$DM?$AAc?$AAh?$AAa?$AAr?$AA?0?$AAs?$AAt?$AAr?$AAu?$AAc?$AAt?$AA?5?$AAs?$AAt@
        3 ??_C@_1M@BPFMAOAO@?$AAp?$AAu?$AAn?$AAc?$AAt?$AA?$AA@
        3 ??_C@_1M@DHGLHBMI@?$AAa?$AAl?$AAp?$AAh?$AAa?$AA?$AA@
        3 ??_C@_1M@EJAAJBPE@?$AAb?$AAl?$AAa?$AAn?$AAk?$AA?$AA@
        3 ??_C@_1M@ELNLAPLA@?$AAp?$AAr?$AAi?$AAn?$AAt?$AA?$AA@
        3 ??_C@_1M@JDAEIBKG@?$AAd?$AAi?$AAg?$AAi?$AAt?$AA?$AA@
        3 ??_C@_1M@KLMEPMCM@?$AAa?$AAl?$AAn?$AAu?$AAm?$AA?$AA@
        3 ??_C@_1M@LGAECJJD@?$AAl?$AAo?$AAw?$AAe?$AAr?$AA?$AA@
        3 ??_C@_1M@LMIMILA@?$AAc?$AAn?$AAt?$AAr?$AAl?$AA?$AA@
        3 ??_C@_1M@LPGODFOM@?$AAs?$AAp?$AAa?$AAc?$AAe?$AA?$AA@
        3 ??_C@_1M@MDKNJLLK@?$AAg?$AAr?$AAa?$AAp?$AAh?$AA?$AA@
        3 ??_C@_1M@PLNFCNIC@?$AAu?$AAp?$AAp?$AAe?$AAr?$AA?$AA@
        3 ??_C@_1MA@BDELDFHB@?$AAs?$AAt?$AAd?$AA?3?$AA?3?$AA_?$AAS?$AAt?$AAr?$AAi?$AAn?$AAg?$AA_?$AAc?$AAo?$AAn?$AAs?$AAt?$AA_?$AAi?$AAt?$AAe?$AAr?$AAa?$AAt?$AAo?$AAr?$AA?$DM?$AAc?$AAl?$AAa?$AAs@
        3 ??_C@_1MA@IEHFCMBH@?$AAs?$AAt?$AAd?$AA?3?$AA?3?$AA_?$AAV?$AAb?$AA_?$AAc?$AAo?$AAn?$AAs?$AAt?$AA_?$AAi?$AAt?$AAe?$AAr?$AAa?$AAt?$AAo?$AAr?$AA?$DM?$AAs?$AAt?$AAr?$AAu?$AAc?$AAt?$AA?5?$AAs@
        3 ??_C@_1MG@GDGHDIKC@?$AAs?$AAt?$AAd?$AA?3?$AA?3?$AA_?$AAS?$AAt?$AAr?$AAi?$AAn?$AAg?$AA_?$AAc?$AAo?$AAn?$AAs?$AAt?$AA_?$AAi?$AAt?$AAe?$AAr?$AAa?$AAt?$AAo?$AAr?$AA?$DM?$AAc?$AAl?$AAa?$AAs@
        3 ??_C@_1MG@JDAEDHMO@?$AAs?$AAt?$AAd?$AA?3?$AA?3?$AAv?$AAe?$AAc?$AAt?$AAo?$AAr?$AA?$DM?$AAs?$AAt?$AAr?$AAu?$AAc?$AAt?$AA?5?$AAs?$AAt?$AAd?$AA?3?$AA?3?$AA_?$AAL?$AAo?$AAo?$AAp?$AA_?$AAv?$AAa@
        3 ??_C@_1MI@HNCOPGEL@?$AAs?$AAt?$AAd?$AA?3?$AA?3?$AA_?$AAS?$AAt?$AAr?$AAi?$AAn?$AAg?$AA_?$AAc?$AAo?$AAn?$AAs?$AAt?$AA_?$AAi?$AAt?$AAe?$AAr?$AAa?$AAt?$AAo?$AAr?$AA?$DM?$AAc?$AAl?$AAa?$AAs@
        3 ??_C@_1MM@CLNCFHGA@?$AAc?$AA?3?$AA?2?$AAp?$AAr?$AAo?$AAg?$AAr?$AAa?$AAm?$AA?5?$AAf?$AAi?$AAl?$AAe?$AAs?$AA?5?$AA?$CI?$AAx?$AA8?$AA6?$AA?$CJ?$AA?2?$AAm?$AAi?$AAc?$AAr?$AAo?$AAs?$AAo?$AAf?$AAt@
        3 ??_C@_1MM@JPKBOFNK@?$AAc?$AA?3?$AA?2?$AAp?$AAr?$AAo?$AAg?$AAr?$AAa?$AAm?$AA?5?$AAf?$AAi?$AAl?$AAe?$AAs?$AA?5?$AA?$CI?$AAx?$AA8?$AA6?$AA?$CJ?$AA?2?$AAm?$AAi?$AAc?$AAr?$AAo?$AAs?$AAo?$AAf?$AAt@
        3 ??_C@_1MO@MOPCOMJD@?$AAc?$AA?3?$AA?2?$AAp?$AAr?$AAo?$AAg?$AAr?$AAa?$AAm?$AA?5?$AAf?$AAi?$AAl?$AAe?$AAs?$AA?5?$AA?$CI?$AAx?$AA8?$AA6?$AA?$CJ?$AA?2?$AAm?$AAi?$AAc?$AAr?$AAo?$AAs?$AAo?$AAf?$AAt@
        3 ??_C@_1MO@OPEBMAMC@?$AAc?$AA?3?$AA?2?$AAp?$AAr?$AAo?$AAg?$AAr?$AAa?$AAm?$AA?5?$AAf?$AAi?$AAl?$AAe?$AAs?$AA?5?$AA?$CI?$AAx?$AA8?$AA6?$AA?$CJ?$AA?2?$AAm?$AAi?$AAc?$AAr?$AAo?$AAs?$AAo?$AAf?$AAt@
        3 ??_C@_1NA@LNEOGJKF@?$AAc?$AA?3?$AA?2?$AAp?$AAr?$AAo?$AAg?$AAr?$AAa?$AAm?$AA?5?$AAf?$AAi?$AAl?$AAe?$AAs?$AA?5?$AA?$CI?$AAx?$AA8?$AA6?$AA?$CJ?$AA?2?$AAm?$AAi?$AAc?$AAr?$AAo?$AAs?$AAo?$AAf?$AAt@
        3 ??_C@_1NC@ELHHIENF@?$AAc?$AA?3?$AA?2?$AAp?$AAr?$AAo?$AAg?$AAr?$AAa?$AAm?$AA?5?$AAf?$AAi?$AAl?$AAe?$AAs?$AA?5?$AA?$CI?$AAx?$AA8?$AA6?$AA?$CJ?$AA?2?$AAm?$AAi?$AAc?$AAr?$AAo?$AAs?$AAo?$AAf?$AAt@
        3 ??_C@_1NC@LGJMFBHG@?$AAc?$AA?3?$AA?2?$AAp?$AAr?$AAo?$AAg?$AAr?$AAa?$AAm?$AA?5?$AAf?$AAi?$AAl?$AAe?$AAs?$AA?5?$AA?$CI?$AAx?$AA8?$AA6?$AA?$CJ?$AA?2?$AAm?$AAi?$AAc?$AAr?$AAo?$AAs?$AAo?$AAf?$AAt@
        3 ??_C@_1NE@HIBBAKHC@?$AAc?$AA?3?$AA?2?$AAp?$AAr?$AAo?$AAg?$AAr?$AAa?$AAm?$AA?5?$AAf?$AAi?$AAl?$AAe?$AAs?$AA?5?$AA?$CI?$AAx?$AA8?$AA6?$AA?$CJ?$AA?2?$AAm?$AAi?$AAc?$AAr?$AAo?$AAs?$AAo?$AAf?$AAt@
        3 ??_C@_1NI@FGKEJBDM@?$AAs?$AAt?$AAd?$AA?3?$AA?3?$AA_?$AAV?$AAe?$AAc?$AAt?$AAo?$AAr?$AA_?$AAc?$AAo?$AAn?$AAs?$AAt?$AA_?$AAi?$AAt?$AAe?$AAr?$AAa?$AAt?$AAo?$AAr?$AA?$DM?$AAc?$AAl?$AAa?$AAs@
        3 ??_C@_1O@OAFMJDHN@?$AAx?$AAd?$AAi?$AAg?$AAi?$AAt?$AA?$AA@
        3 ??_C@_1PA@LODBIMGG@?$AAs?$AAt?$AAd?$AA?3?$AA?3?$AAv?$AAe?$AAc?$AAt?$AAo?$AAr?$AA?$DM?$AAc?$AAl?$AAa?$AAs?$AAs?$AA?5?$AAs?$AAt?$AAd?$AA?3?$AA?3?$AAs?$AAu?$AAb?$AA_?$AAm?$AAa?$AAt?$AAc?$AAh@
        3 ??_C@_1PG@GALDDHKE@?$AAc?$AAa?$AAn?$AAn?$AAo?$AAt?$AA?5?$AAs?$AAe?$AAe?$AAk?$AA?5?$AAs?$AAt?$AAr?$AAi?$AAn?$AAg?$AA?5?$AAi?$AAt?$AAe?$AAr?$AAa?$AAt?$AAo?$AAr?$AA?5?$AAb?$AAe?$AAc?$AAa@
        3 ??_D?$basic_ifstream@DU?$char_traits@D@std@@@std@@QEAAXXZ
        3 ??_D?$basic_ostringstream@DU?$char_traits@D@std@@V?$allocator@D@2@@std@@QEAAXXZ
        3 ??_E?$basic_ifstream@DU?$char_traits@D@std@@@std@@$4PPPPPPPM@A@EAAPEAXI@Z
        3 ??_E?$basic_ostringstream@DU?$char_traits@D@std@@V?$allocator@D@2@@std@@$4PPPPPPPM@A@EAAPEAXI@Z
        3 ??_G?$Tree@V?$basic_string@DU?$char_traits@D@std@@V?$allocator@D@2@@std@@V12@@@QEAAPEAXI@Z
        3 ??_G?$_Buf@D@std@@QEAAPEAXI@Z
        3 ??_G?$_Node_class@DV?$regex_traits@D@std@@@std@@UEAAPEAXI@Z
        3 ??_G?$_Node_str@D@std@@UEAAPEAXI@Z
        3 ??_G?$_Sequence@D@std@@QEAAPEAXI@Z
        3 ??_G?$basic_filebuf@DU?$char_traits@D@std@@@std@@UEAAPEAXI@Z
        3 ??_G?$basic_ifstream@DU?$char_traits@D@std@@@std@@UEAAPEAXI@Z
        3 ??_G?$basic_ostringstream@DU?$char_traits@D@std@@V?$allocator@D@2@@std@@UEAAPEAXI@Z
        3 ??_G?$basic_string@DU?$char_traits@D@std@@V?$allocator@D@2@@std@@QEAAPEAXI@Z
        3 ??_G?$basic_stringbuf@DU?$char_traits@D@std@@V?$allocator@D@2@@std@@UEAAPEAXI@Z
        3 ??_G?$collate@D@std@@MEAAPEAXI@Z
        3 ??_G?$pair@$$CBV?$basic_string@DU?$char_traits@D@std@@V?$allocator@D@2@@std@@V12@@std@@QEAAPEAXI@Z
        3 ??_G_Node_assert@std@@UEAAPEAXI@Z
        3 ??_G_Node_back@std@@UEAAPEAXI@Z
        3 ??_G_Node_base@std@@UEAAPEAXI@Z
        3 ??_G_Node_capture@std@@UEAAPEAXI@Z
        3 ??_G_Node_end_group@std@@UEAAPEAXI@Z
        3 ??_G_Node_end_rep@std@@UEAAPEAXI@Z
        3 ??_G_Node_endif@std@@UEAAPEAXI@Z
        3 ??_G_Node_if@std@@UEAAPEAXI@Z
        3 ??_G_Node_rep@std@@UEAAPEAXI@Z
        3 ??_G_Root_node@std@@UEAAPEAXI@Z
        3 ??_Gbad_cast@std@@UEAAPEAXI@Z
        3 ??_Gexception@std@@UEAAPEAXI@Z
        3 ??_R0?AU_Crt_new_delete@std@@@8
        3 ??_R0?AV?$_Iosb@H@std@@@8
        3 ??_R0?AV?$_Node_class@DV?$regex_traits@D@std@@@std@@@8
        3 ??_R0?AV?$_Node_str@D@std@@@8
        3 ??_R0?AV?$basic_filebuf@DU?$char_traits@D@std@@@std@@@8
        3 ??_R0?AV?$basic_ifstream@DU?$char_traits@D@std@@@std@@@8
        3 ??_R0?AV?$basic_ios@DU?$char_traits@D@std@@@std@@@8
        3 ??_R0?AV?$basic_istream@DU?$char_traits@D@std@@@std@@@8
        3 ??_R0?AV?$basic_ostream@DU?$char_traits@D@std@@@std@@@8
        3 ??_R0?AV?$basic_ostringstream@DU?$char_traits@D@std@@V?$allocator@D@2@@std@@@8
        3 ??_R0?AV?$basic_streambuf@DU?$char_traits@D@std@@@std@@@8
        3 ??_R0?AV?$basic_stringbuf@DU?$char_traits@D@std@@V?$allocator@D@2@@std@@@8
        3 ??_R0?AV?$collate@D@std@@@8
        3 ??_R0?AV_Facet_base@std@@@8
        3 ??_R0?AV_Node_assert@std@@@8
        3 ??_R0?AV_Node_back@std@@@8
        3 ??_R0?AV_Node_base@std@@@8
        3 ??_R0?AV_Node_capture@std@@@8
        3 ??_R0?AV_Node_end_group@std@@@8
        3 ??_R0?AV_Node_end_rep@std@@@8
        3 ??_R0?AV_Node_endif@std@@@8
        3 ??_R0?AV_Node_if@std@@@8
        3 ??_R0?AV_Node_rep@std@@@8
        3 ??_R0?AV_Root_node@std@@@8
        3 ??_R0?AVbad_cast@std@@@8
        3 ??_R0?AVexception@std@@@8
        3 ??_R0?AVfacet@locale@std@@@8
        3 ??_R0?AVios_base@std@@@8
        3 ??_R17?0A@EA@?$_Iosb@H@std@@8
        3 ??_R17?0A@EA@_Crt_new_delete@std@@8
        3 ??_R17A@3EA@?$_Iosb@H@std@@8
        3 ??_R1A@?0A@EA@?$_Iosb@H@std@@8
        3 ??_R1A@?0A@EA@?$_Node_class@DV?$regex_traits@D@std@@@std@@8
        3 ??_R1A@?0A@EA@?$_Node_str@D@std@@8
        3 ??_R1A@?0A@EA@?$basic_filebuf@DU?$char_traits@D@std@@@std@@8
        3 ??_R1A@?0A@EA@?$basic_ifstream@DU?$char_traits@D@std@@@std@@8
        3 ??_R1A@?0A@EA@?$basic_ios@DU?$char_traits@D@std@@@std@@8
        3 ??_R1A@?0A@EA@?$basic_istream@DU?$char_traits@D@std@@@std@@8
        3 ??_R1A@?0A@EA@?$basic_ostream@DU?$char_traits@D@std@@@std@@8
        3 ??_R1A@?0A@EA@?$basic_ostringstream@DU?$char_traits@D@std@@V?$allocator@D@2@@std@@8
        3 ??_R1A@?0A@EA@?$basic_streambuf@DU?$char_traits@D@std@@@std@@8
        3 ??_R1A@?0A@EA@?$basic_stringbuf@DU?$char_traits@D@std@@V?$allocator@D@2@@std@@8
        3 ??_R1A@?0A@EA@?$collate@D@std@@8
        3 ??_R1A@?0A@EA@_Crt_new_delete@std@@8
        3 ??_R1A@?0A@EA@_Facet_base@std@@8
        3 ??_R1A@?0A@EA@_Node_assert@std@@8
        3 ??_R1A@?0A@EA@_Node_back@std@@8
        3 ??_R1A@?0A@EA@_Node_base@std@@8
        3 ??_R1A@?0A@EA@_Node_capture@std@@8
        3 ??_R1A@?0A@EA@_Node_end_group@std@@8
        3 ??_R1A@?0A@EA@_Node_end_rep@std@@8
        3 ??_R1A@?0A@EA@_Node_endif@std@@8
        3 ??_R1A@?0A@EA@_Node_if@std@@8
        3 ??_R1A@?0A@EA@_Node_rep@std@@8
        3 ??_R1A@?0A@EA@_Root_node@std@@8
        3 ??_R1A@?0A@EA@bad_cast@std@@8
        3 ??_R1A@?0A@EA@exception@std@@8
        3 ??_R1A@?0A@EA@facet@locale@std@@8
        3 ??_R1A@?0A@EA@ios_base@std@@8
        3 ??_R1A@A@3EA@ios_base@std@@8
        3 ??_R1A@A@3FA@?$basic_ios@DU?$char_traits@D@std@@@std@@8
        3 ??_R2?$_Iosb@H@std@@8
        3 ??_R2?$_Node_class@DV?$regex_traits@D@std@@@std@@8
        3 ??_R2?$_Node_str@D@std@@8
        3 ??_R2?$basic_filebuf@DU?$char_traits@D@std@@@std@@8
        3 ??_R2?$basic_ifstream@DU?$char_traits@D@std@@@std@@8
        3 ??_R2?$basic_ios@DU?$char_traits@D@std@@@std@@8
        3 ??_R2?$basic_istream@DU?$char_traits@D@std@@@std@@8
        3 ??_R2?$basic_ostream@DU?$char_traits@D@std@@@std@@8
        3 ??_R2?$basic_ostringstream@DU?$char_traits@D@std@@V?$allocator@D@2@@std@@8
        3 ??_R2?$basic_streambuf@DU?$char_traits@D@std@@@std@@8
        3 ??_R2?$basic_stringbuf@DU?$char_traits@D@std@@V?$allocator@D@2@@std@@8
        3 ??_R2?$collate@D@std@@8
        3 ??_R2_Crt_new_delete@std@@8
        3 ??_R2_Facet_base@std@@8
        3 ??_R2_Node_assert@std@@8
        3 ??_R2_Node_back@std@@8
        3 ??_R2_Node_base@std@@8
        3 ??_R2_Node_capture@std@@8
        3 ??_R2_Node_end_group@std@@8
        3 ??_R2_Node_end_rep@std@@8
        3 ??_R2_Node_endif@std@@8
        3 ??_R2_Node_if@std@@8
        3 ??_R2_Node_rep@std@@8
        3 ??_R2_Root_node@std@@8
        3 ??_R2bad_cast@std@@8
        3 ??_R2exception@std@@8
        3 ??_R2facet@locale@std@@8
        3 ??_R2ios_base@std@@8
        3 ??_R3?$_Iosb@H@std@@8
        3 ??_R3?$_Node_class@DV?$regex_traits@D@std@@@std@@8
        3 ??_R3?$_Node_str@D@std@@8
        3 ??_R3?$basic_filebuf@DU?$char_traits@D@std@@@std@@8
        3 ??_R3?$basic_ifstream@DU?$char_traits@D@std@@@std@@8
        3 ??_R3?$basic_ios@DU?$char_traits@D@std@@@std@@8
        3 ??_R3?$basic_istream@DU?$char_traits@D@std@@@std@@8
        3 ??_R3?$basic_ostream@DU?$char_traits@D@std@@@std@@8
        3 ??_R3?$basic_ostringstream@DU?$char_traits@D@std@@V?$allocator@D@2@@std@@8
        3 ??_R3?$basic_streambuf@DU?$char_traits@D@std@@@std@@8
        3 ??_R3?$basic_stringbuf@DU?$char_traits@D@std@@V?$allocator@D@2@@std@@8
        3 ??_R3?$collate@D@std@@8
        3 ??_R3_Crt_new_delete@std@@8
        3 ??_R3_Facet_base@std@@8
        3 ??_R3_Node_assert@std@@8
        3 ??_R3_Node_back@std@@8
        3 ??_R3_Node_base@std@@8
        3 ??_R3_Node_capture@std@@8
        3 ??_R3_Node_end_group@std@@8
        3 ??_R3_Node_end_rep@std@@8
        3 ??_R3_Node_endif@std@@8
        3 ??_R3_Node_if@std@@8
        3 ??_R3_Node_rep@std@@8
        3 ??_R3_Root_node@std@@8
        3 ??_R3bad_cast@std@@8
        3 ??_R3exception@std@@8
        3 ??_R3facet@locale@std@@8
        3 ??_R3ios_base@std@@8
        3 ??_R4?$_Node_class@DV?$regex_traits@D@std@@@std@@6B@
        3 ??_R4?$_Node_str@D@std@@6B@
        3 ??_R4?$basic_filebuf@DU?$char_traits@D@std@@@std@@6B@
        3 ??_R4?$basic_ifstream@DU?$char_traits@D@std@@@std@@6B@
        3 ??_R4?$basic_ostringstream@DU?$char_traits@D@std@@V?$allocator@D@2@@std@@6B@
        3 ??_R4?$basic_stringbuf@DU?$char_traits@D@std@@V?$allocator@D@2@@std@@6B@
        3 ??_R4?$collate@D@std@@6B@
        3 ??_R4_Node_assert@std@@6B@
        3 ??_R4_Node_back@std@@6B@
        3 ??_R4_Node_base@std@@6B@
        3 ??_R4_Node_capture@std@@6B@
        3 ??_R4_Node_end_group@std@@6B@
        3 ??_R4_Node_end_rep@std@@6B@
        3 ??_R4_Node_endif@std@@6B@
        3 ??_R4_Node_if@std@@6B@
        3 ??_R4_Node_rep@std@@6B@
        3 ??_R4_Root_node@std@@6B@
        3 ??_R4bad_cast@std@@6B@
        3 ??_R4exception@std@@6B@
        3 ?XMLParser@Tools@@SAPEAV?$Tree@V?$basic_string@DU?$char_traits@D@std@@V?$allocator@D@2@@std@@V12@@@V?$basic_string@DU?$char_traits@D@std@@V?$allocator@D@2@@std@@0AEAV?$vector@V?$basic_string@DU?$char_traits@D@std@@V?$allocator@D@2@@std@@V?$allocator@V?$basic_string@DU?$char_traits@D@std@@V?$allocator@D@2@@std@@@2@@4@@Z
        3 ?_Add_backreference@?$_Builder@PEBDDV?$regex_traits@D@std@@@std@@QEAAXI@Z
        3 ?_Add_bol@?$_Builder@PEBDDV?$regex_traits@D@std@@@std@@QEAAXXZ
        3 ?_Add_char@?$_Builder@PEBDDV?$regex_traits@D@std@@@std@@QEAAXD@Z
        3 ?_Add_char_to_array@?$_Builder@PEBDDV?$regex_traits@D@std@@@std@@AEAAXD@Z
        3 ?_Add_char_to_bitmap@?$_Builder@PEBDDV?$regex_traits@D@std@@@std@@AEAAXD@Z
        3 ?_Add_char_to_class@?$_Builder@PEBDDV?$regex_traits@D@std@@@std@@QEAAXD@Z
        3 ?_Add_class@?$_Builder@PEBDDV?$regex_traits@D@std@@@std@@QEAAXXZ
        3 ?_Add_coll@?$_Builder@PEBDDV?$regex_traits@D@std@@@std@@QEAAXPEBD0_J@Z
        3 ?_Add_dot@?$_Builder@PEBDDV?$regex_traits@D@std@@@std@@QEAAXXZ
        3 ?_Add_elts@?$_Builder@PEBDDV?$regex_traits@D@std@@@std@@AEAAXPEAV?$_Node_class@DV?$regex_traits@D@std@@@2@F_N@Z
        3 ?_Add_eol@?$_Builder@PEBDDV?$regex_traits@D@std@@@std@@QEAAXXZ
        3 ?_Add_equiv@?$_Builder@PEBDDV?$regex_traits@D@std@@@std@@QEAAXPEBD0_J@Z
        3 ?_Add_named_class@?$_Builder@PEBDDV?$regex_traits@D@std@@@std@@QEAAXF_N@Z
        3 ?_Add_range@?$_Builder@PEBDDV?$regex_traits@D@std@@@std@@QEAAXDD@Z
        3 ?_Add_rep@?$_Builder@PEBDDV?$regex_traits@D@std@@@std@@QEAAXHH_N@Z
        3 ?_Add_str_node@?$_Builder@PEBDDV?$regex_traits@D@std@@@std@@AEAAXXZ
        3 ?_Add_wbound@?$_Builder@PEBDDV?$regex_traits@D@std@@@std@@QEAAXXZ
        3 ?_Adopt@_Iterator_base12@std@@QEAAXPEBU_Container_base12@2@@Z
        3 ?_Advance@?$_Vb_iter_base@U?$_Wrap_alloc@V?$allocator@I@std@@@std@@@std@@QEAAX_K@Z
        3 ?_Alloc_proxy@?$_String_alloc@U?$_String_base_types@DV?$allocator@D@std@@@std@@@std@@QEAAXXZ
        3 ?_Alloc_proxy@?$_Tree_comp_alloc@V?$_Tmap_traits@V?$basic_string@DU?$char_traits@D@std@@V?$allocator@D@2@@std@@V12@U?$less@V?$basic_string@DU?$char_traits@D@std@@V?$allocator@D@2@@std@@@2@V?$allocator@U?$pair@$$CBV?$basic_string@DU?$char_traits@D@std@@V?$allocator@D@2@@std@@V12@@std@@@2@$0A@@std@@@std@@QEAAXXZ
        3 ?_Alloc_proxy@?$_Vb_val@V?$allocator@_N@std@@@std@@QEAAXXZ
        3 ?_Alloc_proxy@?$_Vector_alloc@U?$_Vec_base_types@DV?$allocator@D@std@@@std@@@std@@QEAAXXZ
        3 ?_Alloc_proxy@?$_Vector_alloc@U?$_Vec_base_types@IV?$allocator@I@std@@@std@@@std@@QEAAXXZ
        3 ?_Alloc_proxy@?$_Vector_alloc@U?$_Vec_base_types@U_Grp_t@?$_Tgt_state_t@PEBD@std@@V?$allocator@U_Grp_t@?$_Tgt_state_t@PEBD@std@@@3@@std@@@std@@QEAAXXZ
        3 ?_Alloc_proxy@?$_Vector_alloc@U?$_Vec_base_types@U_Loop_vals_t@std@@V?$allocator@U_Loop_vals_t@std@@@2@@std@@@std@@QEAAXXZ
        3 ?_Alloc_proxy@?$_Vector_alloc@U?$_Vec_base_types@V?$basic_string@DU?$char_traits@D@std@@V?$allocator@D@2@@std@@V?$allocator@V?$basic_string@DU?$char_traits@D@std@@V?$allocator@D@2@@std@@@2@@std@@@std@@QEAAXXZ
        3 ?_Allocate@std@@YAPEAX_K0_N@Z
        3 ?_Alternative@?$_Parser@PEBDDV?$regex_traits@D@std@@@std@@AEAA_NXZ
        3 ?_Assign_rv_contents@?$basic_string@DU?$char_traits@D@std@@V?$allocator@D@2@@std@@QEAAX$$QEAV12@U?$integral_constant@_N$00@2@@Z
        3 ?_Assign_rv_contents_with_alloc_always_equal@?$basic_string@DU?$char_traits@D@std@@V?$allocator@D@2@@std@@QEAAX$$QEAV12@U?$integral_constant@_N$00@2@@Z
        3 ?_At@?$_Buf@D@std@@QEBADI@Z
        3 ?_At@?$match_results@PEBDV?$allocator@V?$sub_match@PEBD@std@@@std@@@std@@QEAAAEAV?$sub_match@PEBD@2@I@Z
        3 ?_AtomEscape@?$_Parser@PEBDDV?$regex_traits@D@std@@@std@@AEAAXXZ
        3 ?_Become_small@?$basic_string@DU?$char_traits@D@std@@V?$allocator@D@2@@std@@QEAAXXZ
        3 ?_Beg_expr@?$_Builder@PEBDDV?$regex_traits@D@std@@@std@@AEBA_NPEAV_Node_base@2@@Z
        3 ?_Beg_expr@?$_Builder@PEBDDV?$regex_traits@D@std@@@std@@QEBA_NXZ
        3 ?_Begin_assert_group@?$_Builder@PEBDDV?$regex_traits@D@std@@@std@@QEAAPEAV_Node_base@2@_N@Z
        3 ?_Begin_capture_group@?$_Builder@PEBDDV?$regex_traits@D@std@@@std@@QEAAPEAV_Node_base@2@I@Z
        3 ?_Begin_group@?$_Builder@PEBDDV?$regex_traits@D@std@@@std@@QEAAPEAV_Node_base@2@XZ
        3 ?_Begin_if@?$_Builder@PEBDDV?$regex_traits@D@std@@@std@@QEAAPEAV_Node_base@2@PEAV32@@Z
        3 ?_Better_match@?$_Matcher@PEBDDV?$regex_traits@D@std@@PEBD@std@@AEAA_NXZ
        3 ?_Buy@?$vector@DV?$allocator@D@std@@@std@@AEAA_N_K@Z
        3 ?_Buy@?$vector@IV?$allocator@I@std@@@std@@AEAA_N_K@Z
        3 ?_Buy@?$vector@U_Grp_t@?$_Tgt_state_t@PEBD@std@@V?$allocator@U_Grp_t@?$_Tgt_state_t@PEBD@std@@@3@@std@@AEAA_N_K@Z
        3 ?_Buyheadnode@?$_Tree_comp_alloc@V?$_Tmap_traits@V?$basic_string@DU?$char_traits@D@std@@V?$allocator@D@2@@std@@V12@U?$less@V?$basic_string@DU?$char_traits@D@std@@V?$allocator@D@2@@std@@@2@V?$allocator@U?$pair@$$CBV?$basic_string@DU?$char_traits@D@std@@V?$allocator@D@2@@std@@V12@@std@@@2@$0A@@std@@@std@@QEAAPEAU?$_Tree_node@U?$pair@$$CBV?$basic_string@DU?$char_traits@D@std@@V?$allocator@D@2@@std@@V12@@std@@PEAX@2@XZ
        3 ?_Buynode0@?$_Tree_comp_alloc@V?$_Tmap_traits@V?$basic_string@DU?$char_traits@D@std@@V?$allocator@D@2@@std@@V12@U?$less@V?$basic_string@DU?$char_traits@D@std@@V?$allocator@D@2@@std@@@2@V?$allocator@U?$pair@$$CBV?$basic_string@DU?$char_traits@D@std@@V?$allocator@D@2@@std@@V12@@std@@@2@$0A@@std@@@std@@QEAAPEAU?$_Tree_node@U?$pair@$$CBV?$basic_string@DU?$char_traits@D@std@@V?$allocator@D@2@@std@@V12@@std@@PEAX@2@XZ
        3 ?_Cache_locale@?$_Regex_traits@D@std@@AEAAXXZ
        3 ?_Calculate_growth@?$basic_string@DU?$char_traits@D@std@@V?$allocator@D@2@@std@@QEBA_K_K@Z
        3 ?_Calculate_growth@?$vector@IV?$allocator@I@std@@@std@@AEBA_K_K@Z
        3 ?_Calculate_growth@?$vector@U_Grp_t@?$_Tgt_state_t@PEBD@std@@V?$allocator@U_Grp_t@?$_Tgt_state_t@PEBD@std@@@3@@std@@AEBA_K_K@Z
        3 ?_Calculate_growth@?$vector@U_Loop_vals_t@std@@V?$allocator@U_Loop_vals_t@std@@@2@@std@@AEBA_K_K@Z
        3 ?_Calculate_growth@?$vector@V?$basic_string@DU?$char_traits@D@std@@V?$allocator@D@2@@std@@V?$allocator@V?$basic_string@DU?$char_traits@D@std@@V?$allocator@D@2@@std@@@2@@std@@AEBA_K_K@Z
        3 ?_Calculate_growth@?$vector@V?$sub_match@PEBD@std@@V?$allocator@V?$sub_match@PEBD@std@@@2@@std@@AEBA_K_K@Z
        3 ?_Calculate_loop_simplicity@std@@YAXPEAV_Node_base@1@0PEAV_Node_rep@1@@Z
        3 ?_Change_array@?$vector@IV?$allocator@I@std@@@std@@AEAAXQEAI_K1@Z
        3 ?_Change_array@?$vector@U_Grp_t@?$_Tgt_state_t@PEBD@std@@V?$allocator@U_Grp_t@?$_Tgt_state_t@PEBD@std@@@3@@std@@AEAAXQEAU_Grp_t@?$_Tgt_state_t@PEBD@2@_K1@Z
        3 ?_Change_array@?$vector@U_Loop_vals_t@std@@V?$allocator@U_Loop_vals_t@std@@@2@@std@@AEAAXQEAU_Loop_vals_t@2@_K1@Z
        3 ?_Change_array@?$vector@V?$basic_string@DU?$char_traits@D@std@@V?$allocator@D@2@@std@@V?$allocator@V?$basic_string@DU?$char_traits@D@std@@V?$allocator@D@2@@std@@@2@@std@@AEAAXQEAV?$basic_string@DU?$char_traits@D@std@@V?$allocator@D@2@@2@_K1@Z
        3 ?_Change_array@?$vector@V?$sub_match@PEBD@std@@V?$allocator@V?$sub_match@PEBD@std@@@2@@std@@AEAAXQEAV?$sub_match@PEBD@2@_K1@Z
        3 ?_Char_to_elts@?$_Builder@PEBDDV?$regex_traits@D@std@@@std@@AEAAXPEBD0_JPEAPEAU?$_Sequence@D@2@@Z
        3 ?_CharacterClass@?$_Parser@PEBDDV?$regex_traits@D@std@@@std@@AEAAXXZ
        3 ?_CharacterClassEscape@?$_Parser@PEBDDV?$regex_traits@D@std@@@std@@AEAA_N_N@Z
        3 ?_CharacterEscape@?$_Parser@PEBDDV?$regex_traits@D@std@@@std@@AEAA_NXZ
        3 ?_Check_offset@?$_String_val@U?$_Simple_types@D@std@@@std@@QEBAX_K@Z
        3 ?_Check_offset_exclusive@?$_String_val@U?$_Simple_types@D@std@@@std@@QEBAX_K@Z
        3 ?_Clamp_suffix_size@?$_String_val@U?$_Simple_types@D@std@@@std@@QEBA_K_K0@Z
        3 ?_ClassAtom@?$_Parser@PEBDDV?$regex_traits@D@std@@@std@@AEAA?AW4_Prs_ret@2@XZ
        3 ?_ClassEscape@?$_Parser@PEBDDV?$regex_traits@D@std@@@std@@AEAA?AW4_Prs_ret@2@_N@Z
        3 ?_ClassRanges@?$_Parser@PEBDDV?$regex_traits@D@std@@@std@@AEAAXXZ
        3 ?_Clrcont@_Iterator_base12@std@@QEAAXXZ
        3 ?_Compat@?$_String_const_iterator@V?$_String_val@U?$_Simple_types@D@std@@@std@@@std@@QEBAXAEBV12@@Z
        3 ?_Compat@?$_Vb_const_iterator@U?$_Wrap_alloc@V?$allocator@I@std@@@std@@@std@@QEBAXAEBV12@@Z
        3 ?_Compat@?$_Vector_const_iterator@V?$_Vector_val@U?$_Simple_types@V?$basic_string@DU?$char_traits@D@std@@V?$allocator@D@2@@std@@@std@@@std@@@std@@QEBAXAEBV12@@Z
        3 ?_Compile@?$_Parser@PEBDDV?$regex_traits@D@std@@@std@@QEAAPEAV_Root_node@2@XZ
        3 ?_Construct@?$_Tree_comp_alloc@V?$_Tmap_traits@V?$basic_string@DU?$char_traits@D@std@@V?$allocator@D@2@@std@@V12@U?$less@V?$basic_string@DU?$char_traits@D@std@@V?$allocator@D@2@@std@@@2@V?$allocator@U?$pair@$$CBV?$basic_string@DU?$char_traits@D@std@@V?$allocator@D@2@@std@@V12@@std@@@2@$0A@@std@@@std@@QEAAXXZ
        3 ?_Construct_lv_contents@?$basic_string@DU?$char_traits@D@std@@V?$allocator@D@2@@std@@QEAAXAEBV12@@Z
        3 ?_Copy_alloc@?$_String_alloc@U?$_String_base_types@DV?$allocator@D@std@@@std@@@std@@QEAAXAEBV?$allocator@D@2@@Z
        3 ?_Copy_alloc@?$_Vector_alloc@U?$_Vec_base_types@IV?$allocator@I@std@@@std@@@std@@QEAAXAEBV?$allocator@I@2@@Z
        3 ?_Copy_alloc@?$_Vector_alloc@U?$_Vec_base_types@U_Grp_t@?$_Tgt_state_t@PEBD@std@@V?$allocator@U_Grp_t@?$_Tgt_state_t@PEBD@std@@@3@@std@@@std@@QEAAXAEBV?$allocator@U_Grp_t@?$_Tgt_state_t@PEBD@std@@@2@@Z
        3 ?_Deallocate@std@@YAXPEAX_K1@Z
        3 ?_Dec@?$_Vb_const_iterator@U?$_Wrap_alloc@V?$allocator@I@std@@@std@@@std@@QEAAXXZ
        3 ?_DecimalDigits@?$_Parser@PEBDDV?$regex_traits@D@std@@@std@@AEAA_NXZ
        3 ?_Del@?$_Buf@D@std@@QEAADXZ
        3 ?_Destroy@?$vector@DV?$allocator@D@std@@@std@@AEAAXPEAD0@Z
        3 ?_Destroy@?$vector@IV?$allocator@I@std@@@std@@AEAAXPEAI0@Z
        3 ?_Destroy@?$vector@U_Grp_t@?$_Tgt_state_t@PEBD@std@@V?$allocator@U_Grp_t@?$_Tgt_state_t@PEBD@std@@@3@@std@@AEAAXPEAU_Grp_t@?$_Tgt_state_t@PEBD@2@0@Z
        3 ?_Destroy@?$vector@U_Loop_vals_t@std@@V?$allocator@U_Loop_vals_t@std@@@2@@std@@AEAAXPEAU_Loop_vals_t@2@0@Z
        3 ?_Destroy@?$vector@V?$basic_string@DU?$char_traits@D@std@@V?$allocator@D@2@@std@@V?$allocator@V?$basic_string@DU?$char_traits@D@std@@V?$allocator@D@2@@std@@@2@@std@@AEAAXPEAV?$basic_string@DU?$char_traits@D@std@@V?$allocator@D@2@@2@0@Z
        3 ?_Destroy@?$vector@V?$sub_match@PEBD@std@@V?$allocator@V?$sub_match@PEBD@std@@@2@@std@@AEAAXPEAV?$sub_match@PEBD@2@0@Z
        3 ?_Destroy_if_not_nil@?$_Tree@V?$_Tmap_traits@V?$basic_string@DU?$char_traits@D@std@@V?$allocator@D@2@@std@@V12@U?$less@V?$basic_string@DU?$char_traits@D@std@@V?$allocator@D@2@@std@@@2@V?$allocator@U?$pair@$$CBV?$basic_string@DU?$char_traits@D@std@@V?$allocator@D@2@@std@@V12@@std@@@2@$0A@@std@@@std@@IEAAXPEAU?$_Tree_node@U?$pair@$$CBV?$basic_string@DU?$char_traits@D@std@@V?$allocator@D@2@@std@@V12@@std@@PEAX@2@@Z
        3 ?_Destroy_node@std@@YAXPEAV_Node_base@1@0@Z
        3 ?_Discard_pattern@?$_Builder@PEBDDV?$regex_traits@D@std@@@std@@QEAAXXZ
        3 ?_Disjunction@?$_Parser@PEBDDV?$regex_traits@D@std@@@std@@AEAAXXZ
        3 ?_Do_assert_group@?$_Parser@PEBDDV?$regex_traits@D@std@@@std@@AEAAX_N@Z
        3 ?_Do_capture_group@?$_Parser@PEBDDV?$regex_traits@D@std@@@std@@AEAAXXZ
        3 ?_Do_class@?$_Matcher@PEBDDV?$regex_traits@D@std@@PEBD@std@@AEAA_NPEAV_Node_base@2@@Z
        3 ?_Do_digits@?$_Parser@PEBDDV?$regex_traits@D@std@@@std@@AEAAHHH@Z
        3 ?_Do_ex_class@?$_Parser@PEBDDV?$regex_traits@D@std@@@std@@AEAAXW4_Meta_type@2@@Z
        3 ?_Do_ffn@?$_Parser@PEBDDV?$regex_traits@D@std@@@std@@AEAA_ND@Z
        3 ?_Do_ffnx@?$_Parser@PEBDDV?$regex_traits@D@std@@@std@@AEAA_ND@Z
        3 ?_Do_if@?$_Matcher@PEBDDV?$regex_traits@D@std@@PEBD@std@@AEAA_NPEAV_Node_if@2@@Z
        3 ?_Do_noncapture_group@?$_Parser@PEBDDV?$regex_traits@D@std@@@std@@AEAAXXZ
        3 ?_Do_rep0@?$_Matcher@PEBDDV?$regex_traits@D@std@@PEBD@std@@AEAA_NPEAV_Node_rep@2@_N@Z
        3 ?_Do_rep@?$_Matcher@PEBDDV?$regex_traits@D@std@@PEBD@std@@AEAA_NPEAV_Node_rep@2@_NH@Z
        3 ?_Else_if@?$_Builder@PEBDDV?$regex_traits@D@std@@@std@@QEAAXPEAV_Node_base@2@0@Z
        3 ?_Empty@?$basic_regex@DV?$regex_traits@D@std@@@std@@QEBA_NXZ
        3 ?_End_assert_group@?$_Builder@PEBDDV?$regex_traits@D@std@@@std@@QEAAXPEAV_Node_base@2@@Z
        3 ?_End_group@?$_Builder@PEBDDV?$regex_traits@D@std@@@std@@QEAAXPEAV_Node_base@2@@Z
        3 ?_End_pattern@?$_Builder@PEBDDV?$regex_traits@D@std@@@std@@QEAAPEAV_Root_node@2@XZ
        3 ?_Endwrite@?$basic_filebuf@DU?$char_traits@D@std@@@std@@IEAA_NXZ
        3 ?_Eos@?$basic_string@DU?$char_traits@D@std@@V?$allocator@D@2@@std@@QEAAX_K@Z
        3 ?_Equal@?$basic_string@DU?$char_traits@D@std@@V?$allocator@D@2@@std@@QEBA_NAEBV12@@Z
        3 ?_Equal@?$basic_string@DU?$char_traits@D@std@@V?$allocator@D@2@@std@@QEBA_NQEBD@Z
        3 ?_Erase@?$_Tree@V?$_Tmap_traits@V?$basic_string@DU?$char_traits@D@std@@V?$allocator@D@2@@std@@V12@U?$less@V?$basic_string@DU?$char_traits@D@std@@V?$allocator@D@2@@std@@@2@V?$allocator@U?$pair@$$CBV?$basic_string@DU?$char_traits@D@std@@V?$allocator@D@2@@std@@V12@@std@@@2@$0A@@std@@@std@@IEAAXPEAU?$_Tree_node@U?$pair@$$CBV?$basic_string@DU?$char_traits@D@std@@V?$allocator@D@2@@std@@V12@@std@@PEAX@2@@Z
        3 ?_Error@?$_Parser@PEBDDV?$regex_traits@D@std@@@std@@AEAAXW4error_type@regex_constants@2@@Z
        3 ?_Expand@?$_Buf@D@std@@AEAAXI@Z
        3 ?_Expect@?$_Parser@PEBDDV?$regex_traits@D@std@@@std@@AEAAXW4_Meta_type@2@W4error_type@regex_constants@2@@Z
        3 ?_Free_proxy@?$_String_alloc@U?$_String_base_types@DV?$allocator@D@std@@@std@@@std@@QEAAXXZ
        3 ?_Free_proxy@?$_Tree_comp_alloc@V?$_Tmap_traits@V?$basic_string@DU?$char_traits@D@std@@V?$allocator@D@2@@std@@V12@U?$less@V?$basic_string@DU?$char_traits@D@std@@V?$allocator@D@2@@std@@@2@V?$allocator@U?$pair@$$CBV?$basic_string@DU?$char_traits@D@std@@V?$allocator@D@2@@std@@V12@@std@@@2@$0A@@std@@@std@@QEAAXXZ
        3 ?_Free_proxy@?$_Vb_val@V?$allocator@_N@std@@@std@@QEAAXXZ
        3 ?_Free_proxy@?$_Vector_alloc@U?$_Vec_base_types@DV?$allocator@D@std@@@std@@@std@@QEAAXXZ
        3 ?_Free_proxy@?$_Vector_alloc@U?$_Vec_base_types@IV?$allocator@I@std@@@std@@@std@@QEAAXXZ
        3 ?_Free_proxy@?$_Vector_alloc@U?$_Vec_base_types@U_Grp_t@?$_Tgt_state_t@PEBD@std@@V?$allocator@U_Grp_t@?$_Tgt_state_t@PEBD@std@@@3@@std@@@std@@QEAAXXZ
        3 ?_Free_proxy@?$_Vector_alloc@U?$_Vec_base_types@U_Loop_vals_t@std@@V?$allocator@U_Loop_vals_t@std@@@2@@std@@@std@@QEAAXXZ
        3 ?_Free_proxy@?$_Vector_alloc@U?$_Vec_base_types@V?$basic_string@DU?$char_traits@D@std@@V?$allocator@D@2@@std@@V?$allocator@V?$basic_string@DU?$char_traits@D@std@@V?$allocator@D@2@@std@@@2@@std@@@std@@QEAAXXZ
        3 ?_Freeheadnode@?$_Tree_comp_alloc@V?$_Tmap_traits@V?$basic_string@DU?$char_traits@D@std@@V?$allocator@D@2@@std@@V12@U?$less@V?$basic_string@DU?$char_traits@D@std@@V?$allocator@D@2@@std@@@2@V?$allocator@U?$pair@$$CBV?$basic_string@DU?$char_traits@D@std@@V?$allocator@D@2@@std@@V12@@std@@@2@$0A@@std@@@std@@QEAAXPEAU?$_Tree_node@U?$pair@$$CBV?$basic_string@DU?$char_traits@D@std@@V?$allocator@D@2@@std@@V12@@std@@PEAX@2@@Z
        3 ?_Freenode0@?$_Tree_comp_alloc@V?$_Tmap_traits@V?$basic_string@DU?$char_traits@D@std@@V?$allocator@D@2@@std@@V12@U?$less@V?$basic_string@DU?$char_traits@D@std@@V?$allocator@D@2@@std@@@2@V?$allocator@U?$pair@$$CBV?$basic_string@DU?$char_traits@D@std@@V?$allocator@D@2@@std@@V12@@std@@@2@$0A@@std@@@std@@QEAAXPEAU?$_Tree_node@U?$pair@$$CBV?$basic_string@DU?$char_traits@D@std@@V?$allocator@D@2@@std@@V12@@std@@PEAX@2@@Z
        3 ?_Get@?$basic_regex@DV?$regex_traits@D@std@@@std@@QEBAPEAV_Root_node@2@XZ
        3 ?_Get_bmax@?$_Builder@PEBDDV?$regex_traits@D@std@@@std@@AEBAIXZ
        3 ?_Get_data@?$_String_alloc@U?$_String_base_types@DV?$allocator@D@std@@@std@@@std@@QEAAAEAV?$_String_val@U?$_Simple_types@D@std@@@2@XZ
        3 ?_Get_data@?$_String_alloc@U?$_String_base_types@DV?$allocator@D@std@@@std@@@std@@QEBAAEBV?$_String_val@U?$_Simple_types@D@std@@@2@XZ
        3 ?_Get_data@?$_Tree_comp_alloc@V?$_Tmap_traits@V?$basic_string@DU?$char_traits@D@std@@V?$allocator@D@2@@std@@V12@U?$less@V?$basic_string@DU?$char_traits@D@std@@V?$allocator@D@2@@std@@@2@V?$allocator@U?$pair@$$CBV?$basic_string@DU?$char_traits@D@std@@V?$allocator@D@2@@std@@V12@@std@@@2@$0A@@std@@@std@@QEAAAEAV?$_Tree_val@U?$_Tree_simple_types@U?$pair@$$CBV?$basic_string@DU?$char_traits@D@std@@V?$allocator@D@2@@std@@V12@@std@@@std@@@2@XZ
        3 ?_Get_data@?$_Tree_comp_alloc@V?$_Tmap_traits@V?$basic_string@DU?$char_traits@D@std@@V?$allocator@D@2@@std@@V12@U?$less@V?$basic_string@DU?$char_traits@D@std@@V?$allocator@D@2@@std@@@2@V?$allocator@U?$pair@$$CBV?$basic_string@DU?$char_traits@D@std@@V?$allocator@D@2@@std@@V12@@std@@@2@$0A@@std@@@std@@QEBAAEBV?$_Tree_val@U?$_Tree_simple_types@U?$pair@$$CBV?$basic_string@DU?$char_traits@D@std@@V?$allocator@D@2@@std@@V12@@std@@@std@@@2@XZ
        3 ?_Get_data@?$_Vector_alloc@U?$_Vec_base_types@DV?$allocator@D@std@@@std@@@std@@QEAAAEAV?$_Vector_val@U?$_Simple_types@D@std@@@2@XZ
        3 ?_Get_data@?$_Vector_alloc@U?$_Vec_base_types@DV?$allocator@D@std@@@std@@@std@@QEBAAEBV?$_Vector_val@U?$_Simple_types@D@std@@@2@XZ
        3 ?_Get_data@?$_Vector_alloc@U?$_Vec_base_types@IV?$allocator@I@std@@@std@@@std@@QEAAAEAV?$_Vector_val@U?$_Simple_types@I@std@@@2@XZ
        3 ?_Get_data@?$_Vector_alloc@U?$_Vec_base_types@IV?$allocator@I@std@@@std@@@std@@QEBAAEBV?$_Vector_val@U?$_Simple_types@I@std@@@2@XZ
        3 ?_Get_data@?$_Vector_alloc@U?$_Vec_base_types@U_Grp_t@?$_Tgt_state_t@PEBD@std@@V?$allocator@U_Grp_t@?$_Tgt_state_t@PEBD@std@@@3@@std@@@std@@QEAAAEAV?$_Vector_val@U?$_Simple_types@U_Grp_t@?$_Tgt_state_t@PEBD@std@@@std@@@2@XZ
        3 ?_Get_data@?$_Vector_alloc@U?$_Vec_base_types@U_Grp_t@?$_Tgt_state_t@PEBD@std@@V?$allocator@U_Grp_t@?$_Tgt_state_t@PEBD@std@@@3@@std@@@std@@QEBAAEBV?$_Vector_val@U?$_Simple_types@U_Grp_t@?$_Tgt_state_t@PEBD@std@@@std@@@2@XZ
        3 ?_Get_data@?$_Vector_alloc@U?$_Vec_base_types@U_Loop_vals_t@std@@V?$allocator@U_Loop_vals_t@std@@@2@@std@@@std@@QEAAAEAV?$_Vector_val@U?$_Simple_types@U_Loop_vals_t@std@@@std@@@2@XZ
        3 ?_Get_data@?$_Vector_alloc@U?$_Vec_base_types@U_Loop_vals_t@std@@V?$allocator@U_Loop_vals_t@std@@@2@@std@@@std@@QEBAAEBV?$_Vector_val@U?$_Simple_types@U_Loop_vals_t@std@@@std@@@2@XZ
        3 ?_Get_data@?$_Vector_alloc@U?$_Vec_base_types@V?$basic_string@DU?$char_traits@D@std@@V?$allocator@D@2@@std@@V?$allocator@V?$basic_string@DU?$char_traits@D@std@@V?$allocator@D@2@@std@@@2@@std@@@std@@QEAAAEAV?$_Vector_val@U?$_Simple_types@V?$basic_string@DU?$char_traits@D@std@@V?$allocator@D@2@@std@@@std@@@2@XZ
        3 ?_Get_data@?$_Vector_alloc@U?$_Vec_base_types@V?$basic_string@DU?$char_traits@D@std@@V?$allocator@D@2@@std@@V?$allocator@V?$basic_string@DU?$char_traits@D@std@@V?$allocator@D@2@@std@@@2@@std@@@std@@QEBAAEBV?$_Vector_val@U?$_Simple_types@V?$basic_string@DU?$char_traits@D@std@@V?$allocator@D@2@@std@@@std@@@2@XZ
        3 ?_Get_data@?$_Vector_alloc@U?$_Vec_base_types@V?$sub_match@PEBD@std@@V?$allocator@V?$sub_match@PEBD@std@@@2@@std@@@std@@QEAAAEAV?$_Vector_val@U?$_Simple_types@V?$sub_match@PEBD@std@@@std@@@2@XZ
        3 ?_Get_data@?$_Vector_alloc@U?$_Vec_base_types@V?$sub_match@PEBD@std@@V?$allocator@V?$sub_match@PEBD@std@@@2@@std@@@std@@QEBAAEBV?$_Vector_val@U?$_Simple_types@V?$sub_match@PEBD@std@@@std@@@2@XZ
        3 ?_Get_first@?$_Compressed_pair@U?$less@V?$basic_string@DU?$char_traits@D@std@@V?$allocator@D@2@@std@@@std@@V?$_Compressed_pair@V?$allocator@U?$_Tree_node@U?$pair@$$CBV?$basic_string@DU?$char_traits@D@std@@V?$allocator@D@2@@std@@V12@@std@@PEAX@std@@@std@@V?$_Tree_val@U?$_Tree_simple_types@U?$pair@$$CBV?$basic_string@DU?$char_traits@D@std@@V?$allocator@D@2@@std@@V12@@std@@@std@@@2@$00@2@$00@std@@QEAAAEAU?$less@V?$basic_string@DU?$char_traits@D@std@@V?$allocator@D@2@@std@@@2@XZ
        3 ?_Get_first@?$_Compressed_pair@V?$allocator@D@std@@V?$_String_val@U?$_Simple_types@D@std@@@2@$00@std@@QEAAAEAV?$allocator@D@2@XZ
        3 ?_Get_first@?$_Compressed_pair@V?$allocator@D@std@@V?$_String_val@U?$_Simple_types@D@std@@@2@$00@std@@QEBAAEBV?$allocator@D@2@XZ
        3 ?_Get_first@?$_Compressed_pair@V?$allocator@D@std@@V?$_Vector_val@U?$_Simple_types@D@std@@@2@$00@std@@QEAAAEAV?$allocator@D@2@XZ
        3 ?_Get_first@?$_Compressed_pair@V?$allocator@D@std@@V?$_Vector_val@U?$_Simple_types@D@std@@@2@$00@std@@QEBAAEBV?$allocator@D@2@XZ
        3 ?_Get_first@?$_Compressed_pair@V?$allocator@I@std@@V?$_Vector_val@U?$_Simple_types@I@std@@@2@$00@std@@QEAAAEAV?$allocator@I@2@XZ
        3 ?_Get_first@?$_Compressed_pair@V?$allocator@I@std@@V?$_Vector_val@U?$_Simple_types@I@std@@@2@$00@std@@QEBAAEBV?$allocator@I@2@XZ
        3 ?_Get_first@?$_Compressed_pair@V?$allocator@U?$_Tree_node@U?$pair@$$CBV?$basic_string@DU?$char_traits@D@std@@V?$allocator@D@2@@std@@V12@@std@@PEAX@std@@@std@@V?$_Tree_val@U?$_Tree_simple_types@U?$pair@$$CBV?$basic_string@DU?$char_traits@D@std@@V?$allocator@D@2@@std@@V12@@std@@@std@@@2@$00@std@@QEAAAEAV?$allocator@U?$_Tree_node@U?$pair@$$CBV?$basic_string@DU?$char_traits@D@std@@V?$allocator@D@2@@std@@V12@@std@@PEAX@std@@@2@XZ
        3 ?_Get_first@?$_Compressed_pair@V?$allocator@U?$_Tree_node@U?$pair@$$CBV?$basic_string@DU?$char_traits@D@std@@V?$allocator@D@2@@std@@V12@@std@@PEAX@std@@@std@@V?$_Tree_val@U?$_Tree_simple_types@U?$pair@$$CBV?$basic_string@DU?$char_traits@D@std@@V?$allocator@D@2@@std@@V12@@std@@@std@@@2@$00@std@@QEBAAEBV?$allocator@U?$_Tree_node@U?$pair@$$CBV?$basic_string@DU?$char_traits@D@std@@V?$allocator@D@2@@std@@V12@@std@@PEAX@std@@@2@XZ
        3 ?_Get_first@?$_Compressed_pair@V?$allocator@U_Grp_t@?$_Tgt_state_t@PEBD@std@@@std@@V?$_Vector_val@U?$_Simple_types@U_Grp_t@?$_Tgt_state_t@PEBD@std@@@std@@@2@$00@std@@QEAAAEAV?$allocator@U_Grp_t@?$_Tgt_state_t@PEBD@std@@@2@XZ
        3 ?_Get_first@?$_Compressed_pair@V?$allocator@U_Grp_t@?$_Tgt_state_t@PEBD@std@@@std@@V?$_Vector_val@U?$_Simple_types@U_Grp_t@?$_Tgt_state_t@PEBD@std@@@std@@@2@$00@std@@QEBAAEBV?$allocator@U_Grp_t@?$_Tgt_state_t@PEBD@std@@@2@XZ
        3 ?_Get_first@?$_Compressed_pair@V?$allocator@U_Loop_vals_t@std@@@std@@V?$_Vector_val@U?$_Simple_types@U_Loop_vals_t@std@@@std@@@2@$00@std@@QEAAAEAV?$allocator@U_Loop_vals_t@std@@@2@XZ
        3 ?_Get_first@?$_Compressed_pair@V?$allocator@U_Loop_vals_t@std@@@std@@V?$_Vector_val@U?$_Simple_types@U_Loop_vals_t@std@@@std@@@2@$00@std@@QEBAAEBV?$allocator@U_Loop_vals_t@std@@@2@XZ
        3 ?_Get_first@?$_Compressed_pair@V?$allocator@V?$basic_string@DU?$char_traits@D@std@@V?$allocator@D@2@@std@@@std@@V?$_Vector_val@U?$_Simple_types@V?$basic_string@DU?$char_traits@D@std@@V?$allocator@D@2@@std@@@std@@@2@$00@std@@QEAAAEAV?$allocator@V?$basic_string@DU?$char_traits@D@std@@V?$allocator@D@2@@std@@@2@XZ
        3 ?_Get_first@?$_Compressed_pair@V?$allocator@V?$basic_string@DU?$char_traits@D@std@@V?$allocator@D@2@@std@@@std@@V?$_Vector_val@U?$_Simple_types@V?$basic_string@DU?$char_traits@D@std@@V?$allocator@D@2@@std@@@std@@@2@$00@std@@QEBAAEBV?$allocator@V?$basic_string@DU?$char_traits@D@std@@V?$allocator@D@2@@std@@@2@XZ
        3 ?_Get_first@?$_Compressed_pair@V?$allocator@V?$sub_match@PEBD@std@@@std@@V?$_Vector_val@U?$_Simple_types@V?$sub_match@PEBD@std@@@std@@@2@$00@std@@QEAAAEAV?$allocator@V?$sub_match@PEBD@std@@@2@XZ
        3 ?_Get_first@?$_Compressed_pair@V?$allocator@V?$sub_match@PEBD@std@@@std@@V?$_Vector_val@U?$_Simple_types@V?$sub_match@PEBD@std@@@std@@@2@$00@std@@QEBAAEBV?$allocator@V?$sub_match@PEBD@std@@@2@XZ
        3 ?_Get_ncap@?$_Matcher@PEBDDV?$regex_traits@D@std@@PEBD@std@@AEBAIXZ
        3 ?_Get_second@?$_Compressed_pair@U?$less@V?$basic_string@DU?$char_traits@D@std@@V?$allocator@D@2@@std@@@std@@V?$_Compressed_pair@V?$allocator@U?$_Tree_node@U?$pair@$$CBV?$basic_string@DU?$char_traits@D@std@@V?$allocator@D@2@@std@@V12@@std@@PEAX@std@@@std@@V?$_Tree_val@U?$_Tree_simple_types@U?$pair@$$CBV?$basic_string@DU?$char_traits@D@std@@V?$allocator@D@2@@std@@V12@@std@@@std@@@2@$00@2@$00@std@@QEAAAEAV?$_Compressed_pair@V?$allocator@U?$_Tree_node@U?$pair@$$CBV?$basic_string@DU?$char_traits@D@std@@V?$allocator@D@2@@std@@V12@@std@@PEAX@std@@@std@@V?$_Tree_val@U?$_Tree_simple_types@U?$pair@$$CBV?$basic_string@DU?$char_traits@D@std@@V?$allocator@D@2@@std@@V12@@std@@@std@@@2@$00@2@XZ
        3 ?_Get_second@?$_Compressed_pair@U?$less@V?$basic_string@DU?$char_traits@D@std@@V?$allocator@D@2@@std@@@std@@V?$_Compressed_pair@V?$allocator@U?$_Tree_node@U?$pair@$$CBV?$basic_string@DU?$char_traits@D@std@@V?$allocator@D@2@@std@@V12@@std@@PEAX@std@@@std@@V?$_Tree_val@U?$_Tree_simple_types@U?$pair@$$CBV?$basic_string@DU?$char_traits@D@std@@V?$allocator@D@2@@std@@V12@@std@@@std@@@2@$00@2@$00@std@@QEBAAEBV?$_Compressed_pair@V?$allocator@U?$_Tree_node@U?$pair@$$CBV?$basic_string@DU?$char_traits@D@std@@V?$allocator@D@2@@std@@V12@@std@@PEAX@std@@@std@@V?$_Tree_val@U?$_Tree_simple_types@U?$pair@$$CBV?$basic_string@DU?$char_traits@D@std@@V?$allocator@D@2@@std@@V12@@std@@@std@@@2@$00@2@XZ
        3 ?_Get_second@?$_Compressed_pair@V?$allocator@D@std@@V?$_String_val@U?$_Simple_types@D@std@@@2@$00@std@@QEAAAEAV?$_String_val@U?$_Simple_types@D@std@@@2@XZ
        3 ?_Get_second@?$_Compressed_pair@V?$allocator@D@std@@V?$_String_val@U?$_Simple_types@D@std@@@2@$00@std@@QEBAAEBV?$_String_val@U?$_Simple_types@D@std@@@2@XZ
        3 ?_Get_second@?$_Compressed_pair@V?$allocator@D@std@@V?$_Vector_val@U?$_Simple_types@D@std@@@2@$00@std@@QEAAAEAV?$_Vector_val@U?$_Simple_types@D@std@@@2@XZ
        3 ?_Get_second@?$_Compressed_pair@V?$allocator@D@std@@V?$_Vector_val@U?$_Simple_types@D@std@@@2@$00@std@@QEBAAEBV?$_Vector_val@U?$_Simple_types@D@std@@@2@XZ
        3 ?_Get_second@?$_Compressed_pair@V?$allocator@I@std@@V?$_Vector_val@U?$_Simple_types@I@std@@@2@$00@std@@QEAAAEAV?$_Vector_val@U?$_Simple_types@I@std@@@2@XZ
        3 ?_Get_second@?$_Compressed_pair@V?$allocator@I@std@@V?$_Vector_val@U?$_Simple_types@I@std@@@2@$00@std@@QEBAAEBV?$_Vector_val@U?$_Simple_types@I@std@@@2@XZ
        3 ?_Get_second@?$_Compressed_pair@V?$allocator@U?$_Tree_node@U?$pair@$$CBV?$basic_string@DU?$char_traits@D@std@@V?$allocator@D@2@@std@@V12@@std@@PEAX@std@@@std@@V?$_Tree_val@U?$_Tree_simple_types@U?$pair@$$CBV?$basic_string@DU?$char_traits@D@std@@V?$allocator@D@2@@std@@V12@@std@@@std@@@2@$00@std@@QEAAAEAV?$_Tree_val@U?$_Tree_simple_types@U?$pair@$$CBV?$basic_string@DU?$char_traits@D@std@@V?$allocator@D@2@@std@@V12@@std@@@std@@@2@XZ
        3 ?_Get_second@?$_Compressed_pair@V?$allocator@U?$_Tree_node@U?$pair@$$CBV?$basic_string@DU?$char_traits@D@std@@V?$allocator@D@2@@std@@V12@@std@@PEAX@std@@@std@@V?$_Tree_val@U?$_Tree_simple_types@U?$pair@$$CBV?$basic_string@DU?$char_traits@D@std@@V?$allocator@D@2@@std@@V12@@std@@@std@@@2@$00@std@@QEBAAEBV?$_Tree_val@U?$_Tree_simple_types@U?$pair@$$CBV?$basic_string@DU?$char_traits@D@std@@V?$allocator@D@2@@std@@V12@@std@@@std@@@2@XZ
        3 ?_Get_second@?$_Compressed_pair@V?$allocator@U_Grp_t@?$_Tgt_state_t@PEBD@std@@@std@@V?$_Vector_val@U?$_Simple_types@U_Grp_t@?$_Tgt_state_t@PEBD@std@@@std@@@2@$00@std@@QEAAAEAV?$_Vector_val@U?$_Simple_types@U_Grp_t@?$_Tgt_state_t@PEBD@std@@@std@@@2@XZ
        3 ?_Get_second@?$_Compressed_pair@V?$allocator@U_Grp_t@?$_Tgt_state_t@PEBD@std@@@std@@V?$_Vector_val@U?$_Simple_types@U_Grp_t@?$_Tgt_state_t@PEBD@std@@@std@@@2@$00@std@@QEBAAEBV?$_Vector_val@U?$_Simple_types@U_Grp_t@?$_Tgt_state_t@PEBD@std@@@std@@@2@XZ
        3 ?_Get_second@?$_Compressed_pair@V?$allocator@U_Loop_vals_t@std@@@std@@V?$_Vector_val@U?$_Simple_types@U_Loop_vals_t@std@@@std@@@2@$00@std@@QEAAAEAV?$_Vector_val@U?$_Simple_types@U_Loop_vals_t@std@@@std@@@2@XZ
        3 ?_Get_second@?$_Compressed_pair@V?$allocator@U_Loop_vals_t@std@@@std@@V?$_Vector_val@U?$_Simple_types@U_Loop_vals_t@std@@@std@@@2@$00@std@@QEBAAEBV?$_Vector_val@U?$_Simple_types@U_Loop_vals_t@std@@@std@@@2@XZ
        3 ?_Get_second@?$_Compressed_pair@V?$allocator@V?$basic_string@DU?$char_traits@D@std@@V?$allocator@D@2@@std@@@std@@V?$_Vector_val@U?$_Simple_types@V?$basic_string@DU?$char_traits@D@std@@V?$allocator@D@2@@std@@@std@@@2@$00@std@@QEAAAEAV?$_Vector_val@U?$_Simple_types@V?$basic_string@DU?$char_traits@D@std@@V?$allocator@D@2@@std@@@std@@@2@XZ
        3 ?_Get_second@?$_Compressed_pair@V?$allocator@V?$basic_string@DU?$char_traits@D@std@@V?$allocator@D@2@@std@@@std@@V?$_Vector_val@U?$_Simple_types@V?$basic_string@DU?$char_traits@D@std@@V?$allocator@D@2@@std@@@std@@@2@$00@std@@QEBAAEBV?$_Vector_val@U?$_Simple_types@V?$basic_string@DU?$char_traits@D@std@@V?$allocator@D@2@@std@@@std@@@2@XZ
        3 ?_Get_second@?$_Compressed_pair@V?$allocator@V?$sub_match@PEBD@std@@@std@@V?$_Vector_val@U?$_Simple_types@V?$sub_match@PEBD@std@@@std@@@2@$00@std@@QEAAAEAV?$_Vector_val@U?$_Simple_types@V?$sub_match@PEBD@std@@@std@@@2@XZ
        3 ?_Get_second@?$_Compressed_pair@V?$allocator@V?$sub_match@PEBD@std@@@std@@V?$_Vector_val@U?$_Simple_types@V?$sub_match@PEBD@std@@@std@@@2@$00@std@@QEBAAEBV?$_Vector_val@U?$_Simple_types@V?$sub_match@PEBD@std@@@std@@@2@XZ
        3 ?_Get_tmax@?$_Builder@PEBDDV?$regex_traits@D@std@@@std@@AEBAIXZ
        3 ?_Get_traits@?$basic_regex@DV?$regex_traits@D@std@@@std@@QEBAAEBV?$regex_traits@D@2@XZ
        3 ?_Getal@?$_String_alloc@U?$_String_base_types@DV?$allocator@D@std@@@std@@@std@@QEAAAEAV?$allocator@D@2@XZ
        3 ?_Getal@?$_String_alloc@U?$_String_base_types@DV?$allocator@D@std@@@std@@@std@@QEBAAEBV?$allocator@D@2@XZ
        3 ?_Getal@?$_Tree_comp_alloc@V?$_Tmap_traits@V?$basic_string@DU?$char_traits@D@std@@V?$allocator@D@2@@std@@V12@U?$less@V?$basic_string@DU?$char_traits@D@std@@V?$allocator@D@2@@std@@@2@V?$allocator@U?$pair@$$CBV?$basic_string@DU?$char_traits@D@std@@V?$allocator@D@2@@std@@V12@@std@@@2@$0A@@std@@@std@@QEAAAEAV?$allocator@U?$_Tree_node@U?$pair@$$CBV?$basic_string@DU?$char_traits@D@std@@V?$allocator@D@2@@std@@V12@@std@@PEAX@std@@@2@XZ
        3 ?_Getal@?$_Tree_comp_alloc@V?$_Tmap_traits@V?$basic_string@DU?$char_traits@D@std@@V?$allocator@D@2@@std@@V12@U?$less@V?$basic_string@DU?$char_traits@D@std@@V?$allocator@D@2@@std@@@2@V?$allocator@U?$pair@$$CBV?$basic_string@DU?$char_traits@D@std@@V?$allocator@D@2@@std@@V12@@std@@@2@$0A@@std@@@std@@QEBAAEBV?$allocator@U?$_Tree_node@U?$pair@$$CBV?$basic_string@DU?$char_traits@D@std@@V?$allocator@D@2@@std@@V12@@std@@PEAX@std@@@2@XZ
        3 ?_Getal@?$_Vector_alloc@U?$_Vec_base_types@DV?$allocator@D@std@@@std@@@std@@QEAAAEAV?$allocator@D@2@XZ
        3 ?_Getal@?$_Vector_alloc@U?$_Vec_base_types@DV?$allocator@D@std@@@std@@@std@@QEBAAEBV?$allocator@D@2@XZ
        3 ?_Getal@?$_Vector_alloc@U?$_Vec_base_types@IV?$allocator@I@std@@@std@@@std@@QEAAAEAV?$allocator@I@2@XZ
        3 ?_Getal@?$_Vector_alloc@U?$_Vec_base_types@IV?$allocator@I@std@@@std@@@std@@QEBAAEBV?$allocator@I@2@XZ
        3 ?_Getal@?$_Vector_alloc@U?$_Vec_base_types@U_Grp_t@?$_Tgt_state_t@PEBD@std@@V?$allocator@U_Grp_t@?$_Tgt_state_t@PEBD@std@@@3@@std@@@std@@QEAAAEAV?$allocator@U_Grp_t@?$_Tgt_state_t@PEBD@std@@@2@XZ
        3 ?_Getal@?$_Vector_alloc@U?$_Vec_base_types@U_Grp_t@?$_Tgt_state_t@PEBD@std@@V?$allocator@U_Grp_t@?$_Tgt_state_t@PEBD@std@@@3@@std@@@std@@QEBAAEBV?$allocator@U_Grp_t@?$_Tgt_state_t@PEBD@std@@@2@XZ
        3 ?_Getal@?$_Vector_alloc@U?$_Vec_base_types@U_Loop_vals_t@std@@V?$allocator@U_Loop_vals_t@std@@@2@@std@@@std@@QEAAAEAV?$allocator@U_Loop_vals_t@std@@@2@XZ
        3 ?_Getal@?$_Vector_alloc@U?$_Vec_base_types@U_Loop_vals_t@std@@V?$allocator@U_Loop_vals_t@std@@@2@@std@@@std@@QEBAAEBV?$allocator@U_Loop_vals_t@std@@@2@XZ
        3 ?_Getal@?$_Vector_alloc@U?$_Vec_base_types@V?$basic_string@DU?$char_traits@D@std@@V?$allocator@D@2@@std@@V?$allocator@V?$basic_string@DU?$char_traits@D@std@@V?$allocator@D@2@@std@@@2@@std@@@std@@QEAAAEAV?$allocator@V?$basic_string@DU?$char_traits@D@std@@V?$allocator@D@2@@std@@@2@XZ
        3 ?_Getal@?$_Vector_alloc@U?$_Vec_base_types@V?$basic_string@DU?$char_traits@D@std@@V?$allocator@D@2@@std@@V?$allocator@V?$basic_string@DU?$char_traits@D@std@@V?$allocator@D@2@@std@@@2@@std@@@std@@QEBAAEBV?$allocator@V?$basic_string@DU?$char_traits@D@std@@V?$allocator@D@2@@std@@@2@XZ
        3 ?_Getal@?$_Vector_alloc@U?$_Vec_base_types@V?$sub_match@PEBD@std@@V?$allocator@V?$sub_match@PEBD@std@@@2@@std@@@std@@QEAAAEAV?$allocator@V?$sub_match@PEBD@std@@@2@XZ
        3 ?_Getal@?$_Vector_alloc@U?$_Vec_base_types@V?$sub_match@PEBD@std@@V?$allocator@V?$sub_match@PEBD@std@@@2@@std@@@std@@QEBAAEBV?$allocator@V?$sub_match@PEBD@std@@@2@XZ
        3 ?_Getcat@?$collate@D@std@@SA_KPEAPEBVfacet@locale@2@PEBV42@@Z
        3 ?_Getcoll@?$_Regex_traits@D@std@@QEBAPEBV?$collate@D@2@XZ
        3 ?_Getcomp@?$_Tree_comp_alloc@V?$_Tmap_traits@V?$basic_string@DU?$char_traits@D@std@@V?$allocator@D@2@@std@@V12@U?$less@V?$basic_string@DU?$char_traits@D@std@@V?$allocator@D@2@@std@@@2@V?$allocator@U?$pair@$$CBV?$basic_string@DU?$char_traits@D@std@@V?$allocator@D@2@@std@@V12@@std@@@2@$0A@@std@@@std@@QEAAAEAU?$less@V?$basic_string@DU?$char_traits@D@std@@V?$allocator@D@2@@std@@@2@XZ
        3 ?_Getcont@_Iterator_base12@std@@QEBAPEBU_Container_base12@2@XZ
        3 ?_Getctype@?$_Regex_traits@D@std@@QEBAPEBV?$ctype@D@2@XZ
        3 ?_Getfacet@locale@std@@QEBAPEBVfacet@12@_K@Z
        3 ?_Getmark@?$_Builder@PEBDDV?$regex_traits@D@std@@@std@@QEBAPEAV_Node_base@2@XZ
        3 ?_Getpfirst@?$_Tree_comp_alloc@V?$_Tmap_traits@V?$basic_string@DU?$char_traits@D@std@@V?$allocator@D@2@@std@@V12@U?$less@V?$basic_string@DU?$char_traits@D@std@@V?$allocator@D@2@@std@@@2@V?$allocator@U?$pair@$$CBV?$basic_string@DU?$char_traits@D@std@@V?$allocator@D@2@@std@@V12@@std@@@2@$0A@@std@@@std@@QEBAPEAPEAU_Iterator_base12@2@XZ
        3 ?_Getpfirst@?$_Vector_alloc@U?$_Vec_base_types@IV?$allocator@I@std@@@std@@@std@@QEBAPEAPEAU_Iterator_base12@2@XZ
        3 ?_Getpfirst@?$_Vector_alloc@U?$_Vec_base_types@U_Grp_t@?$_Tgt_state_t@PEBD@std@@V?$allocator@U_Grp_t@?$_Tgt_state_t@PEBD@std@@@3@@std@@@std@@QEBAPEAPEAU_Iterator_base12@2@XZ
        3 ?_Getpfirst@?$_Vector_alloc@U?$_Vec_base_types@U_Loop_vals_t@std@@V?$allocator@U_Loop_vals_t@std@@@2@@std@@@std@@QEBAPEAPEAU_Iterator_base12@2@XZ
        3 ?_Getpfirst@?$_Vector_alloc@U?$_Vec_base_types@V?$basic_string@DU?$char_traits@D@std@@V?$allocator@D@2@@std@@V?$allocator@V?$basic_string@DU?$char_traits@D@std@@V?$allocator@D@2@@std@@@2@@std@@@std@@QEBAPEAPEAU_Iterator_base12@2@XZ
        3 ?_Getpfirst@?$_Vector_alloc@U?$_Vec_base_types@V?$sub_match@PEBD@std@@V?$allocator@V?$sub_match@PEBD@std@@@2@@std@@@std@@QEBAPEAPEAU_Iterator_base12@2@XZ
        3 ?_Getpfirst@_Container_base12@std@@QEBAPEAPEAU_Iterator_base12@2@XZ
        3 ?_Getpnext@_Iterator_base12@std@@QEAAPEAPEAU12@XZ
        3 ?_Getptr@?$_Vb_reference@U?$_Wrap_alloc@V?$allocator@I@std@@@std@@@std@@QEBAPEBIXZ
        3 ?_Getstate@?$basic_stringbuf@DU?$char_traits@D@std@@V?$allocator@D@2@@std@@AEAAHH@Z
        3 ?_Has_unused_capacity@?$vector@V?$basic_string@DU?$char_traits@D@std@@V?$allocator@D@2@@std@@V?$allocator@V?$basic_string@DU?$char_traits@D@std@@V?$allocator@D@2@@std@@@2@@std@@AEBA_NXZ
        3 ?_Hash_bytes@std@@YA_KPEBE_K@Z
        3 ?_HexDigits@?$_Parser@PEBDDV?$regex_traits@D@std@@@std@@AEAAXH@Z
        3 ?_IdentityEscape@?$_Parser@PEBDDV?$regex_traits@D@std@@@std@@AEAA_NXZ
        3 ?_Inc@?$_Vb_const_iterator@U?$_Wrap_alloc@V?$allocator@I@std@@@std@@@std@@QEAAXXZ
        3 ?_Init@?$basic_filebuf@DU?$char_traits@D@std@@@std@@IEAAXPEAU_iobuf@@W4_Initfl@12@@Z
        3 ?_Init@?$basic_stringbuf@DU?$char_traits@D@std@@V?$allocator@D@2@@std@@IEAAXPEBD_KH@Z
        3 ?_Init@?$collate@D@std@@IEAAXAEBV_Locinfo@2@@Z
        3 ?_Initcvt@?$basic_filebuf@DU?$char_traits@D@std@@@std@@IEAAXPEBV?$codecvt@DDU_Mbstatet@@@2@@Z
        3 ?_Insert@?$_Buf@D@std@@QEAAXD@Z
        3 ?_Insert_n@?$vector@_NV?$allocator@_N@std@@@std@@QEAA?AV?$_Vb_iterator@U?$_Wrap_alloc@V?$allocator@I@std@@@std@@@2@V?$_Vb_const_iterator@U?$_Wrap_alloc@V?$allocator@I@std@@@std@@@2@_KAEB_N@Z
        3 ?_Insert_node@?$_Builder@PEBDDV?$regex_traits@D@std@@@std@@CAXPEAV_Node_base@2@0@Z
        3 ?_Insert_x@?$vector@_NV?$allocator@_N@std@@@std@@QEAA_KV?$_Vb_const_iterator@U?$_Wrap_alloc@V?$allocator@I@std@@@std@@@2@_K@Z
        3 ?_IsIdentityEscape@?$_Parser@PEBDDV?$regex_traits@D@std@@@std@@AEBA_NXZ
        3 ?_Is_esc@?$_Parser@PEBDDV?$regex_traits@D@std@@@std@@AEBA_NXZ
        3 ?_Is_wbound@?$_Matcher@PEBDDV?$regex_traits@D@std@@PEBD@std@@AEBA_NXZ
        3 ?_Is_word@std@@YA_ND@Z
        3 ?_Is_word@std@@YA_NE@Z
        3 ?_Is_word_table@?1??_Is_word@std@@YA_NE@Z@4QB_NB
        3 ?_Key@?$_Tree@V?$_Tmap_traits@V?$basic_string@DU?$char_traits@D@std@@V?$allocator@D@2@@std@@V12@U?$less@V?$basic_string@DU?$char_traits@D@std@@V?$allocator@D@2@@std@@@2@V?$allocator@U?$pair@$$CBV?$basic_string@DU?$char_traits@D@std@@V?$allocator@D@2@@std@@V12@@std@@@2@$0A@@std@@@std@@IEBAAEBV?$basic_string@DU?$char_traits@D@std@@V?$allocator@D@2@@2@PEAU?$_Tree_node@U?$pair@$$CBV?$basic_string@DU?$char_traits@D@std@@V?$allocator@D@2@@std@@V12@@std@@PEAX@2@@Z
        3 ?_Kfn@?$_Tree@V?$_Tmap_traits@V?$basic_string@DU?$char_traits@D@std@@V?$allocator@D@2@@std@@V12@U?$less@V?$basic_string@DU?$char_traits@D@std@@V?$allocator@D@2@@std@@@2@V?$allocator@U?$pair@$$CBV?$basic_string@DU?$char_traits@D@std@@V?$allocator@D@2@@std@@V12@@std@@@2@$0A@@std@@@std@@IEBAAEBV?$basic_string@DU?$char_traits@D@std@@V?$allocator@D@2@@2@AEBU?$pair@$$CBV?$basic_string@DU?$char_traits@D@std@@V?$allocator@D@2@@std@@V12@@2@@Z
        3 ?_Large_string_engaged@?$_String_val@U?$_Simple_types@D@std@@@std@@QEBA_NXZ
        3 ?_Link_node@?$_Builder@PEBDDV?$regex_traits@D@std@@@std@@AEAAPEAV_Node_base@2@PEAV32@@Z
        3 ?_Lmost@?$_Tree@V?$_Tmap_traits@V?$basic_string@DU?$char_traits@D@std@@V?$allocator@D@2@@std@@V12@U?$less@V?$basic_string@DU?$char_traits@D@std@@V?$allocator@D@2@@std@@@2@V?$allocator@U?$pair@$$CBV?$basic_string@DU?$char_traits@D@std@@V?$allocator@D@2@@std@@V12@@std@@@2@$0A@@std@@@std@@IEBAAEAPEAU?$_Tree_node@U?$pair@$$CBV?$basic_string@DU?$char_traits@D@std@@V?$allocator@D@2@@std@@V12@@std@@PEAX@2@XZ
        3 ?_Lock@?$basic_filebuf@DU?$char_traits@D@std@@@std@@UEAAXXZ
        3 ?_Lrotate@?$_Tree@V?$_Tmap_traits@V?$basic_string@DU?$char_traits@D@std@@V?$allocator@D@2@@std@@V12@U?$less@V?$basic_string@DU?$char_traits@D@std@@V?$allocator@D@2@@std@@@2@V?$allocator@U?$pair@$$CBV?$basic_string@DU?$char_traits@D@std@@V?$allocator@D@2@@std@@V12@@std@@@2@$0A@@std@@@std@@IEAAXPEAU?$_Tree_node@U?$pair@$$CBV?$basic_string@DU?$char_traits@D@std@@V?$allocator@D@2@@std@@V12@@std@@PEAX@2@@Z
        3 ?_Make_iter@?$vector@_NV?$allocator@_N@std@@@std@@QEAA?AV?$_Vb_iterator@U?$_Wrap_alloc@V?$allocator@I@std@@@std@@@2@V?$_Vb_const_iterator@U?$_Wrap_alloc@V?$allocator@I@std@@@std@@@2@@Z
        3 ?_Mark_count@?$_Parser@PEBDDV?$regex_traits@D@std@@@std@@QEBAIXZ
        3 ?_Mark_final@?$_Builder@PEBDDV?$regex_traits@D@std@@@std@@QEAAXXZ
        3 ?_Mask@?$_Vb_reference@U?$_Wrap_alloc@V?$allocator@I@std@@@std@@@std@@IEBAIXZ
        3 ?_Match_pat@?$_Matcher@PEBDDV?$regex_traits@D@std@@PEBD@std@@AEAA_NPEAV_Node_base@2@@Z
        3 ?_Max@?$_Tree_comp_alloc@V?$_Tmap_traits@V?$basic_string@DU?$char_traits@D@std@@V?$allocator@D@2@@std@@V12@U?$less@V?$basic_string@DU?$char_traits@D@std@@V?$allocator@D@2@@std@@@2@V?$allocator@U?$pair@$$CBV?$basic_string@DU?$char_traits@D@std@@V?$allocator@D@2@@std@@V12@@std@@@2@$0A@@std@@@std@@SAPEAU?$_Tree_node@U?$pair@$$CBV?$basic_string@DU?$char_traits@D@std@@V?$allocator@D@2@@std@@V12@@std@@PEAX@2@PEAU32@@Z
        3 ?_Max@?$_Tree_val@U?$_Tree_simple_types@U?$pair@$$CBV?$basic_string@DU?$char_traits@D@std@@V?$allocator@D@2@@std@@V12@@std@@@std@@@std@@SAPEAU?$_Tree_node@U?$pair@$$CBV?$basic_string@DU?$char_traits@D@std@@V?$allocator@D@2@@std@@V12@@std@@PEAX@2@PEAU32@@Z
        3 ?_Meta_map@?1??_Trans@?$_Parser@PEBDDV?$regex_traits@D@std@@@std@@AEAAXXZ@4QBDB
        3 ?_Min@?$_Tree_comp_alloc@V?$_Tmap_traits@V?$basic_string@DU?$char_traits@D@std@@V?$allocator@D@2@@std@@V12@U?$less@V?$basic_string@DU?$char_traits@D@std@@V?$allocator@D@2@@std@@@2@V?$allocator@U?$pair@$$CBV?$basic_string@DU?$char_traits@D@std@@V?$allocator@D@2@@std@@V12@@std@@@2@$0A@@std@@@std@@SAPEAU?$_Tree_node@U?$pair@$$CBV?$basic_string@DU?$char_traits@D@std@@V?$allocator@D@2@@std@@V12@@std@@PEAX@2@PEAU32@@Z
        3 ?_Min@?$_Tree_val@U?$_Tree_simple_types@U?$pair@$$CBV?$basic_string@DU?$char_traits@D@std@@V?$allocator@D@2@@std@@V12@@std@@@std@@@std@@SAPEAU?$_Tree_node@U?$pair@$$CBV?$basic_string@DU?$char_traits@D@std@@V?$allocator@D@2@@std@@V12@@std@@PEAX@2@PEAU32@@Z
        3 ?_Move_alloc@?$_String_alloc@U?$_String_base_types@DV?$allocator@D@std@@@std@@@std@@QEAAXAEAV?$allocator@D@2@@Z
        3 ?_Move_from@?$vector@V?$basic_string@DU?$char_traits@D@std@@V?$allocator@D@2@@std@@V?$allocator@V?$basic_string@DU?$char_traits@D@std@@V?$allocator@D@2@@std@@@2@@std@@AEAAX$$QEAV12@U?$integral_constant@_N$00@2@@Z
        3 ?_Myend@?$_Vector_alloc@U?$_Vec_base_types@DV?$allocator@D@std@@@std@@@std@@QEAAAEAPEADXZ
        3 ?_Myend@?$_Vector_alloc@U?$_Vec_base_types@DV?$allocator@D@std@@@std@@@std@@QEBAAEBQEADXZ
        3 ?_Myend@?$_Vector_alloc@U?$_Vec_base_types@IV?$allocator@I@std@@@std@@@std@@QEAAAEAPEAIXZ
        3 ?_Myend@?$_Vector_alloc@U?$_Vec_base_types@IV?$allocator@I@std@@@std@@@std@@QEBAAEBQEAIXZ
        3 ?_Myend@?$_Vector_alloc@U?$_Vec_base_types@U_Grp_t@?$_Tgt_state_t@PEBD@std@@V?$allocator@U_Grp_t@?$_Tgt_state_t@PEBD@std@@@3@@std@@@std@@QEAAAEAPEAU_Grp_t@?$_Tgt_state_t@PEBD@2@XZ
        3 ?_Myend@?$_Vector_alloc@U?$_Vec_base_types@U_Grp_t@?$_Tgt_state_t@PEBD@std@@V?$allocator@U_Grp_t@?$_Tgt_state_t@PEBD@std@@@3@@std@@@std@@QEBAAEBQEAU_Grp_t@?$_Tgt_state_t@PEBD@2@XZ
        3 ?_Myend@?$_Vector_alloc@U?$_Vec_base_types@U_Loop_vals_t@std@@V?$allocator@U_Loop_vals_t@std@@@2@@std@@@std@@QEAAAEAPEAU_Loop_vals_t@2@XZ
        3 ?_Myend@?$_Vector_alloc@U?$_Vec_base_types@U_Loop_vals_t@std@@V?$allocator@U_Loop_vals_t@std@@@2@@std@@@std@@QEBAAEBQEAU_Loop_vals_t@2@XZ
        3 ?_Myend@?$_Vector_alloc@U?$_Vec_base_types@V?$basic_string@DU?$char_traits@D@std@@V?$allocator@D@2@@std@@V?$allocator@V?$basic_string@DU?$char_traits@D@std@@V?$allocator@D@2@@std@@@2@@std@@@std@@QEAAAEAPEAV?$basic_string@DU?$char_traits@D@std@@V?$allocator@D@2@@2@XZ
        3 ?_Myend@?$_Vector_alloc@U?$_Vec_base_types@V?$basic_string@DU?$char_traits@D@std@@V?$allocator@D@2@@std@@V?$allocator@V?$basic_string@DU?$char_traits@D@std@@V?$allocator@D@2@@std@@@2@@std@@@std@@QEBAAEBQEAV?$basic_string@DU?$char_traits@D@std@@V?$allocator@D@2@@2@XZ
        3 ?_Myend@?$_Vector_alloc@U?$_Vec_base_types@V?$sub_match@PEBD@std@@V?$allocator@V?$sub_match@PEBD@std@@@2@@std@@@std@@QEAAAEAPEAV?$sub_match@PEBD@2@XZ
        3 ?_Myend@?$_Vector_alloc@U?$_Vec_base_types@V?$sub_match@PEBD@std@@V?$allocator@V?$sub_match@PEBD@std@@@2@@std@@@std@@QEBAAEBQEAV?$sub_match@PEBD@2@XZ
        3 ?_Myfirst@?$_Vector_alloc@U?$_Vec_base_types@DV?$allocator@D@std@@@std@@@std@@QEAAAEAPEADXZ
        3 ?_Myfirst@?$_Vector_alloc@U?$_Vec_base_types@DV?$allocator@D@std@@@std@@@std@@QEBAAEBQEADXZ
        3 ?_Myfirst@?$_Vector_alloc@U?$_Vec_base_types@IV?$allocator@I@std@@@std@@@std@@QEAAAEAPEAIXZ
        3 ?_Myfirst@?$_Vector_alloc@U?$_Vec_base_types@IV?$allocator@I@std@@@std@@@std@@QEBAAEBQEAIXZ
        3 ?_Myfirst@?$_Vector_alloc@U?$_Vec_base_types@U_Grp_t@?$_Tgt_state_t@PEBD@std@@V?$allocator@U_Grp_t@?$_Tgt_state_t@PEBD@std@@@3@@std@@@std@@QEAAAEAPEAU_Grp_t@?$_Tgt_state_t@PEBD@2@XZ
        3 ?_Myfirst@?$_Vector_alloc@U?$_Vec_base_types@U_Grp_t@?$_Tgt_state_t@PEBD@std@@V?$allocator@U_Grp_t@?$_Tgt_state_t@PEBD@std@@@3@@std@@@std@@QEBAAEBQEAU_Grp_t@?$_Tgt_state_t@PEBD@2@XZ
        3 ?_Myfirst@?$_Vector_alloc@U?$_Vec_base_types@U_Loop_vals_t@std@@V?$allocator@U_Loop_vals_t@std@@@2@@std@@@std@@QEAAAEAPEAU_Loop_vals_t@2@XZ
        3 ?_Myfirst@?$_Vector_alloc@U?$_Vec_base_types@U_Loop_vals_t@std@@V?$allocator@U_Loop_vals_t@std@@@2@@std@@@std@@QEBAAEBQEAU_Loop_vals_t@2@XZ
        3 ?_Myfirst@?$_Vector_alloc@U?$_Vec_base_types@V?$basic_string@DU?$char_traits@D@std@@V?$allocator@D@2@@std@@V?$allocator@V?$basic_string@DU?$char_traits@D@std@@V?$allocator@D@2@@std@@@2@@std@@@std@@QEAAAEAPEAV?$basic_string@DU?$char_traits@D@std@@V?$allocator@D@2@@2@XZ
        3 ?_Myfirst@?$_Vector_alloc@U?$_Vec_base_types@V?$basic_string@DU?$char_traits@D@std@@V?$allocator@D@2@@std@@V?$allocator@V?$basic_string@DU?$char_traits@D@std@@V?$allocator@D@2@@std@@@2@@std@@@std@@QEBAAEBQEAV?$basic_string@DU?$char_traits@D@std@@V?$allocator@D@2@@2@XZ
        3 ?_Myfirst@?$_Vector_alloc@U?$_Vec_base_types@V?$sub_match@PEBD@std@@V?$allocator@V?$sub_match@PEBD@std@@@2@@std@@@std@@QEAAAEAPEAV?$sub_match@PEBD@2@XZ
        3 ?_Myfirst@?$_Vector_alloc@U?$_Vec_base_types@V?$sub_match@PEBD@std@@V?$allocator@V?$sub_match@PEBD@std@@@2@@std@@@std@@QEBAAEBQEAV?$sub_match@PEBD@2@XZ
        3 ?_Myhead@?$_Tree_comp_alloc@V?$_Tmap_traits@V?$basic_string@DU?$char_traits@D@std@@V?$allocator@D@2@@std@@V12@U?$less@V?$basic_string@DU?$char_traits@D@std@@V?$allocator@D@2@@std@@@2@V?$allocator@U?$pair@$$CBV?$basic_string@DU?$char_traits@D@std@@V?$allocator@D@2@@std@@V12@@std@@@2@$0A@@std@@@std@@QEAAAEAPEAU?$_Tree_node@U?$pair@$$CBV?$basic_string@DU?$char_traits@D@std@@V?$allocator@D@2@@std@@V12@@std@@PEAX@2@XZ
        3 ?_Myhead@?$_Tree_comp_alloc@V?$_Tmap_traits@V?$basic_string@DU?$char_traits@D@std@@V?$allocator@D@2@@std@@V12@U?$less@V?$basic_string@DU?$char_traits@D@std@@V?$allocator@D@2@@std@@@2@V?$allocator@U?$pair@$$CBV?$basic_string@DU?$char_traits@D@std@@V?$allocator@D@2@@std@@V12@@std@@@2@$0A@@std@@@std@@QEBAAEBQEAU?$_Tree_node@U?$pair@$$CBV?$basic_string@DU?$char_traits@D@std@@V?$allocator@D@2@@std@@V12@@std@@PEAX@2@XZ
        3 ?_Mylast@?$_Vector_alloc@U?$_Vec_base_types@DV?$allocator@D@std@@@std@@@std@@QEAAAEAPEADXZ
        3 ?_Mylast@?$_Vector_alloc@U?$_Vec_base_types@DV?$allocator@D@std@@@std@@@std@@QEBAAEBQEADXZ
        3 ?_Mylast@?$_Vector_alloc@U?$_Vec_base_types@IV?$allocator@I@std@@@std@@@std@@QEAAAEAPEAIXZ
        3 ?_Mylast@?$_Vector_alloc@U?$_Vec_base_types@IV?$allocator@I@std@@@std@@@std@@QEBAAEBQEAIXZ
        3 ?_Mylast@?$_Vector_alloc@U?$_Vec_base_types@U_Grp_t@?$_Tgt_state_t@PEBD@std@@V?$allocator@U_Grp_t@?$_Tgt_state_t@PEBD@std@@@3@@std@@@std@@QEAAAEAPEAU_Grp_t@?$_Tgt_state_t@PEBD@2@XZ
        3 ?_Mylast@?$_Vector_alloc@U?$_Vec_base_types@U_Grp_t@?$_Tgt_state_t@PEBD@std@@V?$allocator@U_Grp_t@?$_Tgt_state_t@PEBD@std@@@3@@std@@@std@@QEBAAEBQEAU_Grp_t@?$_Tgt_state_t@PEBD@2@XZ
        3 ?_Mylast@?$_Vector_alloc@U?$_Vec_base_types@U_Loop_vals_t@std@@V?$allocator@U_Loop_vals_t@std@@@2@@std@@@std@@QEAAAEAPEAU_Loop_vals_t@2@XZ
        3 ?_Mylast@?$_Vector_alloc@U?$_Vec_base_types@U_Loop_vals_t@std@@V?$allocator@U_Loop_vals_t@std@@@2@@std@@@std@@QEBAAEBQEAU_Loop_vals_t@2@XZ
        3 ?_Mylast@?$_Vector_alloc@U?$_Vec_base_types@V?$basic_string@DU?$char_traits@D@std@@V?$allocator@D@2@@std@@V?$allocator@V?$basic_string@DU?$char_traits@D@std@@V?$allocator@D@2@@std@@@2@@std@@@std@@QEAAAEAPEAV?$basic_string@DU?$char_traits@D@std@@V?$allocator@D@2@@2@XZ
        3 ?_Mylast@?$_Vector_alloc@U?$_Vec_base_types@V?$basic_string@DU?$char_traits@D@std@@V?$allocator@D@2@@std@@V?$allocator@V?$basic_string@DU?$char_traits@D@std@@V?$allocator@D@2@@std@@@2@@std@@@std@@QEBAAEBQEAV?$basic_string@DU?$char_traits@D@std@@V?$allocator@D@2@@2@XZ
        3 ?_Mylast@?$_Vector_alloc@U?$_Vec_base_types@V?$sub_match@PEBD@std@@V?$allocator@V?$sub_match@PEBD@std@@@2@@std@@@std@@QEAAAEAPEAV?$sub_match@PEBD@2@XZ
        3 ?_Mylast@?$_Vector_alloc@U?$_Vec_base_types@V?$sub_match@PEBD@std@@V?$allocator@V?$sub_match@PEBD@std@@@2@@std@@@std@@QEBAAEBQEAV?$sub_match@PEBD@2@XZ
        3 ?_Mynode@?$_Tree_unchecked_const_iterator@V?$_Tree_val@U?$_Tree_simple_types@U?$pair@$$CBV?$basic_string@DU?$char_traits@D@std@@V?$allocator@D@2@@std@@V12@@std@@@std@@@std@@U_Iterator_base12@2@@std@@QEBAPEAU?$_Tree_node@U?$pair@$$CBV?$basic_string@DU?$char_traits@D@std@@V?$allocator@D@2@@std@@V12@@std@@PEAX@2@XZ
        3 ?_Myproxy@?$_String_alloc@U?$_String_base_types@DV?$allocator@D@std@@@std@@@std@@QEAAAEAPEAU_Container_proxy@2@XZ
        3 ?_Myproxy@?$_Tree_comp_alloc@V?$_Tmap_traits@V?$basic_string@DU?$char_traits@D@std@@V?$allocator@D@2@@std@@V12@U?$less@V?$basic_string@DU?$char_traits@D@std@@V?$allocator@D@2@@std@@@2@V?$allocator@U?$pair@$$CBV?$basic_string@DU?$char_traits@D@std@@V?$allocator@D@2@@std@@V12@@std@@@2@$0A@@std@@@std@@QEAAAEAPEAU_Container_proxy@2@XZ
        3 ?_Myproxy@?$_Vector_alloc@U?$_Vec_base_types@DV?$allocator@D@std@@@std@@@std@@QEAAAEAPEAU_Container_proxy@2@XZ
        3 ?_Myproxy@?$_Vector_alloc@U?$_Vec_base_types@IV?$allocator@I@std@@@std@@@std@@QEAAAEAPEAU_Container_proxy@2@XZ
        3 ?_Myproxy@?$_Vector_alloc@U?$_Vec_base_types@U_Grp_t@?$_Tgt_state_t@PEBD@std@@V?$allocator@U_Grp_t@?$_Tgt_state_t@PEBD@std@@@3@@std@@@std@@QEAAAEAPEAU_Container_proxy@2@XZ
        3 ?_Myproxy@?$_Vector_alloc@U?$_Vec_base_types@U_Loop_vals_t@std@@V?$allocator@U_Loop_vals_t@std@@@2@@std@@@std@@QEAAAEAPEAU_Container_proxy@2@XZ
        3 ?_Myproxy@?$_Vector_alloc@U?$_Vec_base_types@V?$basic_string@DU?$char_traits@D@std@@V?$allocator@D@2@@std@@V?$allocator@V?$basic_string@DU?$char_traits@D@std@@V?$allocator@D@2@@std@@@2@@std@@@std@@QEAAAEAPEAU_Container_proxy@2@XZ
        3 ?_Myptr@?$_String_val@U?$_Simple_types@D@std@@@std@@QEAAPEADXZ
        3 ?_Myptr@?$_String_val@U?$_Simple_types@D@std@@@std@@QEBAPEBDXZ
        3 ?_Mysize@?$_Tree_comp_alloc@V?$_Tmap_traits@V?$basic_string@DU?$char_traits@D@std@@V?$allocator@D@2@@std@@V12@U?$less@V?$basic_string@DU?$char_traits@D@std@@V?$allocator@D@2@@std@@@2@V?$allocator@U?$pair@$$CBV?$basic_string@DU?$char_traits@D@std@@V?$allocator@D@2@@std@@V12@@std@@@2@$0A@@std@@@std@@QEAAAEA_KXZ
        3 ?_Mysize@?$_Tree_comp_alloc@V?$_Tmap_traits@V?$basic_string@DU?$char_traits@D@std@@V?$allocator@D@2@@std@@V12@U?$less@V?$basic_string@DU?$char_traits@D@std@@V?$allocator@D@2@@std@@@2@V?$allocator@U?$pair@$$CBV?$basic_string@DU?$char_traits@D@std@@V?$allocator@D@2@@std@@V12@@std@@@2@$0A@@std@@@std@@QEBAAEB_KXZ
        3 ?_Names@?1???$lookup_classname@PEBD@?$_Regex_traits@D@std@@QEBAFPEBD0_N@Z@4QBU_Cl_names@2@B
        3 ?_Negate@?$_Builder@PEBDDV?$regex_traits@D@std@@@std@@QEAAXXZ
        3 ?_New_node@?$_Builder@PEBDDV?$regex_traits@D@std@@@std@@AEAAPEAV_Node_base@2@W4_Node_type@2@@Z
        3 ?_Next@?$_Parser@PEBDDV?$regex_traits@D@std@@@std@@AEAAXXZ
        3 ?_Null@?$match_results@PEBDV?$allocator@V?$sub_match@PEBD@std@@@std@@@std@@QEAAAEAV?$sub_match@PEBD@2@XZ
        3 ?_Nw@?$_Vb_val@V?$allocator@_N@std@@@std@@SA_K_K@Z
        3 ?_OctalDigits@?$_Parser@PEBDDV?$regex_traits@D@std@@@std@@AEAA_NXZ
        3 ?_Orphan_all@?$_String_alloc@U?$_String_base_types@DV?$allocator@D@std@@@std@@@std@@QEAAXXZ
        3 ?_Orphan_all@?$_Tree_comp_alloc@V?$_Tmap_traits@V?$basic_string@DU?$char_traits@D@std@@V?$allocator@D@2@@std@@V12@U?$less@V?$basic_string@DU?$char_traits@D@std@@V?$allocator@D@2@@std@@@2@V?$allocator@U?$pair@$$CBV?$basic_string@DU?$char_traits@D@std@@V?$allocator@D@2@@std@@V12@@std@@@2@$0A@@std@@@std@@QEAAXXZ
        3 ?_Orphan_all@?$_Vector_alloc@U?$_Vec_base_types@DV?$allocator@D@std@@@std@@@std@@QEAAXXZ
        3 ?_Orphan_all@?$_Vector_alloc@U?$_Vec_base_types@IV?$allocator@I@std@@@std@@@std@@QEAAXXZ
        3 ?_Orphan_all@?$_Vector_alloc@U?$_Vec_base_types@U_Grp_t@?$_Tgt_state_t@PEBD@std@@V?$allocator@U_Grp_t@?$_Tgt_state_t@PEBD@std@@@3@@std@@@std@@QEAAXXZ
        3 ?_Orphan_all@?$_Vector_alloc@U?$_Vec_base_types@U_Loop_vals_t@std@@V?$allocator@U_Loop_vals_t@std@@@2@@std@@@std@@QEAAXXZ
        3 ?_Orphan_all@?$_Vector_alloc@U?$_Vec_base_types@V?$basic_string@DU?$char_traits@D@std@@V?$allocator@D@2@@std@@V?$allocator@V?$basic_string@DU?$char_traits@D@std@@V?$allocator@D@2@@std@@@2@@std@@@std@@QEAAXXZ
        3 ?_Orphan_all@?$_Vector_alloc@U?$_Vec_base_types@V?$sub_match@PEBD@std@@V?$allocator@V?$sub_match@PEBD@std@@@2@@std@@@std@@QEAAXXZ
        3 ?_Orphan_all@_Container_base12@std@@QEAAXXZ
        3 ?_Orphan_me@_Iterator_base12@std@@QEAAXXZ
        3 ?_Orphan_ptr@?$_Tree@V?$_Tmap_traits@V?$basic_string@DU?$char_traits@D@std@@V?$allocator@D@2@@std@@V12@U?$less@V?$basic_string@DU?$char_traits@D@std@@V?$allocator@D@2@@std@@@2@V?$allocator@U?$pair@$$CBV?$basic_string@DU?$char_traits@D@std@@V?$allocator@D@2@@std@@V12@@std@@@2@$0A@@std@@@std@@IEAAXPEAU?$_Tree_node@U?$pair@$$CBV?$basic_string@DU?$char_traits@D@std@@V?$allocator@D@2@@std@@V12@@std@@PEAX@2@@Z
        3 ?_Orphan_range@?$vector@IV?$allocator@I@std@@@std@@AEBAXPEAI0@Z
        3 ?_Orphan_range@?$vector@U_Grp_t@?$_Tgt_state_t@PEBD@std@@V?$allocator@U_Grp_t@?$_Tgt_state_t@PEBD@std@@@3@@std@@AEBAXPEAU_Grp_t@?$_Tgt_state_t@PEBD@2@0@Z
        3 ?_Orphan_range@?$vector@U_Loop_vals_t@std@@V?$allocator@U_Loop_vals_t@std@@@2@@std@@AEBAXPEAU_Loop_vals_t@2@0@Z
        3 ?_Orphan_range@?$vector@V?$basic_string@DU?$char_traits@D@std@@V?$allocator@D@2@@std@@V?$allocator@V?$basic_string@DU?$char_traits@D@std@@V?$allocator@D@2@@std@@@2@@std@@AEBAXPEAV?$basic_string@DU?$char_traits@D@std@@V?$allocator@D@2@@2@0@Z
        3 ?_Orphan_range@?$vector@V?$sub_match@PEBD@std@@V?$allocator@V?$sub_match@PEBD@std@@@2@@std@@AEBAXPEAV?$sub_match@PEBD@2@0@Z
        3 ?_Orphan_range@?$vector@_NV?$allocator@_N@std@@@std@@QEBAX_K0@Z
        3 ?_Pfx@?$match_results@PEBDV?$allocator@V?$sub_match@PEBD@std@@@std@@@std@@QEAAAEAV?$sub_match@PEBD@2@XZ
        3 ?_Psave@?$_Facetptr@V?$codecvt@DDU_Mbstatet@@@std@@@std@@2PEBVfacet@locale@2@EB
        3 ?_Psave@?$_Facetptr@V?$collate@D@std@@@std@@2PEBVfacet@locale@2@EB
        3 ?_Psave@?$_Facetptr@V?$ctype@D@std@@@std@@2PEBVfacet@locale@2@EB
        3 ?_Psave@?$_Facetptr@V?$time_put@DV?$ostreambuf_iterator@DU?$char_traits@D@std@@@std@@@std@@@std@@2PEBVfacet@locale@2@EB
        3 ?_Quantifier@?$_Parser@PEBDDV?$regex_traits@D@std@@@std@@AEAAXXZ
        3 ?_Reset@?$basic_regex@DV?$regex_traits@D@std@@@std@@AEAAXPEAV_Root_node@2@@Z
        3 ?_Reset_back@?$basic_filebuf@DU?$char_traits@D@std@@@std@@AEAAXXZ
        3 ?_Resize@?$match_results@PEBDV?$allocator@V?$sub_match@PEBD@std@@@std@@@std@@QEAAXI@Z
        3 ?_Rmost@?$_Tree@V?$_Tmap_traits@V?$basic_string@DU?$char_traits@D@std@@V?$allocator@D@2@@std@@V12@U?$less@V?$basic_string@DU?$char_traits@D@std@@V?$allocator@D@2@@std@@@2@V?$allocator@U?$pair@$$CBV?$basic_string@DU?$char_traits@D@std@@V?$allocator@D@2@@std@@V12@@std@@@2@$0A@@std@@@std@@IEBAAEAPEAU?$_Tree_node@U?$pair@$$CBV?$basic_string@DU?$char_traits@D@std@@V?$allocator@D@2@@std@@V12@@std@@PEAX@2@XZ
        3 ?_Root@?$_Tree@V?$_Tmap_traits@V?$basic_string@DU?$char_traits@D@std@@V?$allocator@D@2@@std@@V12@U?$less@V?$basic_string@DU?$char_traits@D@std@@V?$allocator@D@2@@std@@@2@V?$allocator@U?$pair@$$CBV?$basic_string@DU?$char_traits@D@std@@V?$allocator@D@2@@std@@V12@@std@@@2@$0A@@std@@@std@@IEBAAEAPEAU?$_Tree_node@U?$pair@$$CBV?$basic_string@DU?$char_traits@D@std@@V?$allocator@D@2@@std@@V12@@std@@PEAX@2@XZ
        3 ?_Rrotate@?$_Tree@V?$_Tmap_traits@V?$basic_string@DU?$char_traits@D@std@@V?$allocator@D@2@@std@@V12@U?$less@V?$basic_string@DU?$char_traits@D@std@@V?$allocator@D@2@@std@@@2@V?$allocator@U?$pair@$$CBV?$basic_string@DU?$char_traits@D@std@@V?$allocator@D@2@@std@@V12@@std@@@2@$0A@@std@@@std@@IEAAXPEAU?$_Tree_node@U?$pair@$$CBV?$basic_string@DU?$char_traits@D@std@@V?$allocator@D@2@@std@@V12@@std@@PEAX@2@@Z
        3 ?_Set_back@?$basic_filebuf@DU?$char_traits@D@std@@@std@@AEAAXXZ
        3 ?_Setlong@?$_Builder@PEBDDV?$regex_traits@D@std@@@std@@QEAAXXZ
        3 ?_Sfx@?$match_results@PEBDV?$allocator@V?$sub_match@PEBD@std@@@std@@@std@@QEAAAEAV?$sub_match@PEBD@2@XZ
        3 ?_Size@?$_Buf@D@std@@QEBAIXZ
        3 ?_Stinit@?1??_Init@?$basic_filebuf@DU?$char_traits@D@std@@@std@@IEAAXPEAU_iobuf@@W4_Initfl@23@@Z@4U_Mbstatet@@A
        3 ?_Str@?$_Buf@D@std@@QEBAPEBDXZ
        3 ?_Swap_all@?$_String_alloc@U?$_String_base_types@DV?$allocator@D@std@@@std@@@std@@QEAAXAEAV12@@Z
        3 ?_Swap_all@?$_Vector_alloc@U?$_Vec_base_types@V?$basic_string@DU?$char_traits@D@std@@V?$allocator@D@2@@std@@V?$allocator@V?$basic_string@DU?$char_traits@D@std@@V?$allocator@D@2@@std@@@2@@std@@@std@@QEAAXAEAV12@@Z
        3 ?_Swap_all@_Container_base12@std@@QEAAXAEAU12@@Z
        3 ?_Tidy@?$_Node_class@DV?$regex_traits@D@std@@@std@@QEAAXPEAU?$_Sequence@D@2@@Z
        3 ?_Tidy@?$_Tree@V?$_Tmap_traits@V?$basic_string@DU?$char_traits@D@std@@V?$allocator@D@2@@std@@V12@U?$less@V?$basic_string@DU?$char_traits@D@std@@V?$allocator@D@2@@std@@@2@V?$allocator@U?$pair@$$CBV?$basic_string@DU?$char_traits@D@std@@V?$allocator@D@2@@std@@V12@@std@@@2@$0A@@std@@@std@@IEAAXXZ
        3 ?_Tidy@?$basic_regex@DV?$regex_traits@D@std@@@std@@AEAAXXZ
        3 ?_Tidy@?$basic_stringbuf@DU?$char_traits@D@std@@V?$allocator@D@2@@std@@IEAAXXZ
        3 ?_Tidy@?$vector@DV?$allocator@D@std@@@std@@AEAAXXZ
        3 ?_Tidy@?$vector@IV?$allocator@I@std@@@std@@AEAAXXZ
        3 ?_Tidy@?$vector@U_Grp_t@?$_Tgt_state_t@PEBD@std@@V?$allocator@U_Grp_t@?$_Tgt_state_t@PEBD@std@@@3@@std@@AEAAXXZ
        3 ?_Tidy@?$vector@U_Loop_vals_t@std@@V?$allocator@U_Loop_vals_t@std@@@2@@std@@AEAAXXZ
        3 ?_Tidy@?$vector@V?$basic_string@DU?$char_traits@D@std@@V?$allocator@D@2@@std@@V?$allocator@V?$basic_string@DU?$char_traits@D@std@@V?$allocator@D@2@@std@@@2@@std@@AEAAXXZ
        3 ?_Tidy_deallocate@?$basic_string@DU?$char_traits@D@std@@V?$allocator@D@2@@std@@QEAAXXZ
        3 ?_Tidy_init@?$basic_string@DU?$char_traits@D@std@@V?$allocator@D@2@@std@@QEAAXXZ
        3 ?_Trans@?$_Parser@PEBDDV?$regex_traits@D@std@@@std@@AEAAXXZ
        3 ?_Trim@?$vector@_NV?$allocator@_N@std@@@std@@QEAAX_K@Z
        3 ?_Udefault@?$vector@U_Grp_t@?$_Tgt_state_t@PEBD@std@@V?$allocator@U_Grp_t@?$_Tgt_state_t@PEBD@std@@@3@@std@@AEAAPEAU_Grp_t@?$_Tgt_state_t@PEBD@2@PEAU342@_K@Z
        3 ?_Udefault@?$vector@U_Loop_vals_t@std@@V?$allocator@U_Loop_vals_t@std@@@2@@std@@AEAAPEAU_Loop_vals_t@2@PEAU32@_K@Z
        3 ?_Udefault@?$vector@V?$sub_match@PEBD@std@@V?$allocator@V?$sub_match@PEBD@std@@@2@@std@@AEAAPEAV?$sub_match@PEBD@2@PEAV32@_K@Z
        3 ?_Ufill@?$vector@IV?$allocator@I@std@@@std@@AEAAPEAIPEAI_KAEBI@Z
        3 ?_Umove@?$vector@V?$basic_string@DU?$char_traits@D@std@@V?$allocator@D@2@@std@@V?$allocator@V?$basic_string@DU?$char_traits@D@std@@V?$allocator@D@2@@std@@@2@@std@@AEAAPEAV?$basic_string@DU?$char_traits@D@std@@V?$allocator@D@2@@2@PEAV32@00@Z
        3 ?_Umove_if_noexcept1@?$vector@IV?$allocator@I@std@@@std@@AEAAXPEAI00U?$integral_constant@_N$00@2@@Z
        3 ?_Umove_if_noexcept1@?$vector@U_Grp_t@?$_Tgt_state_t@PEBD@std@@V?$allocator@U_Grp_t@?$_Tgt_state_t@PEBD@std@@@3@@std@@AEAAXPEAU_Grp_t@?$_Tgt_state_t@PEBD@2@00U?$integral_constant@_N$00@2@@Z
        3 ?_Umove_if_noexcept1@?$vector@U_Loop_vals_t@std@@V?$allocator@U_Loop_vals_t@std@@@2@@std@@AEAAXPEAU_Loop_vals_t@2@00U?$integral_constant@_N$00@2@@Z
        3 ?_Umove_if_noexcept1@?$vector@V?$basic_string@DU?$char_traits@D@std@@V?$allocator@D@2@@std@@V?$allocator@V?$basic_string@DU?$char_traits@D@std@@V?$allocator@D@2@@std@@@2@@std@@AEAAXPEAV?$basic_string@DU?$char_traits@D@std@@V?$allocator@D@2@@2@00U?$integral_constant@_N$00@2@@Z
        3 ?_Umove_if_noexcept1@?$vector@V?$sub_match@PEBD@std@@V?$allocator@V?$sub_match@PEBD@std@@@2@@std@@AEAAXPEAV?$sub_match@PEBD@2@00U?$integral_constant@_N$00@2@@Z
        3 ?_Umove_if_noexcept@?$vector@IV?$allocator@I@std@@@std@@AEAAXPEAI00@Z
        3 ?_Umove_if_noexcept@?$vector@U_Grp_t@?$_Tgt_state_t@PEBD@std@@V?$allocator@U_Grp_t@?$_Tgt_state_t@PEBD@std@@@3@@std@@AEAAXPEAU_Grp_t@?$_Tgt_state_t@PEBD@2@00@Z
        3 ?_Umove_if_noexcept@?$vector@U_Loop_vals_t@std@@V?$allocator@U_Loop_vals_t@std@@@2@@std@@AEAAXPEAU_Loop_vals_t@2@00@Z
        3 ?_Umove_if_noexcept@?$vector@V?$basic_string@DU?$char_traits@D@std@@V?$allocator@D@2@@std@@V?$allocator@V?$basic_string@DU?$char_traits@D@std@@V?$allocator@D@2@@std@@@2@@std@@AEAAXPEAV?$basic_string@DU?$char_traits@D@std@@V?$allocator@D@2@@2@00@Z
        3 ?_Umove_if_noexcept@?$vector@V?$sub_match@PEBD@std@@V?$allocator@V?$sub_match@PEBD@std@@@2@@std@@AEAAXPEAV?$sub_match@PEBD@2@00@Z
        3 ?_Unlock@?$basic_filebuf@DU?$char_traits@D@std@@@std@@UEAAXXZ
        3 ?_Unused_capacity@?$vector@V?$basic_string@DU?$char_traits@D@std@@V?$allocator@D@2@@std@@V?$allocator@V?$basic_string@DU?$char_traits@D@std@@V?$allocator@D@2@@std@@@2@@std@@AEBA_KXZ
        3 ?_Valid@?$_Vb_iter_base@U?$_Wrap_alloc@V?$allocator@I@std@@@std@@@std@@QEBAH_K@Z
        3 ?_Wrapped_disjunction@?$_Parser@PEBDDV?$regex_traits@D@std@@@std@@AEAA_NXZ
        3 ?_Xlen@?$basic_string@DU?$char_traits@D@std@@V?$allocator@D@2@@std@@SAXXZ
        3 ?_Xlen@?$vector@_NV?$allocator@_N@std@@@std@@QEBAXXZ
        3 ?_Xlength@?$vector@DV?$allocator@D@std@@@std@@CAXXZ
        3 ?_Xlength@?$vector@IV?$allocator@I@std@@@std@@CAXXZ
        3 ?_Xlength@?$vector@U_Grp_t@?$_Tgt_state_t@PEBD@std@@V?$allocator@U_Grp_t@?$_Tgt_state_t@PEBD@std@@@3@@std@@CAXXZ
        3 ?_Xlength@?$vector@U_Loop_vals_t@std@@V?$allocator@U_Loop_vals_t@std@@@2@@std@@CAXXZ
        3 ?_Xlength@?$vector@V?$basic_string@DU?$char_traits@D@std@@V?$allocator@D@2@@std@@V?$allocator@V?$basic_string@DU?$char_traits@D@std@@V?$allocator@D@2@@std@@@2@@std@@CAXXZ
        3 ?_Xlength@?$vector@V?$sub_match@PEBD@std@@V?$allocator@V?$sub_match@PEBD@std@@@2@@std@@CAXXZ
        3 ?_Xran@?$_String_val@U?$_Simple_types@D@std@@@std@@SAXXZ
        3 ?__LINE__Var@?0??_Allocate@std@@YAPEAX_K0_N@Z@4JA
        3 ?__LINE__Var@?0??_Deallocate@std@@YAXPEAX_K1@Z@4JA
        3 ?__empty_global_delete@@YAXPEAX@Z
        3 ?__empty_global_delete@@YAXPEAX_K@Z
        3 ?addNodes@Tools@@CAXAEAV?$vector@V?$basic_string@DU?$char_traits@D@std@@V?$allocator@D@2@@std@@V?$allocator@V?$basic_string@DU?$char_traits@D@std@@V?$allocator@D@2@@std@@@2@@std@@AEAV?$_Vector_iterator@V?$_Vector_val@U?$_Simple_types@V?$basic_string@DU?$char_traits@D@std@@V?$allocator@D@2@@std@@@std@@@std@@@3@1PEAV?$Tree@V?$basic_string@DU?$char_traits@D@std@@V?$allocator@D@2@@std@@V12@@@H00@Z
        3 ?addNodesRecursive@Tools@@CAXAEAV?$vector@V?$basic_string@DU?$char_traits@D@std@@V?$allocator@D@2@@std@@V?$allocator@V?$basic_string@DU?$char_traits@D@std@@V?$allocator@D@2@@std@@@2@@std@@AEAV?$_Vector_iterator@V?$_Vector_val@U?$_Simple_types@V?$basic_string@DU?$char_traits@D@std@@V?$allocator@D@2@@std@@@std@@@std@@@3@1PEAV?$Tree@V?$basic_string@DU?$char_traits@D@std@@V?$allocator@D@2@@std@@V12@@@H00@Z
        3 ?allocate@?$allocator@D@std@@QEAAPEAD_K@Z
        3 ?allocate@?$allocator@I@std@@QEAAPEAI_K@Z
        3 ?allocate@?$allocator@U?$_Tree_node@U?$pair@$$CBV?$basic_string@DU?$char_traits@D@std@@V?$allocator@D@2@@std@@V12@@std@@PEAX@std@@@std@@QEAAPEAU?$_Tree_node@U?$pair@$$CBV?$basic_string@DU?$char_traits@D@std@@V?$allocator@D@2@@std@@V12@@std@@PEAX@2@_K@Z
        3 ?allocate@?$allocator@U_Container_proxy@std@@@std@@QEAAPEAU_Container_proxy@2@_K@Z
        3 ?allocate@?$allocator@U_Grp_t@?$_Tgt_state_t@PEBD@std@@@std@@QEAAPEAU_Grp_t@?$_Tgt_state_t@PEBD@2@_K@Z
        3 ?allocate@?$allocator@U_Loop_vals_t@std@@@std@@QEAAPEAU_Loop_vals_t@2@_K@Z
        3 ?allocate@?$allocator@V?$basic_string@DU?$char_traits@D@std@@V?$allocator@D@2@@std@@@std@@QEAAPEAV?$basic_string@DU?$char_traits@D@std@@V?$allocator@D@2@@2@_K@Z
        3 ?allocate@?$allocator@V?$sub_match@PEBD@std@@@std@@QEAAPEAV?$sub_match@PEBD@2@_K@Z
        3 ?append@?$basic_string@DU?$char_traits@D@std@@V?$allocator@D@2@@std@@QEAAAEAV12@AEBV12@@Z
        3 ?append@?$basic_string@DU?$char_traits@D@std@@V?$allocator@D@2@@std@@QEAAAEAV12@QEBD@Z
        3 ?append@?$basic_string@DU?$char_traits@D@std@@V?$allocator@D@2@@std@@QEAAAEAV12@QEBD_K@Z
        3 ?append@?$basic_string@DU?$char_traits@D@std@@V?$allocator@D@2@@std@@QEAAAEAV12@_KD@Z
        3 ?assign@?$basic_string@DU?$char_traits@D@std@@V?$allocator@D@2@@std@@QEAAAEAV12@AEBV12@_K_K@Z
        3 ?assign@?$basic_string@DU?$char_traits@D@std@@V?$allocator@D@2@@std@@QEAAAEAV12@QEBD@Z
        3 ?assign@?$basic_string@DU?$char_traits@D@std@@V?$allocator@D@2@@std@@QEAAAEAV12@QEBD_K@Z
        3 ?assign@?$basic_string@DU?$char_traits@D@std@@V?$allocator@D@2@@std@@QEAAAEAV12@_KD@Z
        3 ?assign@?$char_traits@D@std@@SAPEADQEAD_KD@Z
        3 ?assign@?$char_traits@D@std@@SAXAEADAEBD@Z
        3 ?at@?$basic_string@DU?$char_traits@D@std@@V?$allocator@D@2@@std@@QEAAAEAD_K@Z
        3 ?begin@?$_Tree@V?$_Tmap_traits@V?$basic_string@DU?$char_traits@D@std@@V?$allocator@D@2@@std@@V12@U?$less@V?$basic_string@DU?$char_traits@D@std@@V?$allocator@D@2@@std@@@2@V?$allocator@U?$pair@$$CBV?$basic_string@DU?$char_traits@D@std@@V?$allocator@D@2@@std@@V12@@std@@@2@$0A@@std@@@std@@QEAA?AV?$_Tree_iterator@V?$_Tree_val@U?$_Tree_simple_types@U?$pair@$$CBV?$basic_string@DU?$char_traits@D@std@@V?$allocator@D@2@@std@@V12@@std@@@std@@@std@@@2@XZ
        3 ?begin@?$basic_string@DU?$char_traits@D@std@@V?$allocator@D@2@@std@@QEAA?AV?$_String_iterator@V?$_String_val@U?$_Simple_types@D@std@@@std@@@2@XZ
        3 ?begin@?$basic_string@DU?$char_traits@D@std@@V?$allocator@D@2@@std@@QEBA?AV?$_String_const_iterator@V?$_String_val@U?$_Simple_types@D@std@@@std@@@2@XZ
        3 ?begin@?$initializer_list@U?$pair@$$CBV?$basic_string@DU?$char_traits@D@std@@V?$allocator@D@2@@std@@V12@@std@@@std@@QEBAPEBU?$pair@$$CBV?$basic_string@DU?$char_traits@D@std@@V?$allocator@D@2@@std@@V12@@2@XZ
        3 ?begin@?$vector@IV?$allocator@I@std@@@std@@QEAA?AV?$_Vector_iterator@V?$_Vector_val@U?$_Simple_types@I@std@@@std@@@2@XZ
        3 ?begin@?$vector@V?$basic_string@DU?$char_traits@D@std@@V?$allocator@D@2@@std@@V?$allocator@V?$basic_string@DU?$char_traits@D@std@@V?$allocator@D@2@@std@@@2@@std@@QEAA?AV?$_Vector_iterator@V?$_Vector_val@U?$_Simple_types@V?$basic_string@DU?$char_traits@D@std@@V?$allocator@D@2@@std@@@std@@@std@@@2@XZ
        3 ?begin@?$vector@_NV?$allocator@_N@std@@@std@@QEAA?AV?$_Vb_iterator@U?$_Wrap_alloc@V?$allocator@I@std@@@std@@@2@XZ
        3 ?c_str@?$basic_string@DU?$char_traits@D@std@@V?$allocator@D@2@@std@@QEBAPEBDXZ
        3 ?capacity@?$vector@DV?$allocator@D@std@@@std@@QEBA_KXZ
        3 ?capacity@?$vector@IV?$allocator@I@std@@@std@@QEBA_KXZ
        3 ?capacity@?$vector@U_Grp_t@?$_Tgt_state_t@PEBD@std@@V?$allocator@U_Grp_t@?$_Tgt_state_t@PEBD@std@@@3@@std@@QEBA_KXZ
        3 ?capacity@?$vector@U_Loop_vals_t@std@@V?$allocator@U_Loop_vals_t@std@@@2@@std@@QEBA_KXZ
        3 ?capacity@?$vector@V?$basic_string@DU?$char_traits@D@std@@V?$allocator@D@2@@std@@V?$allocator@V?$basic_string@DU?$char_traits@D@std@@V?$allocator@D@2@@std@@@2@@std@@QEBA_KXZ
        3 ?capacity@?$vector@V?$sub_match@PEBD@std@@V?$allocator@V?$sub_match@PEBD@std@@@2@@std@@QEBA_KXZ
        3 ?capacity@?$vector@_NV?$allocator@_N@std@@@std@@QEBA_KXZ
        3 ?cbegin@?$basic_string@DU?$char_traits@D@std@@V?$allocator@D@2@@std@@QEBA?AV?$_String_const_iterator@V?$_String_val@U?$_Simple_types@D@std@@@std@@@2@XZ
        3 ?clear@?$_Tree@V?$_Tmap_traits@V?$basic_string@DU?$char_traits@D@std@@V?$allocator@D@2@@std@@V12@U?$less@V?$basic_string@DU?$char_traits@D@std@@V?$allocator@D@2@@std@@@2@V?$allocator@U?$pair@$$CBV?$basic_string@DU?$char_traits@D@std@@V?$allocator@D@2@@std@@V12@@std@@@2@$0A@@std@@@std@@QEAAXXZ
        3 ?clearScreen@Tools@@SAXV?$basic_string@DU?$char_traits@D@std@@V?$allocator@D@2@@std@@@Z
        3 ?close@?$basic_filebuf@DU?$char_traits@D@std@@@std@@QEAAPEAV12@XZ
        3 ?close@?$basic_ifstream@DU?$char_traits@D@std@@@std@@QEAAXXZ
        3 ?compare@?$basic_string@DU?$char_traits@D@std@@V?$allocator@D@2@@std@@QEBAHAEBV12@@Z
        3 ?compare@?$char_traits@D@std@@SAHQEBD0_K@Z
        3 ?copy@?$char_traits@D@std@@SAPEADQEADQEBD_K@Z
        3 ?data@?$basic_string@DU?$char_traits@D@std@@V?$allocator@D@2@@std@@QEBAPEBDXZ
        3 ?data@?$vector@DV?$allocator@D@std@@@std@@QEAAPEADXZ
        3 ?data@?$vector@IV?$allocator@I@std@@@std@@QEAAPEAIXZ
        3 ?data@?$vector@IV?$allocator@I@std@@@std@@QEBAPEBIXZ
        3 ?dateTimeToString@Tools@@SA?AV?$basic_string@DU?$char_traits@D@std@@V?$allocator@D@2@@std@@XZ
        3 ?dateToString@Tools@@SA?AV?$basic_string@DU?$char_traits@D@std@@V?$allocator@D@2@@std@@XZ
        3 ?dateToString@Tools@@SA?AV?$basic_string@DU?$char_traits@D@std@@V?$allocator@D@2@@std@@_J@Z
        3 ?deallocate@?$_Default_allocator_traits@V?$allocator@U_Container_proxy@std@@@std@@@std@@SAXAEAV?$allocator@U_Container_proxy@std@@@2@QEAU_Container_proxy@2@_K@Z
        3 ?deallocate@?$allocator@D@std@@QEAAXQEAD_K@Z
        3 ?deallocate@?$allocator@I@std@@QEAAXQEAI_K@Z
        3 ?deallocate@?$allocator@U?$_Tree_node@U?$pair@$$CBV?$basic_string@DU?$char_traits@D@std@@V?$allocator@D@2@@std@@V12@@std@@PEAX@std@@@std@@QEAAXQEAU?$_Tree_node@U?$pair@$$CBV?$basic_string@DU?$char_traits@D@std@@V?$allocator@D@2@@std@@V12@@std@@PEAX@2@_K@Z
        3 ?deallocate@?$allocator@U_Grp_t@?$_Tgt_state_t@PEBD@std@@@std@@QEAAXQEAU_Grp_t@?$_Tgt_state_t@PEBD@2@_K@Z
        3 ?deallocate@?$allocator@U_Loop_vals_t@std@@@std@@QEAAXQEAU_Loop_vals_t@2@_K@Z
        3 ?deallocate@?$allocator@V?$basic_string@DU?$char_traits@D@std@@V?$allocator@D@2@@std@@@std@@QEAAXQEAV?$basic_string@DU?$char_traits@D@std@@V?$allocator@D@2@@2@_K@Z
        3 ?deallocate@?$allocator@V?$sub_match@PEBD@std@@@std@@QEAAXQEAV?$sub_match@PEBD@2@_K@Z
        3 ?do_compare@?$collate@D@std@@MEBAHPEBD000@Z
        3 ?do_hash@?$collate@D@std@@MEBAJPEBD0@Z
        3 ?do_transform@?$collate@D@std@@MEBA?AV?$basic_string@DU?$char_traits@D@std@@V?$allocator@D@2@@2@PEBD0@Z
        3 ?empty@?$vector@_NV?$allocator@_N@std@@@std@@QEBA_NXZ
        3 ?end@?$_Tree@V?$_Tmap_traits@V?$basic_string@DU?$char_traits@D@std@@V?$allocator@D@2@@std@@V12@U?$less@V?$basic_string@DU?$char_traits@D@std@@V?$allocator@D@2@@std@@@2@V?$allocator@U?$pair@$$CBV?$basic_string@DU?$char_traits@D@std@@V?$allocator@D@2@@std@@V12@@std@@@2@$0A@@std@@@std@@QEAA?AV?$_Tree_iterator@V?$_Tree_val@U?$_Tree_simple_types@U?$pair@$$CBV?$basic_string@DU?$char_traits@D@std@@V?$allocator@D@2@@std@@V12@@std@@@std@@@std@@@2@XZ
        3 ?end@?$basic_string@DU?$char_traits@D@std@@V?$allocator@D@2@@std@@QEAA?AV?$_String_iterator@V?$_String_val@U?$_Simple_types@D@std@@@std@@@2@XZ
        3 ?end@?$basic_string@DU?$char_traits@D@std@@V?$allocator@D@2@@std@@QEBA?AV?$_String_const_iterator@V?$_String_val@U?$_Simple_types@D@std@@@std@@@2@XZ
        3 ?end@?$initializer_list@U?$pair@$$CBV?$basic_string@DU?$char_traits@D@std@@V?$allocator@D@2@@std@@V12@@std@@@std@@QEBAPEBU?$pair@$$CBV?$basic_string@DU?$char_traits@D@std@@V?$allocator@D@2@@std@@V12@@2@XZ
        3 ?end@?$vector@IV?$allocator@I@std@@@std@@QEAA?AV?$_Vector_iterator@V?$_Vector_val@U?$_Simple_types@I@std@@@std@@@2@XZ
        3 ?end@?$vector@V?$basic_string@DU?$char_traits@D@std@@V?$allocator@D@2@@std@@V?$allocator@V?$basic_string@DU?$char_traits@D@std@@V?$allocator@D@2@@std@@@2@@std@@QEAA?AV?$_Vector_iterator@V?$_Vector_val@U?$_Simple_types@V?$basic_string@DU?$char_traits@D@std@@V?$allocator@D@2@@std@@@std@@@std@@@2@XZ
        3 ?end@?$vector@_NV?$allocator@_N@std@@@std@@QEAA?AV?$_Vb_iterator@U?$_Wrap_alloc@V?$allocator@I@std@@@std@@@2@XZ
        3 ?eof@?$char_traits@D@std@@SAHXZ
        3 ?eq@?$char_traits@D@std@@SA_NAEBD0@Z
        3 ?eq_int_type@?$char_traits@D@std@@SA_NAEBH0@Z
        3 ?erase@?$_Tree@V?$_Tmap_traits@V?$basic_string@DU?$char_traits@D@std@@V?$allocator@D@2@@std@@V12@U?$less@V?$basic_string@DU?$char_traits@D@std@@V?$allocator@D@2@@std@@@2@V?$allocator@U?$pair@$$CBV?$basic_string@DU?$char_traits@D@std@@V?$allocator@D@2@@std@@V12@@std@@@2@$0A@@std@@@std@@QEAA?AV?$_Tree_iterator@V?$_Tree_val@U?$_Tree_simple_types@U?$pair@$$CBV?$basic_string@DU?$char_traits@D@std@@V?$allocator@D@2@@std@@V12@@std@@@std@@@std@@@2@V?$_Tree_const_iterator@V?$_Tree_val@U?$_Tree_simple_types@U?$pair@$$CBV?$basic_string@DU?$char_traits@D@std@@V?$allocator@D@2@@std@@V12@@std@@@std@@@std@@@2@0@Z
        3 ?erase@?$_Tree@V?$_Tmap_traits@V?$basic_string@DU?$char_traits@D@std@@V?$allocator@D@2@@std@@V12@U?$less@V?$basic_string@DU?$char_traits@D@std@@V?$allocator@D@2@@std@@@2@V?$allocator@U?$pair@$$CBV?$basic_string@DU?$char_traits@D@std@@V?$allocator@D@2@@std@@V12@@std@@@2@$0A@@std@@@std@@QEAA?AV?$_Tree_iterator@V?$_Tree_val@U?$_Tree_simple_types@U?$pair@$$CBV?$basic_string@DU?$char_traits@D@std@@V?$allocator@D@2@@std@@V12@@std@@@std@@@std@@@2@V?$_Tree_const_iterator@V?$_Tree_val@U?$_Tree_simple_types@U?$pair@$$CBV?$basic_string@DU?$char_traits@D@std@@V?$allocator@D@2@@std@@V12@@std@@@std@@@std@@@2@@Z
        3 ?erase@?$basic_string@DU?$char_traits@D@std@@V?$allocator@D@2@@std@@QEAA?AV?$_String_iterator@V?$_String_val@U?$_Simple_types@D@std@@@std@@@2@V?$_String_const_iterator@V?$_String_val@U?$_Simple_types@D@std@@@std@@@2@0@Z
        3 ?erase@?$basic_string@DU?$char_traits@D@std@@V?$allocator@D@2@@std@@QEAAAEAV12@_K@Z
        3 ?erase@?$basic_string@DU?$char_traits@D@std@@V?$allocator@D@2@@std@@QEAAAEAV12@_K_K@Z
        3 ?erase@?$vector@IV?$allocator@I@std@@@std@@QEAA?AV?$_Vector_iterator@V?$_Vector_val@U?$_Simple_types@I@std@@@std@@@2@V?$_Vector_const_iterator@V?$_Vector_val@U?$_Simple_types@I@std@@@std@@@2@0@Z
        3 ?erase@?$vector@_NV?$allocator@_N@std@@@std@@QEAA?AV?$_Vb_iterator@U?$_Wrap_alloc@V?$allocator@I@std@@@std@@@2@V?$_Vb_const_iterator@U?$_Wrap_alloc@V?$allocator@I@std@@@std@@@2@0@Z
        3 ?failed@?$ostreambuf_iterator@DU?$char_traits@D@std@@@std@@QEBA_NXZ
        3 ?fileExists@Tools@@SA_NV?$basic_string@DU?$char_traits@D@std@@V?$allocator@D@2@@std@@0@Z
        3 ?find@?$basic_string@DU?$char_traits@D@std@@V?$allocator@D@2@@std@@QEBA_KQEBD_K@Z
        3 ?find@?$char_traits@D@std@@SAPEBDQEBD_KAEBD@Z
        3 ?findCloseRecursive@Tools@@CA?AV?$_Vector_iterator@V?$_Vector_val@U?$_Simple_types@V?$basic_string@DU?$char_traits@D@std@@V?$allocator@D@2@@std@@@std@@@std@@@std@@AEAV?$vector@V?$basic_string@DU?$char_traits@D@std@@V?$allocator@D@2@@std@@V?$allocator@V?$basic_string@DU?$char_traits@D@std@@V?$allocator@D@2@@std@@@2@@3@V23@V?$basic_string@DU?$char_traits@D@std@@V?$allocator@D@2@@3@@Z
        3 ?findXMLClose@Tools@@CA?AV?$_Vector_iterator@V?$_Vector_val@U?$_Simple_types@V?$basic_string@DU?$char_traits@D@std@@V?$allocator@D@2@@std@@@std@@@std@@@std@@AEAV?$vector@V?$basic_string@DU?$char_traits@D@std@@V?$allocator@D@2@@std@@V?$allocator@V?$basic_string@DU?$char_traits@D@std@@V?$allocator@D@2@@std@@@2@@3@V23@V?$basic_string@DU?$char_traits@D@std@@V?$allocator@D@2@@3@@Z
        3 ?find_first_not_of@?$basic_string@DU?$char_traits@D@std@@V?$allocator@D@2@@std@@QEBA_KQEBD_K@Z
        3 ?find_first_of@?$basic_string@DU?$char_traits@D@std@@V?$allocator@D@2@@std@@QEBA_KD_K@Z
        3 ?find_first_of@?$basic_string@DU?$char_traits@D@std@@V?$allocator@D@2@@std@@QEBA_KQEBD_K@Z
        3 ?find_last_not_of@?$basic_string@DU?$char_traits@D@std@@V?$allocator@D@2@@std@@QEBA_KQEBD_K@Z
        3 ?flags@?$basic_regex@DV?$regex_traits@D@std@@@std@@QEBA?AW4syntax_option_type@regex_constants@2@XZ
        3 ?get_allocator@?$basic_string@DU?$char_traits@D@std@@V?$allocator@D@2@@std@@QEBA?AV?$allocator@D@2@XZ
        3 ?imbue@?$basic_filebuf@DU?$char_traits@D@std@@@std@@MEAAXAEBVlocale@2@@Z
        3 ?insert@?$_Tree@V?$_Tmap_traits@V?$basic_string@DU?$char_traits@D@std@@V?$allocator@D@2@@std@@V12@U?$less@V?$basic_string@DU?$char_traits@D@std@@V?$allocator@D@2@@std@@@2@V?$allocator@U?$pair@$$CBV?$basic_string@DU?$char_traits@D@std@@V?$allocator@D@2@@std@@V12@@std@@@2@$0A@@std@@@std@@QEAAXV?$initializer_list@U?$pair@$$CBV?$basic_string@DU?$char_traits@D@std@@V?$allocator@D@2@@std@@V12@@std@@@2@@Z
        3 ?insert@?$basic_string@DU?$char_traits@D@std@@V?$allocator@D@2@@std@@QEAAAEAV12@_KAEBV12@@Z
        3 ?insert@?$basic_string@DU?$char_traits@D@std@@V?$allocator@D@2@@std@@QEAAAEAV12@_KQEBD0@Z
        3 ?isATree@Tools@@CA_NAEAV?$vector@V?$basic_string@DU?$char_traits@D@std@@V?$allocator@D@2@@std@@V?$allocator@V?$basic_string@DU?$char_traits@D@std@@V?$allocator@D@2@@std@@@2@@std@@V?$_Vector_iterator@V?$_Vector_val@U?$_Simple_types@V?$basic_string@DU?$char_traits@D@std@@V?$allocator@D@2@@std@@@std@@@std@@@3@AEAV43@AEAV?$basic_string@DU?$char_traits@D@std@@V?$allocator@D@2@@3@00@Z
        3 ?isNumeric@Tools@@SA_NV?$basic_string@DU?$char_traits@D@std@@V?$allocator@D@2@@std@@@Z
        3 ?is_open@?$basic_filebuf@DU?$char_traits@D@std@@@std@@QEBA_NXZ
        3 ?is_open@?$basic_ifstream@DU?$char_traits@D@std@@@std@@QEBA_NXZ
        3 ?isctype@?$_Regex_traits@D@std@@QEBA_NDF@Z
        3 ?length@?$_Regex_traits@D@std@@SA_KPEBD@Z
        3 ?length@?$basic_string@DU?$char_traits@D@std@@V?$allocator@D@2@@std@@QEBA_KXZ
        3 ?length@?$char_traits@D@std@@SA_KQEBD@Z
        3 ?mark_count@?$basic_regex@DV?$regex_traits@D@std@@@std@@QEBAIXZ
        3 ?max@?$numeric_limits@D@std@@SADXZ
        3 ?max@?$numeric_limits@E@std@@SAEXZ
        3 ?max@?$numeric_limits@_J@std@@SA_JXZ
        3 ?max_size@?$_Default_allocator_traits@V?$allocator@D@std@@@std@@SA_KAEBV?$allocator@D@2@@Z
        3 ?max_size@?$_Default_allocator_traits@V?$allocator@I@std@@@std@@SA_KAEBV?$allocator@I@2@@Z
        3 ?max_size@?$_Default_allocator_traits@V?$allocator@U?$_Tree_node@U?$pair@$$CBV?$basic_string@DU?$char_traits@D@std@@V?$allocator@D@2@@std@@V12@@std@@PEAX@std@@@std@@@std@@SA_KAEBV?$allocator@U?$_Tree_node@U?$pair@$$CBV?$basic_string@DU?$char_traits@D@std@@V?$allocator@D@2@@std@@V12@@std@@PEAX@std@@@2@@Z
        3 ?max_size@?$_Default_allocator_traits@V?$allocator@U_Grp_t@?$_Tgt_state_t@PEBD@std@@@std@@@std@@SA_KAEBV?$allocator@U_Grp_t@?$_Tgt_state_t@PEBD@std@@@2@@Z
        3 ?max_size@?$_Default_allocator_traits@V?$allocator@U_Loop_vals_t@std@@@std@@@std@@SA_KAEBV?$allocator@U_Loop_vals_t@std@@@2@@Z
        3 ?max_size@?$_Default_allocator_traits@V?$allocator@V?$basic_string@DU?$char_traits@D@std@@V?$allocator@D@2@@std@@@std@@@std@@SA_KAEBV?$allocator@V?$basic_string@DU?$char_traits@D@std@@V?$allocator@D@2@@std@@@2@@Z
        3 ?max_size@?$_Default_allocator_traits@V?$allocator@V?$sub_match@PEBD@std@@@std@@@std@@SA_KAEBV?$allocator@V?$sub_match@PEBD@std@@@2@@Z
        3 ?max_size@?$_Tree@V?$_Tmap_traits@V?$basic_string@DU?$char_traits@D@std@@V?$allocator@D@2@@std@@V12@U?$less@V?$basic_string@DU?$char_traits@D@std@@V?$allocator@D@2@@std@@@2@V?$allocator@U?$pair@$$CBV?$basic_string@DU?$char_traits@D@std@@V?$allocator@D@2@@std@@V12@@std@@@2@$0A@@std@@@std@@QEBA_KXZ
        3 ?max_size@?$basic_string@DU?$char_traits@D@std@@V?$allocator@D@2@@std@@QEBA_KXZ
        3 ?max_size@?$vector@DV?$allocator@D@std@@@std@@QEBA_KXZ
        3 ?max_size@?$vector@IV?$allocator@I@std@@@std@@QEBA_KXZ
        3 ?max_size@?$vector@U_Grp_t@?$_Tgt_state_t@PEBD@std@@V?$allocator@U_Grp_t@?$_Tgt_state_t@PEBD@std@@@3@@std@@QEBA_KXZ
        3 ?max_size@?$vector@U_Loop_vals_t@std@@V?$allocator@U_Loop_vals_t@std@@@2@@std@@QEBA_KXZ
        3 ?max_size@?$vector@V?$basic_string@DU?$char_traits@D@std@@V?$allocator@D@2@@std@@V?$allocator@V?$basic_string@DU?$char_traits@D@std@@V?$allocator@D@2@@std@@@2@@std@@QEBA_KXZ
        3 ?max_size@?$vector@V?$sub_match@PEBD@std@@V?$allocator@V?$sub_match@PEBD@std@@@2@@std@@QEBA_KXZ
        3 ?max_size@?$vector@_NV?$allocator@_N@std@@@std@@QEBA_KXZ
        3 ?memchr@@YAPEAXPEAXH_K@Z
        3 ?move@?$char_traits@D@std@@SAPEADQEADQEBD_K@Z
        3 ?name@locale@std@@QEBA?AV?$basic_string@DU?$char_traits@D@std@@V?$allocator@D@2@@2@XZ
        3 ?not_eof@?$char_traits@D@std@@SAHAEBH@Z
        3 ?npos@?$basic_string@DU?$char_traits@D@std@@V?$allocator@D@2@@std@@2_KB
        3 ?open@?$basic_filebuf@DU?$char_traits@D@std@@@std@@QEAAPEAV12@PEBDHH@Z
        3 ?overflow@?$basic_filebuf@DU?$char_traits@D@std@@@std@@MEAAHH@Z
        3 ?overflow@?$basic_stringbuf@DU?$char_traits@D@std@@V?$allocator@D@2@@std@@MEAAHH@Z
        3 ?pbackfail@?$basic_filebuf@DU?$char_traits@D@std@@@std@@MEAAHH@Z
        3 ?pbackfail@?$basic_stringbuf@DU?$char_traits@D@std@@V?$allocator@D@2@@std@@MEAAHH@Z
        3 ?pointer_to@?$pointer_traits@PEAD@std@@SAPEADAEAD@Z
        3 ?push_back@?$basic_string@DU?$char_traits@D@std@@V?$allocator@D@2@@std@@QEAAXD@Z
        3 ?push_back@?$vector@V?$basic_string@DU?$char_traits@D@std@@V?$allocator@D@2@@std@@V?$allocator@V?$basic_string@DU?$char_traits@D@std@@V?$allocator@D@2@@std@@@2@@std@@QEAAX$$QEAV?$basic_string@DU?$char_traits@D@std@@V?$allocator@D@2@@2@@Z
        3 ?push_back@?$vector@V?$basic_string@DU?$char_traits@D@std@@V?$allocator@D@2@@std@@V?$allocator@V?$basic_string@DU?$char_traits@D@std@@V?$allocator@D@2@@std@@@2@@std@@QEAAXAEBV?$basic_string@DU?$char_traits@D@std@@V?$allocator@D@2@@2@@Z
        3 ?rainbow@Tools@@SAXV?$basic_string@DU?$char_traits@D@std@@V?$allocator@D@2@@std@@@Z
        3 ?readFile@Tools@@SA?AV?$vector@V?$basic_string@DU?$char_traits@D@std@@V?$allocator@D@2@@std@@V?$allocator@V?$basic_string@DU?$char_traits@D@std@@V?$allocator@D@2@@std@@@2@@std@@V?$basic_string@DU?$char_traits@D@std@@V?$allocator@D@2@@3@0@Z
        3 ?replace@?$basic_string@DU?$char_traits@D@std@@V?$allocator@D@2@@std@@QEAAAEAV12@_K_KQEBD0@Z
        3 ?reserve@?$basic_string@DU?$char_traits@D@std@@V?$allocator@D@2@@std@@QEAAX_K@Z
        3 ?resize@?$basic_string@DU?$char_traits@D@std@@V?$allocator@D@2@@std@@QEAAX_KD@Z
        3 ?resize@?$vector@IV?$allocator@I@std@@@std@@QEAAX_KAEBI@Z
        3 ?resize@?$vector@U_Grp_t@?$_Tgt_state_t@PEBD@std@@V?$allocator@U_Grp_t@?$_Tgt_state_t@PEBD@std@@@3@@std@@QEAAX_K@Z
        3 ?resize@?$vector@U_Loop_vals_t@std@@V?$allocator@U_Loop_vals_t@std@@@2@@std@@QEAAX_K@Z
        3 ?resize@?$vector@V?$sub_match@PEBD@std@@V?$allocator@V?$sub_match@PEBD@std@@@2@@std@@QEAAX_K@Z
        3 ?resize@?$vector@_NV?$allocator@_N@std@@@std@@QEAAX_K_N@Z
        3 ?seekoff@?$basic_filebuf@DU?$char_traits@D@std@@@std@@MEAA?AV?$fpos@U_Mbstatet@@@2@_JHH@Z
        3 ?seekoff@?$basic_stringbuf@DU?$char_traits@D@std@@V?$allocator@D@2@@std@@MEAA?AV?$fpos@U_Mbstatet@@@2@_JHH@Z
        3 ?seekpos@?$basic_filebuf@DU?$char_traits@D@std@@@std@@MEAA?AV?$fpos@U_Mbstatet@@@2@V32@H@Z
        3 ?seekpos@?$basic_stringbuf@DU?$char_traits@D@std@@V?$allocator@D@2@@std@@MEAA?AV?$fpos@U_Mbstatet@@@2@V32@H@Z
        3 ?seekpos@?$fpos@U_Mbstatet@@@std@@QEBA_JXZ
        3 ?select_on_container_copy_construction@?$_Default_allocator_traits@V?$allocator@D@std@@@std@@SA?AV?$allocator@D@2@AEBV32@@Z
        3 ?select_on_container_copy_construction@?$_Default_allocator_traits@V?$allocator@I@std@@@std@@SA?AV?$allocator@I@2@AEBV32@@Z
        3 ?select_on_container_copy_construction@?$_Default_allocator_traits@V?$allocator@U_Grp_t@?$_Tgt_state_t@PEBD@std@@@std@@@std@@SA?AV?$allocator@U_Grp_t@?$_Tgt_state_t@PEBD@std@@@2@AEBV32@@Z
        3 ?setColor@Tools@@SAXW4COLORS@@0@Z
        3 ?setFullScreen@Tools@@SAXXZ
        3 ?setbuf@?$basic_filebuf@DU?$char_traits@D@std@@@std@@MEAAPEAV?$basic_streambuf@DU?$char_traits@D@std@@@2@PEAD_J@Z
        3 ?size@?$_Tree@V?$_Tmap_traits@V?$basic_string@DU?$char_traits@D@std@@V?$allocator@D@2@@std@@V12@U?$less@V?$basic_string@DU?$char_traits@D@std@@V?$allocator@D@2@@std@@@2@V?$allocator@U?$pair@$$CBV?$basic_string@DU?$char_traits@D@std@@V?$allocator@D@2@@std@@V12@@std@@@2@$0A@@std@@@std@@QEBA_KXZ
        3 ?size@?$basic_string@DU?$char_traits@D@std@@V?$allocator@D@2@@std@@QEBA_KXZ
        3 ?size@?$vector@DV?$allocator@D@std@@@std@@QEBA_KXZ
        3 ?size@?$vector@IV?$allocator@I@std@@@std@@QEBA_KXZ
        3 ?size@?$vector@U_Grp_t@?$_Tgt_state_t@PEBD@std@@V?$allocator@U_Grp_t@?$_Tgt_state_t@PEBD@std@@@3@@std@@QEBA_KXZ
        3 ?size@?$vector@U_Loop_vals_t@std@@V?$allocator@U_Loop_vals_t@std@@@2@@std@@QEBA_KXZ
        3 ?size@?$vector@V?$basic_string@DU?$char_traits@D@std@@V?$allocator@D@2@@std@@V?$allocator@V?$basic_string@DU?$char_traits@D@std@@V?$allocator@D@2@@std@@@2@@std@@QEBA_KXZ
        3 ?size@?$vector@V?$sub_match@PEBD@std@@V?$allocator@V?$sub_match@PEBD@std@@@2@@std@@QEBA_KXZ
        3 ?size@?$vector@_NV?$allocator@_N@std@@@std@@QEBA_KXZ
        3 ?state@?$fpos@U_Mbstatet@@@std@@QEBA?AU_Mbstatet@@XZ
        3 ?str@?$basic_ostringstream@DU?$char_traits@D@std@@V?$allocator@D@2@@std@@QEBA?AV?$basic_string@DU?$char_traits@D@std@@V?$allocator@D@2@@2@XZ
        3 ?str@?$basic_stringbuf@DU?$char_traits@D@std@@V?$allocator@D@2@@std@@QEBA?AV?$basic_string@DU?$char_traits@D@std@@V?$allocator@D@2@@2@XZ
        3 ?substr@?$basic_string@DU?$char_traits@D@std@@V?$allocator@D@2@@std@@QEBA?AV12@_K0@Z
        3 ?sync@?$basic_filebuf@DU?$char_traits@D@std@@@std@@MEAAHXZ
        3 ?toLower@Tools@@SA?AV?$basic_string@DU?$char_traits@D@std@@V?$allocator@D@2@@std@@V23@@Z
        3 ?toUpper@Tools@@SA?AV?$basic_string@DU?$char_traits@D@std@@V?$allocator@D@2@@std@@V23@@Z
        3 ?to_char_type@?$char_traits@D@std@@SADAEBH@Z
        3 ?to_int_type@?$char_traits@D@std@@SAHAEBD@Z
        3 ?tokenSplit@Tools@@SA?AV?$vector@V?$basic_string@DU?$char_traits@D@std@@V?$allocator@D@2@@std@@V?$allocator@V?$basic_string@DU?$char_traits@D@std@@V?$allocator@D@2@@std@@@2@@std@@V?$basic_string@DU?$char_traits@D@std@@V?$allocator@D@2@@3@@Z
        3 ?transform@?$collate@D@std@@QEBA?AV?$basic_string@DU?$char_traits@D@std@@V?$allocator@D@2@@2@PEBD0@Z
        3 ?translate@?$_Regex_traits@D@std@@QEBADD@Z
        3 ?translate_nocase@?$_Regex_traits@D@std@@QEBADD@Z
        3 ?trim@Tools@@SA?AV?$basic_string@DU?$char_traits@D@std@@V?$allocator@D@2@@std@@V23@@Z
        3 ?trimDelimiters@Tools@@SA?AV?$basic_string@DU?$char_traits@D@std@@V?$allocator@D@2@@std@@V23@@Z
        3 ?uflow@?$basic_filebuf@DU?$char_traits@D@std@@@std@@MEAAHXZ
        3 ?underflow@?$basic_filebuf@DU?$char_traits@D@std@@@std@@MEAAHXZ
        3 ?underflow@?$basic_stringbuf@DU?$char_traits@D@std@@V?$allocator@D@2@@std@@MEAAHXZ
        3 ?validateTag@Tools@@CA_NAEAV?$vector@V?$basic_string@DU?$char_traits@D@std@@V?$allocator@D@2@@std@@V?$allocator@V?$basic_string@DU?$char_traits@D@std@@V?$allocator@D@2@@std@@@2@@std@@V?$_Vector_iterator@V?$_Vector_val@U?$_Simple_types@V?$basic_string@DU?$char_traits@D@std@@V?$allocator@D@2@@std@@@std@@@std@@@3@AEAV43@AEAV?$basic_string@DU?$char_traits@D@std@@V?$allocator@D@2@@3@00@Z
        3 ?value@?$regex_traits@D@std@@QEBAHDH@Z
        3 ?what@exception@std@@UEBAPEBDXZ
        3 ?wordSplit@Tools@@SA?AV?$vector@V?$basic_string@DU?$char_traits@D@std@@V?$allocator@D@2@@std@@V?$allocator@V?$basic_string@DU?$char_traits@D@std@@V?$allocator@D@2@@std@@@2@@std@@V?$basic_string@DU?$char_traits@D@std@@V?$allocator@D@2@@3@@Z
        3 ?wordSplit@Tools@@SA?AV?$vector@V?$basic_string@DU?$char_traits@D@std@@V?$allocator@D@2@@std@@V?$allocator@V?$basic_string@DU?$char_traits@D@std@@V?$allocator@D@2@@std@@@2@@std@@V?$basic_string@DU?$char_traits@D@std@@V?$allocator@D@2@@3@W4CASE@@@Z
        3 _CT??_R0?AVbad_cast@std@@@8??0bad_cast@std@@QEAA@AEBV01@@Z24
        3 _CT??_R0?AVexception@std@@@8??0exception@std@@QEAA@AEBV01@@Z24
        3 _CTA2?AVbad_cast@std@@
        3 _TI2?AVbad_cast@std@@

Archive member name at 64398: //              
5A1F8FD5 time/date Wed Nov 29 20:57:57 2017
         uid
         gid
       0 mode
      50 size
correct header end

  Summary

           8 .CRT$XCU
          40 .bss
           8 .data
         54A .data$r
       A929C .debug$S
         1D0 .debug$T
         384 .drectve
        52F8 .pdata
        B46C .rdata
         BF0 .rdata$r
           8 .rtc$IMZ
           8 .rtc$TMZ
          FA .text$di
       39200 .text$mn
        4C4E .text$x
          34 .text$yd
        AFB4 .xdata
          78 .xdata$x
